GAS LISTING /tmp/ccvQL2RB.s 			page 1


   1               		.file	"x.c"
   2               		.arch msp430x2013
   3               	
   4               		.section	.debug_abbrev,"",@progbits
   5               	.Ldebug_abbrev0:
   6               		.section	.debug_info,"",@progbits
   7               	.Ldebug_info0:
   8               		.section	.debug_line,"",@progbits
   9               	.Ldebug_line0:
  10               		.text
  11               	.Ltext0:
  12               		.p2align 1,0
  13               	.global	_reset_vector__
  14               		.type	_reset_vector__,@function
  15               	/***********************
  16               	 * Function `_reset_vector__' 
  17               	 ***********************/
  18               	_reset_vector__:
  19               	.LFB0:
  20               	.LM1:
  21               		/* prologue: naked */
  22               	.L__FrameSize__reset_vector__=0x0
  23               	.LM2:
  24               	/* #APP */
  25               	 ;  384 "x.c" 1
  26 0000 3040 0000 		br #main
  27               	 ;  0 "" 2
  28               	
  29               		/* epilogue: naked */
  30               	.LM3:
  31               	/* #NOAPP */
  32               	.LFE0:
  33               	.Lfe1:
  34               		.size	_reset_vector__,.Lfe1-_reset_vector__
  35               	;; End of function 
  36               	
  37               		.p2align 1,0
  38               	.global	junkInterrupt
  39               	.global	vector_ffe0
  40               		.type	junkInterrupt,@function
  41               	/***********************
  42               	 * Interrupt Service Routine `junkInterrupt' at 0xffe0
  43               	 ***********************/
  44               	vector_ffe0:
  45               	junkInterrupt:
  46               	.LFB1:
  47               	.LM4:
  48               		/* prologue ends here (frame size = 0) */
  49               	.L__FrameSize_junkInterrupt=0x0
  50               	.L__FrameOffset_junkInterrupt=0x0
  51               	
  52               		/* epilogue: not required */
  53               	.LM5:
  54 0004 0013      		reti
  55               	.LFE1:
  56               	.Lfe2:
  57               		.size	junkInterrupt,.Lfe2-junkInterrupt
GAS LISTING /tmp/ccvQL2RB.s 			page 2


  58               	;; End of function 
  59               	
  60               		.p2align 1,0
  61               	.global	adcInterrupt
  62               	.global	vector_ffe2
  63               		.type	adcInterrupt,@function
  64               	/***********************
  65               	 * Interrupt Service Routine `adcInterrupt' at 0xffe2
  66               	 ***********************/
  67               	vector_ffe2:
  68               	adcInterrupt:
  69               	.LFB2:
  70               	.LM6:
  71               		/* prologue ends here (frame size = 0) */
  72               	.L__FrameSize_adcInterrupt=0x0
  73               	.L__FrameOffset_adcInterrupt=0x0
  74               	
  75               		/* epilogue: not required */
  76               	.LM7:
  77 0006 0013      		reti
  78               	.LFE2:
  79               	.Lfe3:
  80               		.size	adcInterrupt,.Lfe3-adcInterrupt
  81               	;; End of function 
  82               	
  83               		.p2align 1,0
  84               	.global	timerInterrupt
  85               	.global	vector_ffe4
  86               		.type	timerInterrupt,@function
  87               	/***********************
  88               	 * Interrupt Service Routine `timerInterrupt' at 0xffe4
  89               	 ***********************/
  90               	vector_ffe4:
  91               	timerInterrupt:
  92               	.LFB3:
  93               	.LM8:
  94 0008 0F12      		push	r15
  95               	.LCFI0:
  96 000a 0E12      		push	r14
  97               	.LCFI1:
  98               		/* prologue ends here (frame size = 0) */
  99               	.L__FrameSize_timerInterrupt=0x0
 100               	.L__FrameOffset_timerInterrupt=0x4
 101               	.LM9:
 102 000c 8243 0260 		mov	#0, &0x6002 
 103               	.LM10:
 104 0010 9253 0000 		add	#1, &clicks
 105               	.LM11:
 106 0014 9242 0020 		mov	&0x2000, &inputCharBit 
 106      0000 
 107               	.LM12:
 108 001a B2F0 2000 		and	#32, &inputCharBit
 108      0000 
 109               	.LM13:
 110 0020 1F42 0000 		mov	&clicks, r15 
 111 0024 3FF0 0300 		and	#3, r15
 112 0028 2220      		jne	.L8
GAS LISTING /tmp/ccvQL2RB.s 			page 3


 113               	.LM14:
 114 002a 829F 0000 		cmp	r15, &outputCharCntr
 115 002e 5624      		jeq	.L9
 116               	.LM15:
 117 0030 92B3 0000 		bit	#1,&outputChar
 118 0034 7224      		jeq	.L10
 119               	.LM16:
 120 0036 B2D0 1000 		bis	#16, &0x2008
 120      0820 
 121               	.L11:
 122               	.LM17:
 123 003c B253 0000 		add	#llo(-1), &outputCharCntr
 124               	.LM18:
 125 0040 12C3      		clrc
 126 0042 1210 0000 		rrc	&outputChar
 127               	.L12:
 128               	.LM19:
 129 0046 1F42 0000 		mov	&fastTimer, r15 
 130 004a 0F93      		cmp	#0, r15
 131 004c 0324      		jeq	.L13
 132               	.LM20:
 133 004e 3F53      		add	#llo(-1), r15
 134 0050 824F 0000 		mov	r15, &fastTimer 
 135               	.L13:
 136               	.LM21:
 137 0054 1F42 0000 		mov	&subSecondClock, r15 
 138 0058 3F53      		add	#llo(-1), r15
 139 005a 824F 0000 		mov	r15, &subSecondClock 
 140               	.LM22:
 141 005e 0720      		jne	.L8
 142               	.LM23:
 143 0060 B240 6009 		mov	#2400, &subSecondClock 
 143      0000 
 144               	.LM24:
 145 0066 1E42 0000 		mov	&slowTimer, r14 
 146 006a 0E9F      		cmp	r15, r14
 147 006c 5220      		jne	.L19
 148               	.L8:
 149               	.LM25:
 150 006e 1F42 0000 		mov	&inputCharCntr, r15 
 151 0072 0F93      		cmp	#0, r15
 152 0074 2724      		jeq	.L14
 153               	.LM26:
 154 0076 B253 0000 		add	#llo(-1), &inputCharCntr
 155               	.LM27:
 156 007a B2B0 0300 		bit	#3,&inputCharCntr
 156      0000 
 157 0080 1E20      		jne	.L17
 158 0082 1F42 0000 		mov	&inputCharCntr, r15 
 159 0086 7FF0 FCFF 		and.b	#llo(-4), r15
 160 008a 1924      		jeq	.L17
 161               	.LM28:
 162 008c 8293 0000 		cmp	#0, &inputCharBit
 163 0090 0324      		jeq	.L16
 164               	.LM29:
 165 0092 B2D0 0001 		bis	#256, &inputCharX
 165      0000 
GAS LISTING /tmp/ccvQL2RB.s 			page 4


 166               	.L16:
 167               	.LM30:
 168 0098 12C3      		clrc
 169 009a 1210 0000 		rrc	&inputCharX
 170               	.LM31:
 171 009e A292 0000 		cmp	#4, &inputCharCntr
 172 00a2 0D20      		jne	.L17
 173               	.LM32:
 174 00a4 1F42 0000 		mov	&inputRingPtrXin, r15 
 175 00a8 1E42 0000 		mov	&inputCharX, r14 
 176 00ac CF4E 0000 		mov.b	r14, inputRing(r15)
 177               	.LM33:
 178 00b0 1F42 0000 		mov	&inputRingPtrXin, r15 
 179 00b4 1F53      		add	#1, r15
 180 00b6 3FF0 0F00 		and	#15, r15
 181 00ba 824F 0000 		mov	r15, &inputRingPtrXin 
 182               	.L17:
 183               	
 184               		/* epilogue: frame size = 0 */
 185               	.LM34:
 186 00be 3E41      		pop	r14
 187 00c0 3F41      		pop	r15
 188 00c2 0013      		reti
 189               	.L14:
 190               	.LM35:
 191 00c4 1E42 0000 		mov	&inputCharBit, r14 
 192 00c8 0E9F      		cmp	r15, r14
 193 00ca F923      		jne	.L17
 194               	.LM36:
 195 00cc B240 2600 		mov	#38, &inputCharCntr 
 195      0000 
 196               	.LM37:
 197 00d2 824E 0000 		mov	r14, &inputCharX 
 198               	.LM38:
 199 00d6 3E41      		pop	r14
 200               	.LCFI2:
 201 00d8 3F41      		pop	r15
 202               	.LCFI3:
 203 00da 0013      		reti
 204               	.L9:
 205               	.LM39:
 206 00dc 1E42 0000 		mov	&outputRingPtrXin, r14 
 207 00e0 1F42 0000 		mov	&outputRingPtrXout, r15 
 208 00e4 0E9F      		cmp	r15, r14
 209 00e6 AF27      		jeq	.L12
 210               	.LM40:
 211 00e8 1F42 0000 		mov	&outputRingPtrXout, r15 
 212 00ec 0F5F      		rla	r15
 213 00ee 924F 0000 		mov	outputRing(r15), &outputChar 
 213      0000 
 214               	.LM41:
 215 00f4 9253 0000 		add	#1, &outputRingPtrXout
 216               	.LM42:
 217 00f8 B2F0 0F00 		and	#15, &outputRingPtrXout
 217      0000 
 218               	.LM43:
 219 00fe 9252 0000 		rla	&outputChar
GAS LISTING /tmp/ccvQL2RB.s 			page 5


 219      0000 
 220               	.LM44:
 221 0104 B250 00FE 		add	#llo(-512), &outputChar
 221      0000 
 222               	.LM45:
 223 010a B240 0A00 		mov	#10, &outputCharCntr 
 223      0000 
 224 0110 9A3F      		jmp	.L12
 225               	.L19:
 226               	.LM46:
 227 0112 3E53      		add	#llo(-1), r14
 228 0114 824E 0000 		mov	r14, &slowTimer 
 229 0118 AA3F      		jmp	.L8
 230               	.L10:
 231               	.LM47:
 232 011a B2F0 EFFF 		and	#llo(-17), &0x2008
 232      0820 
 233 0120 8D3F      		jmp	.L11
 234               	.LFE3:
 235               	.Lfe4:
 236               		.size	timerInterrupt,.Lfe4-timerInterrupt
 237               	;; End of function 
 238               	
 239               		.p2align 1,0
 240               	.global	emit
 241               		.type	emit,@function
 242               	/***********************
 243               	 * Function `emit' 
 244               	 ***********************/
 245               	emit:
 246               	.LFB5:
 247               	.LM48:
 248               	.LVL0:
 249               		/* prologue ends here (frame size = 0) */
 250               	.L__FrameSize_emit=0x0
 251               	.L__FrameOffset_emit=0x0
 252               	.LM49:
 253 0122 1C42 0000 		mov	&outputRingPtrXin, r12 
 254               	.LM50:
 255 0126 1D42 0000 		mov	&outputRingPtrXout, r13 
 256 012a 1E42 0000 		mov	&outputRingPtrXin, r14 
 257 012e 0D9E      		cmp	r14, r13
 258 0130 0724      		jeq	.L21
 259               	.L24:
 260               	.LM51:
 261               	/* #APP */
 262               	 ;  500 "x.c" 1
 263 0132 32D2      		eint
 264               	 ;  0 "" 2
 265               	.LM52:
 266               	/* #NOAPP */
 267 0134 1D42 0000 		mov	&outputRingPtrXout, r13 
 268 0138 1E42 0000 		mov	&outputRingPtrXin, r14 
 269 013c 0D9E      		cmp	r14, r13
 270 013e F923      		jne	.L24
 271               	.L21:
 272               	.LM53:
GAS LISTING /tmp/ccvQL2RB.s 			page 6


 273 0140 1E42 0000 		mov	&outputRingPtrXin, r14 
 274 0144 0E5E      		rla	r14
 275 0146 CE4F 0000 		mov.b	r15, outputRing(r14)
 276 014a CE43 0000 		clr.b	outputRing+1(r14)
 277               	.LM54:
 278 014e 4F4C      		mov.b	r12, r15
 279               	.LVL1:
 280 0150 5F53      		add.b	#1, r15
 281               	.LM55:
 282 0152 0E4F      		mov	r15, r14 
 283 0154 3EF0 0F00 		and	#15, r14
 284 0158 824E 0000 		mov	r14, &outputRingPtrXin 
 285               	
 286               		/* epilogue: not required */
 287               	.LM56:
 288 015c 3041      		ret
 289               	.LFE5:
 290               	.Lfe5:
 291               		.size	emit,.Lfe5-emit
 292               	;; End of function 
 293               	
 294               		.p2align 1,0
 295               	.global	getKey
 296               		.type	getKey,@function
 297               	/***********************
 298               	 * Function `getKey' 
 299               	 ***********************/
 300               	getKey:
 301               	.LFB6:
 302               	.LM57:
 303 015e 013C      		jmp	.L32
 304               		/* prologue ends here (frame size = 0) */
 305               	.L__FrameSize_getKey=0x0
 306               	.L__FrameOffset_getKey=0x0
 307               	.L30:
 308               	.LM58:
 309               	/* #APP */
 310               	 ;  511 "x.c" 1
 311 0160 32D2      		eint
 312               	 ;  0 "" 2
 313               	/* #NOAPP */
 314               	.L32:
 315               	.LM59:
 316 0162 1E42 0000 		mov	&inputRingPtrXin, r14 
 317 0166 1F42 0000 		mov	&inputRingPtrXout, r15 
 318 016a 0E9F      		cmp	r15, r14
 319 016c F927      		jeq	.L30
 320               	.LM60:
 321 016e 1F42 0000 		mov	&inputRingPtrXout, r15 
 322 0172 0E4F      		mov	r15, r14 
 323 0174 1E53      		add	#1, r14
 324 0176 824E 0000 		mov	r14, &inputRingPtrXout 
 325               	.LM61:
 326 017a B2F0 0F00 		and	#15, &inputRingPtrXout
 326      0000 
 327               	.LM62:
 328 0180 5F4F 0000 		mov.b	inputRing(r15), r15
GAS LISTING /tmp/ccvQL2RB.s 			page 7


 329               	
 330               		/* epilogue: not required */
 331 0184 3041      		ret
 332               	.LFE6:
 333               	.Lfe6:
 334               		.size	getKey,.Lfe6-getKey
 335               	;; End of function 
 336               	
 337               		.p2align 1,0
 338               	.global	initVars
 339               		.type	initVars,@function
 340               	/***********************
 341               	 * Function `initVars' 
 342               	 ***********************/
 343               	initVars:
 344               	.LFB7:
 345               	.LM63:
 346               		/* prologue ends here (frame size = 0) */
 347               	.L__FrameSize_initVars=0x0
 348               	.L__FrameOffset_initVars=0x0
 349               	.LM64:
 350 0186 8243 0000 		mov	#0, &outputCharCntrN 
 351               	.LM65:
 352 018a 8243 0000 		mov	#0, &outputCharCntr 
 353               	.LM66:
 354 018e 8243 0000 		mov	#0, &inputCharCntr 
 355               	.LM67:
 356 0192 8243 0000 		mov	#0, &inputRingPtrXin 
 357               	.LM68:
 358 0196 8243 0000 		mov	#0, &inputRingPtrXout 
 359               	.LM69:
 360 019a 8243 0000 		mov	#0, &outputRingPtrXin 
 361               	.LM70:
 362 019e 8243 0000 		mov	#0, &outputRingPtrXout 
 363               	.LM71:
 364 01a2 C243 0000 		mov.b	#0, &inputBufPtr
 365               	
 366               		/* epilogue: not required */
 367               	.LM72:
 368 01a6 3041      		ret
 369               	.LFE7:
 370               	.Lfe7:
 371               		.size	initVars,.Lfe7-initVars
 372               	;; End of function 
 373               	
 374               		.p2align 1,0
 375               	.global	getKeyB
 376               		.type	getKeyB,@function
 377               	/***********************
 378               	 * Function `getKeyB' 
 379               	 ***********************/
 380               	getKeyB:
 381               	.LFB8:
 382               	.LM73:
 383               		/* prologue ends here (frame size = 0) */
 384               	.L__FrameSize_getKeyB=0x0
 385               	.L__FrameOffset_getKeyB=0x0
GAS LISTING /tmp/ccvQL2RB.s 			page 8


 386               	.LM74:
 387 01a8 1E42 0000 		mov	&lineBufferPtr, r14 
 388 01ac 5F4E 0000 		mov.b	lineBuffer(r14), r15
 389               	.LVL2:
 390               	.LM75:
 391 01b0 4F93      		cmp.b	#0, r15
 392 01b2 0324      		jeq	.L36
 393 01b4 1E53      		add	#1, r14
 394 01b6 824E 0000 		mov	r14, &lineBufferPtr 
 395               	.L36:
 396               	.LVL3:
 397               	.LM76:
 398 01ba 3041      		ret
 399               	.LFE8:
 400               	.Lfe8:
 401               		.size	getKeyB,.Lfe8-getKeyB
 402               	;; End of function 
 403               	
 404               		.p2align 1,0
 405               	.global	getLine
 406               		.type	getLine,@function
 407               	/***********************
 408               	 * Function `getLine' 
 409               	 ***********************/
 410               	getLine:
 411               	.LFB9:
 412               	.LM77:
 413 01bc 0B12      		push	r11
 414               	.LCFI4:
 415 01be 0A12      		push	r10
 416               	.LCFI5:
 417 01c0 0912      		push	r9
 418               	.LCFI6:
 419               		/* prologue ends here (frame size = 0) */
 420               	.L__FrameSize_getLine=0x0
 421               	.L__FrameOffset_getLine=0x6
 422               	.LM78:
 423 01c2 8243 0000 		mov	#0, &lineBufferPtr 
 424               	.LBB244:
 425               	.LBB245:
 426               	.LM79:
 427 01c6 1D42 0000 		mov	&outputRingPtrXin, r13 
 428               	.LM80:
 429 01ca 1E42 0000 		mov	&outputRingPtrXout, r14 
 430 01ce 1F42 0000 		mov	&outputRingPtrXin, r15 
 431 01d2 0E9F      		cmp	r15, r14
 432 01d4 0724      		jeq	.L39
 433               	.L70:
 434               	.LM81:
 435               	/* #APP */
 436               	 ;  500 "x.c" 1
 437 01d6 32D2      		eint
 438               	 ;  0 "" 2
 439               	.LM82:
 440               	/* #NOAPP */
 441 01d8 1E42 0000 		mov	&outputRingPtrXout, r14 
 442 01dc 1F42 0000 		mov	&outputRingPtrXin, r15 
GAS LISTING /tmp/ccvQL2RB.s 			page 9


 443 01e0 0E9F      		cmp	r15, r14
 444 01e2 F923      		jne	.L70
 445               	.L39:
 446               	.LM83:
 447 01e4 1F42 0000 		mov	&outputRingPtrXin, r15 
 448 01e8 0F5F      		rla	r15
 449 01ea BF40 0D00 		mov	#13, outputRing(r15) 
 449      0000 
 450               	.LM84:
 451 01f0 4F4D      		mov.b	r13, r15
 452 01f2 5F53      		add.b	#1, r15
 453               	.LM85:
 454 01f4 0E4F      		mov	r15, r14 
 455 01f6 3EF0 0F00 		and	#15, r14
 456 01fa 824E 0000 		mov	r14, &outputRingPtrXin 
 457               	.LBE245:
 458               	.LBE244:
 459               	.LBB246:
 460               	.LBB247:
 461               	.LM86:
 462 01fe 1D42 0000 		mov	&outputRingPtrXin, r13 
 463               	.LM87:
 464 0202 1E42 0000 		mov	&outputRingPtrXout, r14 
 465 0206 1F42 0000 		mov	&outputRingPtrXin, r15 
 466 020a 0E9F      		cmp	r15, r14
 467 020c 0724      		jeq	.L41
 468               	.L69:
 469               	.LM88:
 470               	/* #APP */
 471               	 ;  500 "x.c" 1
 472 020e 32D2      		eint
 473               	 ;  0 "" 2
 474               	.LM89:
 475               	/* #NOAPP */
 476 0210 1E42 0000 		mov	&outputRingPtrXout, r14 
 477 0214 1F42 0000 		mov	&outputRingPtrXin, r15 
 478 0218 0E9F      		cmp	r15, r14
 479 021a F923      		jne	.L69
 480               	.L41:
 481               	.LM90:
 482 021c 1F42 0000 		mov	&outputRingPtrXin, r15 
 483 0220 0F5F      		rla	r15
 484 0222 BF40 0A00 		mov	#10, outputRing(r15) 
 484      0000 
 485               	.LM91:
 486 0228 4F4D      		mov.b	r13, r15
 487 022a 5F53      		add.b	#1, r15
 488               	.LM92:
 489 022c 0E4F      		mov	r15, r14 
 490 022e 3EF0 0F00 		and	#15, r14
 491 0232 824E 0000 		mov	r14, &outputRingPtrXin 
 492               	.LBE247:
 493               	.LBE246:
 494               	.LBB248:
 495               	.LBB249:
 496               	.LM93:
 497 0236 1D42 0000 		mov	&outputRingPtrXin, r13 
GAS LISTING /tmp/ccvQL2RB.s 			page 10


 498               	.LM94:
 499 023a 1E42 0000 		mov	&outputRingPtrXout, r14 
 500 023e 1F42 0000 		mov	&outputRingPtrXin, r15 
 501 0242 0E9F      		cmp	r15, r14
 502 0244 0724      		jeq	.L43
 503               	.L68:
 504               	.LM95:
 505               	/* #APP */
 506               	 ;  500 "x.c" 1
 507 0246 32D2      		eint
 508               	 ;  0 "" 2
 509               	.LM96:
 510               	/* #NOAPP */
 511 0248 1E42 0000 		mov	&outputRingPtrXout, r14 
 512 024c 1F42 0000 		mov	&outputRingPtrXin, r15 
 513 0250 0E9F      		cmp	r15, r14
 514 0252 F923      		jne	.L68
 515               	.L43:
 516               	.LM97:
 517 0254 1F42 0000 		mov	&outputRingPtrXin, r15 
 518 0258 0F5F      		rla	r15
 519 025a BF40 3E00 		mov	#62, outputRing(r15) 
 519      0000 
 520               	.LM98:
 521 0260 4F4D      		mov.b	r13, r15
 522 0262 5F53      		add.b	#1, r15
 523               	.LM99:
 524 0264 0E4F      		mov	r15, r14 
 525 0266 3EF0 0F00 		and	#15, r14
 526 026a 824E 0000 		mov	r14, &outputRingPtrXin 
 527 026e 0D43      		mov	#0, r13 
 528               	.LBE249:
 529               	.LBE248:
 530               	.LM100:
 531 0270 3940 7D00 		mov	#125, r9 
 532 0274 013C      		jmp	.L80
 533               	.LVL4:
 534               	.L46:
 535               	.LBB250:
 536               	.LBB251:
 537               	.LM101:
 538               	/* #APP */
 539               	 ;  511 "x.c" 1
 540 0276 32D2      		eint
 541               	 ;  0 "" 2
 542               	/* #NOAPP */
 543               	.L80:
 544               	.LM102:
 545 0278 1E42 0000 		mov	&inputRingPtrXin, r14 
 546 027c 1F42 0000 		mov	&inputRingPtrXout, r15 
 547 0280 0E9F      		cmp	r15, r14
 548 0282 F927      		jeq	.L46
 549               	.LM103:
 550 0284 1F42 0000 		mov	&inputRingPtrXout, r15 
 551 0288 5C4F 0000 		mov.b	inputRing(r15), r12
 552 028c 1F53      		add	#1, r15
 553 028e 824F 0000 		mov	r15, &inputRingPtrXout 
GAS LISTING /tmp/ccvQL2RB.s 			page 11


 554               	.LM104:
 555 0292 B2F0 0F00 		and	#15, &inputRingPtrXout
 555      0000 
 556               	.LBE251:
 557               	.LBE250:
 558               	.LM105:
 559 0298 4B4C      		mov.b	r12, r11
 560               	.LM106:
 561 029a 3B92      		cmp	#8, r11
 562 029c 4D24      		jeq	.L82
 563               	.LBB252:
 564               	.LBB253:
 565               	.LM107:
 566 029e 1A42 0000 		mov	&outputRingPtrXin, r10 
 567               	.LM108:
 568 02a2 1E42 0000 		mov	&outputRingPtrXout, r14 
 569 02a6 1F42 0000 		mov	&outputRingPtrXin, r15 
 570 02aa 0E9F      		cmp	r15, r14
 571 02ac 0724      		jeq	.L55
 572               	.L67:
 573               	.LM109:
 574               	/* #APP */
 575               	 ;  500 "x.c" 1
 576 02ae 32D2      		eint
 577               	 ;  0 "" 2
 578               	.LM110:
 579               	/* #NOAPP */
 580 02b0 1E42 0000 		mov	&outputRingPtrXout, r14 
 581 02b4 1F42 0000 		mov	&outputRingPtrXin, r15 
 582 02b8 0E9F      		cmp	r15, r14
 583 02ba F923      		jne	.L67
 584               	.L55:
 585               	.LM111:
 586 02bc 1F42 0000 		mov	&outputRingPtrXin, r15 
 587 02c0 0F5F      		rla	r15
 588 02c2 CF4C 0000 		mov.b	r12, outputRing(r15)
 589 02c6 CF43 0000 		clr.b	outputRing+1(r15)
 590               	.LM112:
 591 02ca 4F4A      		mov.b	r10, r15
 592 02cc 5F53      		add.b	#1, r15
 593               	.LM113:
 594 02ce 0E4F      		mov	r15, r14 
 595 02d0 3EF0 0F00 		and	#15, r14
 596 02d4 824E 0000 		mov	r14, &outputRingPtrXin 
 597               	.LBE253:
 598               	.LBE252:
 599               	.LM114:
 600 02d8 3B90 0D00 		cmp	#13, r11
 601 02dc 8324      		jeq	.L83
 602               	.LM115:
 603 02de CD4C 0000 		mov.b	r12, lineBuffer(r13)
 604 02e2 1D53      		add	#1, r13
 605               	.LM116:
 606 02e4 CD43 0000 		mov.b	#0, lineBuffer(r13)
 607               	.LM117:
 608 02e8 099D      		cmp	r13, r9
 609 02ea 0228      		jlo	.L81
GAS LISTING /tmp/ccvQL2RB.s 			page 12


 610               	.LM118:
 611 02ec 0B93      		cmp	#0, r11
 612 02ee C423      		jne	.L80
 613               	.L81:
 614 02f0 824D 0000 		mov	r13, &lineBufferPtr 
 615               	.L58:
 616               	.LBB254:
 617               	.LBB255:
 618               	.LM119:
 619 02f4 1D42 0000 		mov	&outputRingPtrXin, r13 
 620               	.LM120:
 621 02f8 1E42 0000 		mov	&outputRingPtrXout, r14 
 622 02fc 1F42 0000 		mov	&outputRingPtrXin, r15 
 623 0300 0E9F      		cmp	r15, r14
 624 0302 0724      		jeq	.L60
 625               	.L63:
 626               	.LM121:
 627               	/* #APP */
 628               	 ;  500 "x.c" 1
 629 0304 32D2      		eint
 630               	 ;  0 "" 2
 631               	.LM122:
 632               	/* #NOAPP */
 633 0306 1E42 0000 		mov	&outputRingPtrXout, r14 
 634 030a 1F42 0000 		mov	&outputRingPtrXin, r15 
 635 030e 0E9F      		cmp	r15, r14
 636 0310 F923      		jne	.L63
 637               	.L60:
 638               	.LM123:
 639 0312 1F42 0000 		mov	&outputRingPtrXin, r15 
 640 0316 0F5F      		rla	r15
 641 0318 BF40 0A00 		mov	#10, outputRing(r15) 
 641      0000 
 642               	.LM124:
 643 031e 4F4D      		mov.b	r13, r15
 644 0320 5F53      		add.b	#1, r15
 645               	.LM125:
 646 0322 0E4F      		mov	r15, r14 
 647 0324 3EF0 0F00 		and	#15, r14
 648 0328 824E 0000 		mov	r14, &outputRingPtrXin 
 649               	.LBE255:
 650               	.LBE254:
 651               	.LM126:
 652 032c 8243 0000 		mov	#0, &lineBufferPtr 
 653               	
 654               		/* epilogue: frame size = 0 */
 655               	.LM127:
 656 0330 3941      		pop	r9
 657 0332 3A41      		pop	r10
 658 0334 3B41      		pop	r11
 659               	.LVL5:
 660 0336 3041      		ret
 661               	.LVL6:
 662               	.L82:
 663               	.LM128:
 664 0338 0D93      		cmp	#0, r13
 665 033a 9E27      		jeq	.L80
GAS LISTING /tmp/ccvQL2RB.s 			page 13


 666               	.LBB256:
 667               	.LBB257:
 668               	.LM129:
 669 033c 1C42 0000 		mov	&outputRingPtrXin, r12 
 670               	.LVL7:
 671               	.LM130:
 672 0340 1E42 0000 		mov	&outputRingPtrXout, r14 
 673 0344 1F42 0000 		mov	&outputRingPtrXin, r15 
 674 0348 0E9F      		cmp	r15, r14
 675 034a 0724      		jeq	.L49
 676               	.L66:
 677               	.LM131:
 678               	/* #APP */
 679               	 ;  500 "x.c" 1
 680 034c 32D2      		eint
 681               	 ;  0 "" 2
 682               	.LM132:
 683               	/* #NOAPP */
 684 034e 1E42 0000 		mov	&outputRingPtrXout, r14 
 685 0352 1F42 0000 		mov	&outputRingPtrXin, r15 
 686 0356 0E9F      		cmp	r15, r14
 687 0358 F923      		jne	.L66
 688               	.L49:
 689               	.LM133:
 690 035a 1F42 0000 		mov	&outputRingPtrXin, r15 
 691 035e 0F5F      		rla	r15
 692 0360 BF42 0000 		mov	#8, outputRing(r15) 
 693               	.LM134:
 694 0364 4F4C      		mov.b	r12, r15
 695 0366 5F53      		add.b	#1, r15
 696               	.LM135:
 697 0368 0E4F      		mov	r15, r14 
 698 036a 3EF0 0F00 		and	#15, r14
 699 036e 824E 0000 		mov	r14, &outputRingPtrXin 
 700               	.LBE257:
 701               	.LBE256:
 702               	.LBB258:
 703               	.LBB259:
 704               	.LM136:
 705 0372 1C42 0000 		mov	&outputRingPtrXin, r12 
 706               	.LM137:
 707 0376 1E42 0000 		mov	&outputRingPtrXout, r14 
 708 037a 1F42 0000 		mov	&outputRingPtrXin, r15 
 709 037e 0E9F      		cmp	r15, r14
 710 0380 0724      		jeq	.L51
 711               	.L65:
 712               	.LM138:
 713               	/* #APP */
 714               	 ;  500 "x.c" 1
 715 0382 32D2      		eint
 716               	 ;  0 "" 2
 717               	.LM139:
 718               	/* #NOAPP */
 719 0384 1E42 0000 		mov	&outputRingPtrXout, r14 
 720 0388 1F42 0000 		mov	&outputRingPtrXin, r15 
 721 038c 0E9F      		cmp	r15, r14
 722 038e F923      		jne	.L65
GAS LISTING /tmp/ccvQL2RB.s 			page 14


 723               	.L51:
 724               	.LM140:
 725 0390 1F42 0000 		mov	&outputRingPtrXin, r15 
 726 0394 0F5F      		rla	r15
 727 0396 BF40 2000 		mov	#32, outputRing(r15) 
 727      0000 
 728               	.LM141:
 729 039c 4F4C      		mov.b	r12, r15
 730 039e 5F53      		add.b	#1, r15
 731               	.LM142:
 732 03a0 0E4F      		mov	r15, r14 
 733 03a2 3EF0 0F00 		and	#15, r14
 734 03a6 824E 0000 		mov	r14, &outputRingPtrXin 
 735               	.LBE259:
 736               	.LBE258:
 737               	.LBB260:
 738               	.LBB261:
 739               	.LM143:
 740 03aa 1C42 0000 		mov	&outputRingPtrXin, r12 
 741               	.LM144:
 742 03ae 1E42 0000 		mov	&outputRingPtrXout, r14 
 743 03b2 1F42 0000 		mov	&outputRingPtrXin, r15 
 744 03b6 0E9F      		cmp	r15, r14
 745 03b8 0724      		jeq	.L53
 746               	.L64:
 747               	.LM145:
 748               	/* #APP */
 749               	 ;  500 "x.c" 1
 750 03ba 32D2      		eint
 751               	 ;  0 "" 2
 752               	.LM146:
 753               	/* #NOAPP */
 754 03bc 1E42 0000 		mov	&outputRingPtrXout, r14 
 755 03c0 1F42 0000 		mov	&outputRingPtrXin, r15 
 756 03c4 0E9F      		cmp	r15, r14
 757 03c6 F923      		jne	.L64
 758               	.L53:
 759               	.LM147:
 760 03c8 1F42 0000 		mov	&outputRingPtrXin, r15 
 761 03cc 0F5F      		rla	r15
 762 03ce BF42 0000 		mov	#8, outputRing(r15) 
 763               	.LM148:
 764 03d2 4F4C      		mov.b	r12, r15
 765 03d4 5F53      		add.b	#1, r15
 766               	.LM149:
 767 03d6 0E4F      		mov	r15, r14 
 768 03d8 3EF0 0F00 		and	#15, r14
 769 03dc 824E 0000 		mov	r14, &outputRingPtrXin 
 770               	.LBE261:
 771               	.LBE260:
 772               	.LM150:
 773 03e0 3D53      		add	#llo(-1), r13
 774 03e2 4A3F      		jmp	.L80
 775               	.LVL8:
 776               	.L83:
 777               	.LM151:
 778 03e4 824D 0000 		mov	r13, &lineBufferPtr 
GAS LISTING /tmp/ccvQL2RB.s 			page 15


 779               	.LM152:
 780 03e8 CD43 0000 		mov.b	#0, lineBuffer(r13)
 781 03ec 833F      		jmp	.L58
 782               	.LFE9:
 783               	.Lfe9:
 784               		.size	getLine,.Lfe9-getLine
 785               	;; End of function 
 786               	
 787               		.p2align 1,0
 788               	.global	getWord
 789               		.type	getWord,@function
 790               	/***********************
 791               	 * Function `getWord' 
 792               	 ***********************/
 793               	getWord:
 794               	.LFB10:
 795               	.LM153:
 796 03ee 0B12      		push	r11
 797               	.LCFI7:
 798 03f0 0A12      		push	r10
 799               	.LCFI8:
 800 03f2 0912      		push	r9
 801               	.LCFI9:
 802               		/* prologue ends here (frame size = 0) */
 803               	.L__FrameSize_getWord=0x0
 804               	.L__FrameOffset_getWord=0x6
 805               	.LM154:
 806 03f4 C243 0000 		mov.b	#0, &wordBuffer
 807               	.LM155:
 808 03f8 7A40 1F00 		mov.b	#31, r10
 809               	.LM156:
 810 03fc 7940 2000 		mov.b	#32, r9
 811               	.LVL9:
 812               	.L98:
 813               	.LBB262:
 814               	.LBB263:
 815               	.LM157:
 816 0400 1D42 0000 		mov	&lineBufferPtr, r13 
 817 0404 5F4D 0000 		mov.b	lineBuffer(r13), r15
 818               	.LVL10:
 819               	.LM158:
 820 0408 4F93      		cmp.b	#0, r15
 821 040a 0820      		jne	.L107
 822               	.L105:
 823               	.LBE263:
 824               	.LBE262:
 825               	.LM159:
 826 040c 4E4F      		mov.b	r15, r14
 827               	.LVL11:
 828 040e 7E53      		add.b	#llo(-1), r14
 829 0410 4A9E      		cmp.b	r14, r10
 830 0412 0928      		jlo	.L109
 831               	.L87:
 832               	.LBB264:
 833               	.LBB265:
 834               	.LM160:
 835 0414 5F4D 0000 		mov.b	lineBuffer(r13), r15
GAS LISTING /tmp/ccvQL2RB.s 			page 16


 836               	.LM161:
 837 0418 4F93      		cmp.b	#0, r15
 838 041a F827      		jeq	.L105
 839               	.LVL12:
 840               	.L107:
 841 041c 1D53      		add	#1, r13
 842               	.LBE265:
 843               	.LBE264:
 844               	.LM162:
 845 041e 4E4F      		mov.b	r15, r14
 846               	.LVL13:
 847 0420 7E53      		add.b	#llo(-1), r14
 848 0422 4A9E      		cmp.b	r14, r10
 849 0424 F72F      		jhs	.L87
 850               	.L109:
 851 0426 824D 0000 		mov	r13, &lineBufferPtr 
 852               	.LM163:
 853 042a 4F93      		cmp.b	#0, r15
 854 042c 2024      		jeq	.L88
 855               	.LM164:
 856 042e 7F90 2200 		cmp.b	#34, r15
 857 0432 2224      		jeq	.L89
 858               	.LM165:
 859 0434 499F      		cmp.b	r15, r9
 860 0436 242C      		jhs	.L91
 861               	.LM166:
 862 0438 0C4D      		mov	r13, r12 
 863 043a 3C50 0000 		add	#lineBuffer, r12
 864 043e 0B4D      		mov	r13, r11 
 865 0440 0E43      		mov	#0, r14 
 866               	.LVL14:
 867               	.L96:
 868               	.LM167:
 869 0442 CE4F 0000 		mov.b	r15, wordBuffer(r14)
 870 0446 1E53      		add	#1, r14
 871               	.LBB266:
 872               	.LBB267:
 873               	.LM168:
 874 0448 6F4C      		mov.b	@r12, r15
 875               	.LM169:
 876 044a 4F93      		cmp.b	#0, r15
 877 044c 0524      		jeq	.L108
 878 044e 0B4E      		mov	r14, r11 
 879 0450 0B5D      		add	r13, r11
 880 0452 1C53      		add	#1, r12
 881               	.LBE267:
 882               	.LBE266:
 883               	.LM170:
 884 0454 499F      		cmp.b	r15, r9
 885 0456 F52B      		jlo	.L96
 886               	.L108:
 887 0458 824B 0000 		mov	r11, &lineBufferPtr 
 888               	.L94:
 889               	.LM171:
 890 045c CE43 0000 		mov.b	#0, wordBuffer(r14)
 891               	.L97:
 892               	.LM172:
GAS LISTING /tmp/ccvQL2RB.s 			page 17


 893 0460 C293 0000 		cmp.b	#0, &wordBuffer
 894 0464 CD27      		jeq	.L98
 895               	
 896               		/* epilogue: frame size = 0 */
 897               	.LM173:
 898 0466 3941      		pop	r9
 899 0468 3A41      		pop	r10
 900 046a 3B41      		pop	r11
 901 046c 3041      		ret
 902               	.LVL15:
 903               	.L88:
 904               	.LM174:
 905 046e C24F 0000 		mov.b	r15, &wordBuffer
 906               	.LM175:
 907 0472 B012 0000 		call	#getLine
 908               	.LVL16:
 909 0476 F43F      		jmp	.L97
 910               	.LVL17:
 911               	.L89:
 912               	.LBB268:
 913               	.LBB269:
 914               	.LM176:
 915 0478 5F4D 0000 		mov.b	lineBuffer(r13), r15
 916               	.LVL18:
 917               	.LM177:
 918 047c 4F93      		cmp.b	#0, r15
 919 047e 0220      		jne	.L110
 920               	.L91:
 921               	.LBE269:
 922               	.LBE268:
 923               	.LM178:
 924 0480 0E43      		mov	#0, r14 
 925               	.LVL19:
 926 0482 EC3F      		jmp	.L94
 927               	.LVL20:
 928               	.L110:
 929               	.LBB271:
 930               	.LBB270:
 931               	.LM179:
 932 0484 1D53      		add	#1, r13
 933 0486 824D 0000 		mov	r13, &lineBufferPtr 
 934               	.LBE270:
 935               	.LBE271:
 936               	.LM180:
 937 048a 7F90 2200 		cmp.b	#34, r15
 938 048e F827      		jeq	.L91
 939 0490 0E43      		mov	#0, r14 
 940               	.LVL21:
 941               	.L93:
 942               	.LM181:
 943 0492 CE4F 0000 		mov.b	r15, wordBuffer(r14)
 944 0496 1E53      		add	#1, r14
 945               	.LBB272:
 946               	.LBB273:
 947               	.LM182:
 948 0498 5F4D 0000 		mov.b	lineBuffer(r13), r15
 949               	.LM183:
GAS LISTING /tmp/ccvQL2RB.s 			page 18


 950 049c 4F93      		cmp.b	#0, r15
 951 049e 0424      		jeq	.L92
 952 04a0 1D53      		add	#1, r13
 953               	.LBE273:
 954               	.LBE272:
 955               	.LM184:
 956 04a2 7F90 2200 		cmp.b	#34, r15
 957 04a6 F523      		jne	.L93
 958               	.L92:
 959               	.LM185:
 960 04a8 824D 0000 		mov	r13, &lineBufferPtr 
 961 04ac D73F      		jmp	.L94
 962               	.LFE10:
 963               	.Lfe10:
 964               		.size	getWord,.Lfe10-getWord
 965               	;; End of function 
 966               	
 967               		.p2align 1,0
 968               	.global	printString
 969               		.type	printString,@function
 970               	/***********************
 971               	 * Function `printString' 
 972               	 ***********************/
 973               	printString:
 974               	.LFB11:
 975               	.LM186:
 976               	.LVL22:
 977 04ae 0B12      		push	r11
 978               	.LCFI10:
 979               		/* prologue ends here (frame size = 0) */
 980               	.L__FrameSize_printString=0x0
 981               	.L__FrameOffset_printString=0x2
 982               	.LM187:
 983 04b0 6C4F      		mov.b	@r15, r12
 984 04b2 4C93      		cmp.b	#0, r12
 985 04b4 2124      		jeq	.L116
 986               	.L117:
 987               	.LBB274:
 988               	.LBB275:
 989               	.LM188:
 990 04b6 1B42 0000 		mov	&outputRingPtrXin, r11 
 991               	.LM189:
 992 04ba 1D42 0000 		mov	&outputRingPtrXout, r13 
 993 04be 1E42 0000 		mov	&outputRingPtrXin, r14 
 994 04c2 0D9E      		cmp	r14, r13
 995 04c4 0724      		jeq	.L113
 996               	.L118:
 997               	.LM190:
 998               	/* #APP */
 999               	 ;  500 "x.c" 1
 1000 04c6 32D2      		eint
 1001               	 ;  0 "" 2
 1002               	.LM191:
 1003               	/* #NOAPP */
 1004 04c8 1D42 0000 		mov	&outputRingPtrXout, r13 
 1005 04cc 1E42 0000 		mov	&outputRingPtrXin, r14 
 1006 04d0 0D9E      		cmp	r14, r13
GAS LISTING /tmp/ccvQL2RB.s 			page 19


 1007 04d2 F923      		jne	.L118
 1008               	.L113:
 1009               	.LM192:
 1010 04d4 1E42 0000 		mov	&outputRingPtrXin, r14 
 1011 04d8 0E5E      		rla	r14
 1012 04da CE4C 0000 		mov.b	r12, outputRing(r14)
 1013 04de CE43 0000 		clr.b	outputRing+1(r14)
 1014               	.LM193:
 1015 04e2 4E4B      		mov.b	r11, r14
 1016 04e4 5E53      		add.b	#1, r14
 1017               	.LM194:
 1018 04e6 0D4E      		mov	r14, r13 
 1019 04e8 3DF0 0F00 		and	#15, r13
 1020 04ec 824D 0000 		mov	r13, &outputRingPtrXin 
 1021               	.LBE275:
 1022               	.LBE274:
 1023               	.LM195:
 1024 04f0 1F53      		add	#1, r15
 1025               	.LVL23:
 1026               	.LM196:
 1027 04f2 6C4F      		mov.b	@r15, r12
 1028 04f4 4C93      		cmp.b	#0, r12
 1029 04f6 DF23      		jne	.L117
 1030               	.L116:
 1031               	
 1032               		/* epilogue: frame size = 0 */
 1033               	.LM197:
 1034 04f8 3B41      		pop	r11
 1035 04fa 3041      		ret
 1036               	.LFE11:
 1037               	.Lfe11:
 1038               		.size	printString,.Lfe11-printString
 1039               	;; End of function 
 1040               	
 1041               		.p2align 1,0
 1042               	.global	sc
 1043               		.type	sc,@function
 1044               	/***********************
 1045               	 * Function `sc' 
 1046               	 ***********************/
 1047               	sc:
 1048               	.LFB12:
 1049               	.LM198:
 1050               	.LVL24:
 1051 04fc 0B12      		push	r11
 1052               	.LCFI11:
 1053               		/* prologue ends here (frame size = 0) */
 1054               	.L__FrameSize_sc=0x0
 1055               	.L__FrameOffset_sc=0x2
 1056               	.LM199:
 1057 04fe 6D4F      		mov.b	@r15, r13
 1058 0500 4D93      		cmp.b	#0, r13
 1059 0502 1324      		jeq	.L122
 1060 0504 6C4E      		mov.b	@r14, r12
 1061 0506 4C93      		cmp.b	#0, r12
 1062 0508 1024      		jeq	.L122
 1063 050a 1B43      		mov	#1, r11 
GAS LISTING /tmp/ccvQL2RB.s 			page 20


 1064               	.LVL25:
 1065 050c 043C      		jmp	.L125
 1066               	.L128:
 1067               	.LM200:
 1068 050e 1E53      		add	#1, r14
 1069               	.LVL26:
 1070               	.LM201:
 1071 0510 6C4E      		mov.b	@r14, r12
 1072 0512 4C93      		cmp.b	#0, r12
 1073 0514 0724      		jeq	.L124
 1074               	.L125:
 1075               	.LM202:
 1076 0516 4D9C      		cmp.b	r12, r13
 1077 0518 0124      		jeq	.L123
 1078 051a 0B43      		mov	#0, r11 
 1079               	.L123:
 1080               	.LM203:
 1081 051c 1F53      		add	#1, r15
 1082               	.LVL27:
 1083               	.LM204:
 1084 051e 6D4F      		mov.b	@r15, r13
 1085 0520 4D93      		cmp.b	#0, r13
 1086 0522 F523      		jne	.L128
 1087               	.L124:
 1088               	.LM205:
 1089 0524 0F4B      		mov	r11, r15 
 1090               	.LVL28:
 1091               	
 1092               		/* epilogue: frame size = 0 */
 1093 0526 3B41      		pop	r11
 1094               	.LVL29:
 1095 0528 3041      		ret
 1096               	.LVL30:
 1097               	.L122:
 1098               	.LM206:
 1099 052a 1B43      		mov	#1, r11 
 1100               	.LVL31:
 1101 052c FB3F      		jmp	.L124
 1102               	.LFE12:
 1103               	.Lfe12:
 1104               		.size	sc,.Lfe12-sc
 1105               	;; End of function 
 1106               	
 1107               		.p2align 1,0
 1108               	.global	listFunction
 1109               		.type	listFunction,@function
 1110               	/***********************
 1111               	 * Function `listFunction' 
 1112               	 ***********************/
 1113               	listFunction:
 1114               	.LFB13:
 1115               	.LM207:
 1116 052e 0B12      		push	r11
 1117               	.LCFI12:
 1118               		/* prologue ends here (frame size = 0) */
 1119               	.L__FrameSize_listFunction=0x0
 1120               	.L__FrameOffset_listFunction=0x2
GAS LISTING /tmp/ccvQL2RB.s 			page 21


 1121               	.LM208:
 1122 0530 7C40 6500 		mov.b	#101, r12
 1123 0534 3D40 0000 		mov	#cmdListBi, r13 
 1124               	.LVL32:
 1125               	.L132:
 1126               	.LBB276:
 1127               	.LBB277:
 1128               	.LBB278:
 1129               	.LBB279:
 1130               	.LM209:
 1131 0538 1B42 0000 		mov	&outputRingPtrXin, r11 
 1132               	.LM210:
 1133 053c 1E42 0000 		mov	&outputRingPtrXout, r14 
 1134 0540 1F42 0000 		mov	&outputRingPtrXin, r15 
 1135 0544 0E9F      		cmp	r15, r14
 1136 0546 0724      		jeq	.L130
 1137               	.L143:
 1138               	.LM211:
 1139               	/* #APP */
 1140               	 ;  500 "x.c" 1
 1141 0548 32D2      		eint
 1142               	 ;  0 "" 2
 1143               	.LM212:
 1144               	/* #NOAPP */
 1145 054a 1E42 0000 		mov	&outputRingPtrXout, r14 
 1146 054e 1F42 0000 		mov	&outputRingPtrXin, r15 
 1147 0552 0E9F      		cmp	r15, r14
 1148 0554 F923      		jne	.L143
 1149               	.L130:
 1150               	.LM213:
 1151 0556 1F42 0000 		mov	&outputRingPtrXin, r15 
 1152 055a 0F5F      		rla	r15
 1153 055c CF4C 0000 		mov.b	r12, outputRing(r15)
 1154 0560 CF43 0000 		clr.b	outputRing+1(r15)
 1155               	.LM214:
 1156 0564 4F4B      		mov.b	r11, r15
 1157 0566 5F53      		add.b	#1, r15
 1158               	.LM215:
 1159 0568 0E4F      		mov	r15, r14 
 1160 056a 3EF0 0F00 		and	#15, r14
 1161 056e 824E 0000 		mov	r14, &outputRingPtrXin 
 1162               	.LBE279:
 1163               	.LBE278:
 1164               	.LM216:
 1165 0572 1D53      		add	#1, r13
 1166               	.LM217:
 1167 0574 6C4D      		mov.b	@r13, r12
 1168 0576 4C93      		cmp.b	#0, r12
 1169 0578 DF23      		jne	.L132
 1170 057a 7B40 5B00 		mov.b	#91, r11
 1171 057e 3D40 0000 		mov	#cmdListBi2, r13 
 1172               	.LVL33:
 1173               	.L135:
 1174               	.LBE277:
 1175               	.LBE276:
 1176               	.LBB280:
 1177               	.LBB281:
GAS LISTING /tmp/ccvQL2RB.s 			page 22


 1178               	.LBB282:
 1179               	.LBB283:
 1180               	.LM218:
 1181 0582 1C42 0000 		mov	&outputRingPtrXin, r12 
 1182               	.LM219:
 1183 0586 1E42 0000 		mov	&outputRingPtrXout, r14 
 1184 058a 1F42 0000 		mov	&outputRingPtrXin, r15 
 1185 058e 0E9F      		cmp	r15, r14
 1186 0590 0724      		jeq	.L133
 1187               	.L142:
 1188               	.LM220:
 1189               	/* #APP */
 1190               	 ;  500 "x.c" 1
 1191 0592 32D2      		eint
 1192               	 ;  0 "" 2
 1193               	.LM221:
 1194               	/* #NOAPP */
 1195 0594 1E42 0000 		mov	&outputRingPtrXout, r14 
 1196 0598 1F42 0000 		mov	&outputRingPtrXin, r15 
 1197 059c 0E9F      		cmp	r15, r14
 1198 059e F923      		jne	.L142
 1199               	.L133:
 1200               	.LM222:
 1201 05a0 1F42 0000 		mov	&outputRingPtrXin, r15 
 1202 05a4 0F5F      		rla	r15
 1203 05a6 CF4B 0000 		mov.b	r11, outputRing(r15)
 1204 05aa CF43 0000 		clr.b	outputRing+1(r15)
 1205               	.LM223:
 1206 05ae 4F4C      		mov.b	r12, r15
 1207 05b0 5F53      		add.b	#1, r15
 1208               	.LM224:
 1209 05b2 0E4F      		mov	r15, r14 
 1210 05b4 3EF0 0F00 		and	#15, r14
 1211 05b8 824E 0000 		mov	r14, &outputRingPtrXin 
 1212               	.LBE283:
 1213               	.LBE282:
 1214               	.LM225:
 1215 05bc 1D53      		add	#1, r13
 1216               	.LM226:
 1217 05be 6B4D      		mov.b	@r13, r11
 1218 05c0 4B93      		cmp.b	#0, r11
 1219 05c2 DF23      		jne	.L135
 1220               	.LBE281:
 1221               	.LBE280:
 1222               	.LBB284:
 1223               	.LBB285:
 1224 05c4 5C42 0000 		mov.b	&cmdList, r12
 1225 05c8 4C9B      		cmp.b	r11, r12
 1226 05ca 2324      		jeq	.L140
 1227 05cc 3D40 0000 		mov	#cmdList, r13 
 1228               	.LVL34:
 1229               	.L139:
 1230               	.LBB286:
 1231               	.LBB287:
 1232               	.LM227:
 1233 05d0 1B42 0000 		mov	&outputRingPtrXin, r11 
 1234               	.LM228:
GAS LISTING /tmp/ccvQL2RB.s 			page 23


 1235 05d4 1E42 0000 		mov	&outputRingPtrXout, r14 
 1236 05d8 1F42 0000 		mov	&outputRingPtrXin, r15 
 1237 05dc 0E9F      		cmp	r15, r14
 1238 05de 0724      		jeq	.L137
 1239               	.L141:
 1240               	.LM229:
 1241               	/* #APP */
 1242               	 ;  500 "x.c" 1
 1243 05e0 32D2      		eint
 1244               	 ;  0 "" 2
 1245               	.LM230:
 1246               	/* #NOAPP */
 1247 05e2 1E42 0000 		mov	&outputRingPtrXout, r14 
 1248 05e6 1F42 0000 		mov	&outputRingPtrXin, r15 
 1249 05ea 0E9F      		cmp	r15, r14
 1250 05ec F923      		jne	.L141
 1251               	.L137:
 1252               	.LM231:
 1253 05ee 1F42 0000 		mov	&outputRingPtrXin, r15 
 1254 05f2 0F5F      		rla	r15
 1255 05f4 CF4C 0000 		mov.b	r12, outputRing(r15)
 1256 05f8 CF43 0000 		clr.b	outputRing+1(r15)
 1257               	.LM232:
 1258 05fc 4F4B      		mov.b	r11, r15
 1259 05fe 5F53      		add.b	#1, r15
 1260               	.LM233:
 1261 0600 0E4F      		mov	r15, r14 
 1262 0602 3EF0 0F00 		and	#15, r14
 1263 0606 824E 0000 		mov	r14, &outputRingPtrXin 
 1264               	.LBE287:
 1265               	.LBE286:
 1266               	.LM234:
 1267 060a 1D53      		add	#1, r13
 1268               	.LM235:
 1269 060c 6C4D      		mov.b	@r13, r12
 1270 060e 4C93      		cmp.b	#0, r12
 1271 0610 DF23      		jne	.L139
 1272               	.LVL35:
 1273               	.L140:
 1274               	
 1275               		/* epilogue: frame size = 0 */
 1276               	.LBE285:
 1277               	.LBE284:
 1278               	.LM236:
 1279 0612 3B41      		pop	r11
 1280 0614 3041      		ret
 1281               	.LFE13:
 1282               	.Lfe13:
 1283               		.size	listFunction,.Lfe13-listFunction
 1284               	;; End of function 
 1285               	
 1286               		.p2align 1,0
 1287               	.global	popMathStack
 1288               		.type	popMathStack,@function
 1289               	/***********************
 1290               	 * Function `popMathStack' 
 1291               	 ***********************/
GAS LISTING /tmp/ccvQL2RB.s 			page 24


 1292               	popMathStack:
 1293               	.LFB14:
 1294               	.LM237:
 1295               		/* prologue ends here (frame size = 0) */
 1296               	.L__FrameSize_popMathStack=0x0
 1297               	.L__FrameOffset_popMathStack=0x0
 1298               	.LM238:
 1299 0616 1F42 0000 		mov	&mathStack, r15 
 1300               	.LVL36:
 1301 061a 3E40 0000 		mov	#mathStack+2, r14 
 1302               	.L151:
 1303               	.LM239:
 1304 061e AE4E FEFF 		mov	@r14, -2(r14) 
 1305 0622 2E53      		add	#2, r14
 1306               	.LM240:
 1307 0624 3E90 0000 		cmp	#mathStack+32, r14
 1308 0628 FA23      		jne	.L151
 1309               	
 1310               		/* epilogue: not required */
 1311               	.LM241:
 1312 062a 3041      		ret
 1313               	.LFE14:
 1314               	.Lfe14:
 1315               		.size	popMathStack,.Lfe14-popMathStack
 1316               	;; End of function 
 1317               	
 1318               		.p2align 1,0
 1319               	.global	pushMathStack
 1320               		.type	pushMathStack,@function
 1321               	/***********************
 1322               	 * Function `pushMathStack' 
 1323               	 ***********************/
 1324               	pushMathStack:
 1325               	.LFB15:
 1326               	.LM242:
 1327               	.LVL37:
 1328               		/* prologue ends here (frame size = 0) */
 1329               	.L__FrameSize_pushMathStack=0x0
 1330               	.L__FrameOffset_pushMathStack=0x0
 1331               	.LM243:
 1332 062c 3E40 0000 		mov	#mathStack+26, r14 
 1333               	.L155:
 1334               	.LM244:
 1335 0630 AE4E 0200 		mov	@r14, 2(r14) 
 1336 0634 2E83      		sub	#2, r14
 1337               	.LM245:
 1338 0636 3E90 0000 		cmp	#mathStack-2, r14
 1339 063a FA23      		jne	.L155
 1340               	.LM246:
 1341 063c 824F 0000 		mov	r15, &mathStack 
 1342               	
 1343               		/* epilogue: not required */
 1344               	.LM247:
 1345 0640 3041      		ret
 1346               	.LFE15:
 1347               	.Lfe15:
 1348               		.size	pushMathStack,.Lfe15-pushMathStack
GAS LISTING /tmp/ccvQL2RB.s 			page 25


 1349               	;; End of function 
 1350               	
 1351               		.p2align 1,0
 1352               	.global	popAddrStack
 1353               		.type	popAddrStack,@function
 1354               	/***********************
 1355               	 * Function `popAddrStack' 
 1356               	 ***********************/
 1357               	popAddrStack:
 1358               	.LFB16:
 1359               	.LM248:
 1360               		/* prologue ends here (frame size = 0) */
 1361               	.L__FrameSize_popAddrStack=0x0
 1362               	.L__FrameOffset_popAddrStack=0x0
 1363               	.LM249:
 1364 0642 1E42 0000 		mov	&addrStackPtr, r14 
 1365 0646 0F4E      		mov	r14, r15 
 1366 0648 0F5F      		rla	r15
 1367               	.LM250:
 1368 064a 1E53      		add	#1, r14
 1369 064c 824E 0000 		mov	r14, &addrStackPtr 
 1370               	.LM251:
 1371 0650 1F4F 0000 		mov	addrStack(r15), r15 
 1372               	
 1373               		/* epilogue: not required */
 1374 0654 3041      		ret
 1375               	.LFE16:
 1376               	.Lfe16:
 1377               		.size	popAddrStack,.Lfe16-popAddrStack
 1378               	;; End of function 
 1379               	
 1380               		.p2align 1,0
 1381               	.global	pushAddrStack
 1382               		.type	pushAddrStack,@function
 1383               	/***********************
 1384               	 * Function `pushAddrStack' 
 1385               	 ***********************/
 1386               	pushAddrStack:
 1387               	.LFB17:
 1388               	.LM252:
 1389               	.LVL38:
 1390               		/* prologue ends here (frame size = 0) */
 1391               	.L__FrameSize_pushAddrStack=0x0
 1392               	.L__FrameOffset_pushAddrStack=0x0
 1393               	.LM253:
 1394 0656 1E42 0000 		mov	&addrStackPtr, r14 
 1395 065a 3E53      		add	#llo(-1), r14
 1396 065c 824E 0000 		mov	r14, &addrStackPtr 
 1397               	.LM254:
 1398 0660 0E5E      		rla	r14
 1399 0662 8E4F 0000 		mov	r15, addrStack(r14) 
 1400               	
 1401               		/* epilogue: not required */
 1402               	.LM255:
 1403 0666 3041      		ret
 1404               	.LFE17:
 1405               	.Lfe17:
GAS LISTING /tmp/ccvQL2RB.s 			page 26


 1406               		.size	pushAddrStack,.Lfe17-pushAddrStack
 1407               	;; End of function 
 1408               	
 1409               		.p2align 1,0
 1410               	.global	lookupToken
 1411               		.type	lookupToken,@function
 1412               	/***********************
 1413               	 * Function `lookupToken' 
 1414               	 ***********************/
 1415               	lookupToken:
 1416               	.LFB18:
 1417               	.LM256:
 1418               	.LVL39:
 1419 0668 0B12      		push	r11
 1420               	.LCFI13:
 1421 066a 0A12      		push	r10
 1422               	.LCFI14:
 1423 066c 0912      		push	r9
 1424               	.LCFI15:
 1425 066e 0812      		push	r8
 1426               	.LCFI16:
 1427 0670 0712      		push	r7
 1428               	.LCFI17:
 1429               		/* prologue ends here (frame size = 0) */
 1430               	.L__FrameSize_lookupToken=0x0
 1431               	.L__FrameOffset_lookupToken=0xa
 1432               	.LM257:
 1433 0672 6D4E      		mov.b	@r14, r13
 1434 0674 4D93      		cmp.b	#0, r13
 1435 0676 6924      		jeq	.L186
 1436 0678 0C43      		mov	#0, r12 
 1437               	.LVL40:
 1438 067a 1843      		mov	#1, r8 
 1439               	.LVL41:
 1440 067c 074C      		mov	r12, r7 
 1441               	.LVL42:
 1442 067e 094C      		mov	r12, r9 
 1443               	.LVL43:
 1444               	.LM258:
 1445 0680 7A40 2000 		mov.b	#32, r10
 1446               	.L178:
 1447               	.LM259:
 1448 0684 0B4F      		mov	r15, r11 
 1449 0686 0B59      		add	r9, r11
 1450 0688 6B4B      		mov.b	@r11, r11
 1451 068a 4B93      		cmp.b	#0, r11
 1452 068c 2324      		jeq	.L165
 1453               	.LM260:
 1454 068e 7D90 2000 		cmp.b	#32, r13
 1455 0692 4724      		jeq	.L187
 1456               	.LM261:
 1457 0694 4D9B      		cmp.b	r11, r13
 1458 0696 5724      		jeq	.L169
 1459               	.LM262:
 1460 0698 0D4E      		mov	r14, r13 
 1461 069a 0D5C      		add	r12, r13
 1462 069c 6A9D      		cmp.b	@r13, r10
GAS LISTING /tmp/ccvQL2RB.s 			page 27


 1463 069e 0B2C      		jhs	.L171
 1464               	.LM263:
 1465 06a0 0D4C      		mov	r12, r13 
 1466 06a2 1D53      		add	#1, r13
 1467               	.LVL44:
 1468 06a4 0B4E      		mov	r14, r11 
 1469 06a6 0B5D      		add	r13, r11
 1470 06a8 013C      		jmp	.L173
 1471               	.LVL45:
 1472               	.L188:
 1473 06aa 1D53      		add	#1, r13
 1474               	.LVL46:
 1475               	.L173:
 1476               	.LM264:
 1477 06ac 0C4D      		mov	r13, r12 
 1478 06ae 694B      		mov.b	@r11, r9
 1479               	.LVL47:
 1480 06b0 1B53      		add	#1, r11
 1481 06b2 4A99      		cmp.b	r9, r10
 1482 06b4 FA2B      		jlo	.L188
 1483               	.LVL48:
 1484               	.L171:
 1485               	.LM265:
 1486 06b6 1853      		add	#1, r8
 1487 06b8 0943      		mov	#0, r9 
 1488               	.L172:
 1489               	.LM266:
 1490 06ba 1C53      		add	#1, r12
 1491               	.LM267:
 1492 06bc 0D4E      		mov	r14, r13 
 1493 06be 0D5C      		add	r12, r13
 1494 06c0 6D4D      		mov.b	@r13, r13
 1495 06c2 4D93      		cmp.b	#0, r13
 1496 06c4 DF23      		jne	.L178
 1497               	.L164:
 1498               	.LM268:
 1499 06c6 0F47      		mov	r7, r15 
 1500               	.LVL49:
 1501               	
 1502               		/* epilogue: frame size = 0 */
 1503 06c8 3741      		pop	r7
 1504               	.LVL50:
 1505 06ca 3841      		pop	r8
 1506               	.LVL51:
 1507 06cc 3941      		pop	r9
 1508               	.LVL52:
 1509 06ce 3A41      		pop	r10
 1510 06d0 3B41      		pop	r11
 1511 06d2 3041      		ret
 1512               	.LVL53:
 1513               	.L165:
 1514               	.LM269:
 1515 06d4 7D90 2000 		cmp.b	#32, r13
 1516 06d8 1224      		jeq	.L189
 1517               	.LM270:
 1518 06da 1853      		add	#1, r8
 1519               	.LM271:
GAS LISTING /tmp/ccvQL2RB.s 			page 28


 1520 06dc 0D4E      		mov	r14, r13 
 1521 06de 0D5C      		add	r12, r13
 1522 06e0 6A9D      		cmp.b	@r13, r10
 1523 06e2 0B2C      		jhs	.L167
 1524 06e4 0D4C      		mov	r12, r13 
 1525 06e6 1D53      		add	#1, r13
 1526               	.LVL54:
 1527 06e8 0B4E      		mov	r14, r11 
 1528 06ea 0B5D      		add	r13, r11
 1529 06ec 013C      		jmp	.L177
 1530               	.LVL55:
 1531               	.L190:
 1532 06ee 1D53      		add	#1, r13
 1533               	.LVL56:
 1534               	.L177:
 1535 06f0 0C4D      		mov	r13, r12 
 1536 06f2 694B      		mov.b	@r11, r9
 1537               	.LVL57:
 1538 06f4 1B53      		add	#1, r11
 1539 06f6 4A99      		cmp.b	r9, r10
 1540 06f8 FA2B      		jlo	.L190
 1541               	.LVL58:
 1542               	.L167:
 1543 06fa 0943      		mov	#0, r9 
 1544 06fc DE3F      		jmp	.L172
 1545               	.LVL59:
 1546               	.L189:
 1547               	.LM272:
 1548 06fe 0D4E      		mov	r14, r13 
 1549 0700 0D5C      		add	r12, r13
 1550 0702 CD93 0000 		cmp.b	#0, @r13
 1551 0706 0B24      		jeq	.L175
 1552 0708 0D4C      		mov	r12, r13 
 1553 070a 1D53      		add	#1, r13
 1554               	.LVL60:
 1555 070c 0B4E      		mov	r14, r11 
 1556 070e 0B5D      		add	r13, r11
 1557 0710 013C      		jmp	.L176
 1558               	.LVL61:
 1559               	.L191:
 1560 0712 1D53      		add	#1, r13
 1561               	.LVL62:
 1562               	.L176:
 1563               	.LM273:
 1564 0714 0C4D      		mov	r13, r12 
 1565               	.LM274:
 1566 0716 674B      		mov.b	@r11, r7
 1567               	.LVL63:
 1568 0718 1B53      		add	#1, r11
 1569 071a 4793      		cmp.b	#0, r7
 1570 071c FA23      		jne	.L191
 1571               	.LVL64:
 1572               	.L175:
 1573               	.LM275:
 1574 071e 0748      		mov	r8, r7 
 1575 0720 CC3F      		jmp	.L172
 1576               	.LVL65:
GAS LISTING /tmp/ccvQL2RB.s 			page 29


 1577               	.L187:
 1578               	.LM276:
 1579 0722 1853      		add	#1, r8
 1580               	.LM277:
 1581 0724 0B4E      		mov	r14, r11 
 1582 0726 0B5C      		add	r12, r11
 1583 0728 6D9B      		cmp.b	@r11, r13
 1584 072a E72F      		jhs	.L167
 1585 072c 0D4C      		mov	r12, r13 
 1586 072e 1D53      		add	#1, r13
 1587               	.LVL66:
 1588 0730 0B4E      		mov	r14, r11 
 1589 0732 0B5D      		add	r13, r11
 1590 0734 013C      		jmp	.L168
 1591               	.LVL67:
 1592               	.L192:
 1593 0736 1D53      		add	#1, r13
 1594               	.LVL68:
 1595               	.L168:
 1596 0738 0C4D      		mov	r13, r12 
 1597 073a 694B      		mov.b	@r11, r9
 1598               	.LVL69:
 1599 073c 1B53      		add	#1, r11
 1600 073e 4A99      		cmp.b	r9, r10
 1601 0740 FA2B      		jlo	.L192
 1602               	.LVL70:
 1603               	.LM278:
 1604 0742 0943      		mov	#0, r9 
 1605               	.LVL71:
 1606 0744 BA3F      		jmp	.L172
 1607               	.LVL72:
 1608               	.L169:
 1609               	.LM279:
 1610 0746 1953      		add	#1, r9
 1611 0748 B83F      		jmp	.L172
 1612               	.LVL73:
 1613               	.L186:
 1614               	.LM280:
 1615 074a 0743      		mov	#0, r7 
 1616               	.LVL74:
 1617 074c BC3F      		jmp	.L164
 1618               	.LFE18:
 1619               	.Lfe18:
 1620               		.size	lookupToken,.Lfe18-lookupToken
 1621               	;; End of function 
 1622               	
 1623               		.p2align 1,0
 1624               	.global	luFunc
 1625               		.type	luFunc,@function
 1626               	/***********************
 1627               	 * Function `luFunc' 
 1628               	 ***********************/
 1629               	luFunc:
 1630               	.LFB19:
 1631               	.LM281:
 1632 074e 0B12      		push	r11
 1633               	.LCFI18:
GAS LISTING /tmp/ccvQL2RB.s 			page 30


 1634 0750 0A12      		push	r10
 1635               	.LCFI19:
 1636               		/* prologue ends here (frame size = 0) */
 1637               	.L__FrameSize_luFunc=0x0
 1638               	.L__FrameOffset_luFunc=0x4
 1639               	.LM282:
 1640 0752 3E40 0000 		mov	#cmdListBi, r14 
 1641 0756 3F40 0000 		mov	#wordBuffer, r15 
 1642 075a B012 0000 		call	#lookupToken
 1643 075e 0B4F      		mov	r15, r11 
 1644               	.LVL75:
 1645               	.LM283:
 1646 0760 0F93      		cmp	#0, r15
 1647 0762 1A24      		jeq	.L194
 1648               	.LVL76:
 1649 0764 3E40 0000 		mov	#mathStack+26, r14 
 1650               	.LM284:
 1651 0768 0C4E      		mov	r14, r12 
 1652 076a 3C50 E4FF 		add	#llo(-28), r12
 1653 076e 0D4E      		mov	r14, r13 
 1654               	.L195:
 1655               	.LBB288:
 1656               	.LBB289:
 1657               	.LM285:
 1658 0770 AD4D 0200 		mov	@r13, 2(r13) 
 1659 0774 2D83      		sub	#2, r13
 1660               	.LM286:
 1661 0776 3D90 0000 		cmp	#mathStack-2, r13
 1662 077a FA23      		jne	.L195
 1663               	.LM287:
 1664 077c 3B50 204E 		add	#20000, r11
 1665               	.LVL77:
 1666 0780 824B 0000 		mov	r11, &mathStack 
 1667               	.L196:
 1668               	.LBE289:
 1669               	.LBE288:
 1670               	.LBB290:
 1671               	.LBB291:
 1672               	.LM288:
 1673 0784 AE4E 0200 		mov	@r14, 2(r14) 
 1674 0788 2E83      		sub	#2, r14
 1675               	.LM289:
 1676 078a 0C9E      		cmp	r14, r12
 1677 078c FB23      		jne	.L196
 1678               	.LVL78:
 1679               	.L213:
 1680               	.LBE291:
 1681               	.LBE290:
 1682               	.LBB292:
 1683               	.LBB293:
 1684               	.LM290:
 1685 078e 9243 0000 		mov	#1, &mathStack 
 1686               	.L205:
 1687               	
 1688               		/* epilogue: frame size = 0 */
 1689               	.LBE293:
 1690               	.LBE292:
GAS LISTING /tmp/ccvQL2RB.s 			page 31


 1691               	.LM291:
 1692 0792 3A41      		pop	r10
 1693               	.LVL79:
 1694 0794 3B41      		pop	r11
 1695               	.LVL80:
 1696 0796 3041      		ret
 1697               	.LVL81:
 1698               	.L194:
 1699               	.LM292:
 1700 0798 3E40 0000 		mov	#cmdListBi2, r14 
 1701 079c 3F40 0000 		mov	#wordBuffer, r15 
 1702               	.LVL82:
 1703 07a0 B012 0000 		call	#lookupToken
 1704 07a4 0A4F      		mov	r15, r10 
 1705               	.LVL83:
 1706               	.LM293:
 1707 07a6 0F9B      		cmp	r11, r15
 1708 07a8 1424      		jeq	.L198
 1709               	.LVL84:
 1710 07aa 3E40 0000 		mov	#mathStack+26, r14 
 1711               	.LM294:
 1712 07ae 0D4E      		mov	r14, r13 
 1713               	.L199:
 1714               	.LBB295:
 1715               	.LBB296:
 1716               	.LM295:
 1717 07b0 AD4D 0200 		mov	@r13, 2(r13) 
 1718 07b4 2D83      		sub	#2, r13
 1719               	.LM296:
 1720 07b6 3D90 0000 		cmp	#mathStack-2, r13
 1721 07ba FA23      		jne	.L199
 1722               	.LM297:
 1723 07bc 3A50 1027 		add	#10000, r10
 1724               	.LVL85:
 1725 07c0 824A 0000 		mov	r10, &mathStack 
 1726               	.L200:
 1727               	.LBE296:
 1728               	.LBE295:
 1729               	.LBB297:
 1730               	.LBB298:
 1731               	.LM298:
 1732 07c4 AE4E 0200 		mov	@r14, 2(r14) 
 1733 07c8 2E83      		sub	#2, r14
 1734               	.LM299:
 1735 07ca 3E90 0000 		cmp	#mathStack-2, r14
 1736 07ce FA23      		jne	.L200
 1737 07d0 DE3F      		jmp	.L213
 1738               	.LVL86:
 1739               	.L198:
 1740               	.LBE298:
 1741               	.LBE297:
 1742               	.LM300:
 1743 07d2 3E40 0000 		mov	#cmdList, r14 
 1744 07d6 3F40 0000 		mov	#wordBuffer, r15 
 1745 07da B012 0000 		call	#lookupToken
 1746               	.LM301:
 1747 07de 0F9A      		cmp	r10, r15
GAS LISTING /tmp/ccvQL2RB.s 			page 32


 1748 07e0 1424      		jeq	.L201
 1749               	.LVL87:
 1750 07e2 3E40 0000 		mov	#mathStack+26, r14 
 1751               	.LM302:
 1752 07e6 0C4E      		mov	r14, r12 
 1753 07e8 3C50 E4FF 		add	#llo(-28), r12
 1754 07ec 0D4E      		mov	r14, r13 
 1755               	.L202:
 1756               	.LBB299:
 1757               	.LBB300:
 1758               	.LM303:
 1759 07ee AD4D 0200 		mov	@r13, 2(r13) 
 1760 07f2 2D83      		sub	#2, r13
 1761               	.LM304:
 1762 07f4 3D90 0000 		cmp	#mathStack-2, r13
 1763 07f8 FA23      		jne	.L202
 1764               	.LM305:
 1765 07fa 824F 0000 		mov	r15, &mathStack 
 1766               	.LVL88:
 1767               	.L203:
 1768               	.LBE300:
 1769               	.LBE299:
 1770               	.LBB301:
 1771               	.LBB294:
 1772               	.LM306:
 1773 07fe AE4E 0200 		mov	@r14, 2(r14) 
 1774 0802 2E83      		sub	#2, r14
 1775               	.LM307:
 1776 0804 0C9E      		cmp	r14, r12
 1777 0806 FB23      		jne	.L203
 1778 0808 C23F      		jmp	.L213
 1779               	.LVL89:
 1780               	.L201:
 1781               	.LM308:
 1782 080a 3F40 0000 		mov	#mathStack+26, r15 
 1783               	.L204:
 1784               	.LBE294:
 1785               	.LBE301:
 1786               	.LBB302:
 1787               	.LBB303:
 1788               	.LM309:
 1789 080e AF4F 0200 		mov	@r15, 2(r15) 
 1790 0812 2F83      		sub	#2, r15
 1791               	.LM310:
 1792 0814 3F90 0000 		cmp	#mathStack-2, r15
 1793 0818 FA23      		jne	.L204
 1794               	.LM311:
 1795 081a 8243 0000 		mov	#0, &mathStack 
 1796 081e B93F      		jmp	.L205
 1797               	.LBE303:
 1798               	.LBE302:
 1799               	.LFE19:
 1800               	.Lfe19:
 1801               		.size	luFunc,.Lfe19-luFunc
 1802               	;; End of function 
 1803               	
 1804               		.p2align 1,0
GAS LISTING /tmp/ccvQL2RB.s 			page 33


 1805               	.global	numFunc
 1806               		.type	numFunc,@function
 1807               	/***********************
 1808               	 * Function `numFunc' 
 1809               	 ***********************/
 1810               	numFunc:
 1811               	.LFB20:
 1812               	.LM312:
 1813 0820 0B12      		push	r11
 1814               	.LCFI20:
 1815               		/* prologue ends here (frame size = 0) */
 1816               	.L__FrameSize_numFunc=0x0
 1817               	.L__FrameOffset_numFunc=0x2
 1818               	.LM313:
 1819 0822 5F42 0000 		mov.b	&wordBuffer, r15
 1820               	.LM314:
 1821 0826 4B43      		mov.b	#0, r11
 1822 0828 7F90 2D00 		cmp.b	#45, r15
 1823 082c 3824      		jeq	.L231
 1824               	.L215:
 1825 082e 4D4B      		mov.b	r11, r13
 1826               	.LVL90:
 1827               	.LM315:
 1828 0830 5C4D 0000 		mov.b	wordBuffer(r13), r12
 1829 0834 4E4C      		mov.b	r12, r14
 1830 0836 7E50 D0FF 		add.b	#llo(-48), r14
 1831 083a 7E90 0A00 		cmp.b	#10, r14
 1832 083e 1728      		jlo	.L216
 1833 0840 0F43      		mov	#0, r15 
 1834               	.LVL91:
 1835 0842 0C4F      		mov	r15, r12 
 1836               	.LVL92:
 1837               	.L217:
 1838               	.LM316:
 1839 0844 3E40 0000 		mov	#mathStack+26, r14 
 1840               	.LM317:
 1841 0848 0D4E      		mov	r14, r13 
 1842               	.LVL93:
 1843               	.L224:
 1844               	.LBB304:
 1845               	.LBB305:
 1846               	.LM318:
 1847 084a AD4D 0200 		mov	@r13, 2(r13) 
 1848 084e 2D83      		sub	#2, r13
 1849               	.LM319:
 1850 0850 3D90 0000 		cmp	#mathStack-2, r13
 1851 0854 FA23      		jne	.L224
 1852               	.LM320:
 1853 0856 824F 0000 		mov	r15, &mathStack 
 1854               	.L225:
 1855               	.LBE305:
 1856               	.LBE304:
 1857               	.LBB306:
 1858               	.LBB307:
 1859               	.LM321:
 1860 085a AE4E 0200 		mov	@r14, 2(r14) 
 1861 085e 2E83      		sub	#2, r14
GAS LISTING /tmp/ccvQL2RB.s 			page 34


 1862               	.LM322:
 1863 0860 3E90 0000 		cmp	#mathStack-2, r14
 1864 0864 FA23      		jne	.L225
 1865               	.LM323:
 1866 0866 824C 0000 		mov	r12, &mathStack 
 1867               	
 1868               		/* epilogue: frame size = 0 */
 1869               	.LBE307:
 1870               	.LBE306:
 1871               	.LM324:
 1872 086a 3B41      		pop	r11
 1873 086c 3041      		ret
 1874               	.LVL94:
 1875               	.L216:
 1876               	.LM325:
 1877 086e 7F90 3000 		cmp.b	#48, r15
 1878 0872 1724      		jeq	.L232
 1879               	.L218:
 1880               	.LM326:
 1881 0874 1D53      		add	#1, r13
 1882               	.LVL95:
 1883 0876 3D50 0000 		add	#wordBuffer, r13
 1884 087a 0F43      		mov	#0, r15 
 1885               	.LVL96:
 1886               	.L223:
 1887               	.LM327:
 1888 087c 0E4F      		mov	r15, r14 
 1889 087e 0E5E      		rla	r14
 1890 0880 0E5E      		rla	r14
 1891 0882 0F5E      		add	r14, r15
 1892 0884 0F5F      		rla	r15
 1893 0886 7CF3      		and.b	#-1,r12
 1894 0888 0F5C      		add	r12, r15
 1895 088a 3F50 D0FF 		add	#llo(-48), r15
 1896               	.LM328:
 1897 088e 6C4D      		mov.b	@r13, r12
 1898 0890 1D53      		add	#1, r13
 1899 0892 4C93      		cmp.b	#0, r12
 1900 0894 F323      		jne	.L223
 1901               	.LM329:
 1902 0896 4B9C      		cmp.b	r12, r11
 1903 0898 2520      		jne	.L233
 1904               	.LM330:
 1905 089a 1C43      		mov	#1, r12 
 1906               	.LVL97:
 1907 089c D33F      		jmp	.L217
 1908               	.LVL98:
 1909               	.L231:
 1910               	.LM331:
 1911 089e 5B53      		add.b	#1, r11
 1912 08a0 C63F      		jmp	.L215
 1913               	.LVL99:
 1914               	.L232:
 1915               	.LM332:
 1916 08a2 F290 7800 		cmp.b	#120, &wordBuffer+1
 1916      0000 
 1917 08a8 E523      		jne	.L218
GAS LISTING /tmp/ccvQL2RB.s 			page 35


 1918               	.LM333:
 1919 08aa 5C42 0000 		mov.b	&wordBuffer+2, r12
 1920 08ae 4C93      		cmp.b	#0, r12
 1921 08b0 1D24      		jeq	.L234
 1922 08b2 3D40 0000 		mov	#wordBuffer+3, r13 
 1923               	.LVL100:
 1924 08b6 0F43      		mov	#0, r15 
 1925               	.LVL101:
 1926               	.LM334:
 1927 08b8 7B40 3900 		mov.b	#57, r11
 1928               	.L221:
 1929               	.LM335:
 1930 08bc 0E4F      		mov	r15, r14 
 1931 08be 0E5E      		rla	r14
 1932 08c0 0E5E      		rla	r14
 1933 08c2 0E5E      		rla	r14
 1934 08c4 0E5E      		rla	r14
 1935 08c6 4F4C      		mov.b	r12, r15
 1936               	.LVL102:
 1937 08c8 0E5F      		add	r15, r14
 1938 08ca 0F4E      		mov	r14, r15 
 1939               	.LVL103:
 1940 08cc 3F50 D0FF 		add	#llo(-48), r15
 1941               	.LM336:
 1942 08d0 4B9C      		cmp.b	r12, r11
 1943 08d2 022C      		jhs	.L220
 1944               	.LM337:
 1945 08d4 3F50 F9FF 		add	#llo(-7), r15
 1946               	.L220:
 1947               	.LM338:
 1948 08d8 6C4D      		mov.b	@r13, r12
 1949 08da 1D53      		add	#1, r13
 1950 08dc 4C93      		cmp.b	#0, r12
 1951 08de EE23      		jne	.L221
 1952               	.LM339:
 1953 08e0 1C43      		mov	#1, r12 
 1954               	.LVL104:
 1955 08e2 B03F      		jmp	.L217
 1956               	.LVL105:
 1957               	.L233:
 1958 08e4 3FE3      		inv	r15
 1959 08e6 1F53      		add	#1, r15
 1960 08e8 1C43      		mov	#1, r12 
 1961               	.LVL106:
 1962 08ea AC3F      		jmp	.L217
 1963               	.LVL107:
 1964               	.L234:
 1965               	.LM340:
 1966 08ec 0F43      		mov	#0, r15 
 1967               	.LVL108:
 1968 08ee 1C43      		mov	#1, r12 
 1969               	.LVL109:
 1970 08f0 A93F      		jmp	.L217
 1971               	.LFE20:
 1972               	.Lfe20:
 1973               		.size	numFunc,.Lfe20-numFunc
 1974               	;; End of function 
GAS LISTING /tmp/ccvQL2RB.s 			page 36


 1975               	
 1976               		.p2align 1,0
 1977               	.global	ifFunc
 1978               		.type	ifFunc,@function
 1979               	/***********************
 1980               	 * Function `ifFunc' 
 1981               	 ***********************/
 1982               	ifFunc:
 1983               	.LFB21:
 1984               	.LM341:
 1985               	.LVL110:
 1986               		/* prologue ends here (frame size = 0) */
 1987               	.L__FrameSize_ifFunc=0x0
 1988               	.L__FrameOffset_ifFunc=0x0
 1989               	.LM342:
 1990 08f2 1E42 0000 		mov	&progCounter, r14 
 1991 08f6 3E90 1027 		cmp	#10000, r14
 1992 08fa 1938      		jl	.L236
 1993               	.LM343:
 1994 08fc 0D4E      		mov	r14, r13 
 1995 08fe 0D5D      		rla	r13
 1996 0900 3D50 0000 		add	#progBi-20000, r13
 1997 0904 2D4D      		mov	@r13, r13 
 1998               	.LVL111:
 1999               	.LM344:
 2000 0906 1E53      		add	#1, r14
 2001 0908 824E 0000 		mov	r14, &progCounter 
 2002               	.LM345:
 2003 090c 5F93      		cmp.b	#1, r15
 2004 090e 1824      		jeq	.L243
 2005               	.L238:
 2006               	.LBB308:
 2007               	.LBB309:
 2008               	.LM346:
 2009 0910 1E42 0000 		mov	&mathStack, r14 
 2010               	.LVL112:
 2011 0914 3F40 0000 		mov	#mathStack+2, r15 
 2012               	.LVL113:
 2013               	.L240:
 2014               	.LM347:
 2015 0918 AF4F FEFF 		mov	@r15, -2(r15) 
 2016 091c 2F53      		add	#2, r15
 2017               	.LM348:
 2018 091e 3F90 0000 		cmp	#mathStack+32, r15
 2019 0922 FA23      		jne	.L240
 2020               	.LBE309:
 2021               	.LBE308:
 2022               	.LM349:
 2023 0924 0E93      		cmp	#0, r14
 2024 0926 0220      		jne	.L241
 2025               	.LM350:
 2026 0928 824D 0000 		mov	r13, &progCounter 
 2027               	.L241:
 2028 092c 3041      		ret
 2029               	.LVL114:
 2030               	.L236:
 2031               	.LM351:
GAS LISTING /tmp/ccvQL2RB.s 			page 37


 2032 092e 0D4E      		mov	r14, r13 
 2033 0930 0D5D      		rla	r13
 2034 0932 1D4D 0000 		mov	prog(r13), r13 
 2035               	.LVL115:
 2036               	.LM352:
 2037 0936 1E53      		add	#1, r14
 2038 0938 824E 0000 		mov	r14, &progCounter 
 2039               	.LM353:
 2040 093c 5F93      		cmp.b	#1, r15
 2041 093e E823      		jne	.L238
 2042               	.L243:
 2043               	.LM354:
 2044 0940 824D 0000 		mov	r13, &progCounter 
 2045 0944 3041      		ret
 2046               	.LFE21:
 2047               	.Lfe21:
 2048               		.size	ifFunc,.Lfe21-ifFunc
 2049               	;; End of function 
 2050               	
 2051               		.p2align 1,0
 2052               	.global	pushnFunc
 2053               		.type	pushnFunc,@function
 2054               	/***********************
 2055               	 * Function `pushnFunc' 
 2056               	 ***********************/
 2057               	pushnFunc:
 2058               	.LFB22:
 2059               	.LM355:
 2060               		/* prologue ends here (frame size = 0) */
 2061               	.L__FrameSize_pushnFunc=0x0
 2062               	.L__FrameOffset_pushnFunc=0x0
 2063               	.LM356:
 2064 0946 1F42 0000 		mov	&progCounter, r15 
 2065 094a 3F90 1027 		cmp	#10000, r15
 2066 094e 1338      		jl	.L245
 2067               	.LM357:
 2068 0950 0E4F      		mov	r15, r14 
 2069 0952 0E5E      		rla	r14
 2070 0954 3E50 0000 		add	#progBi-20000, r14
 2071 0958 2E4E      		mov	@r14, r14 
 2072               	.LVL116:
 2073               	.L246:
 2074               	.LM358:
 2075 095a 1F53      		add	#1, r15
 2076 095c 824F 0000 		mov	r15, &progCounter 
 2077 0960 3F40 0000 		mov	#mathStack+26, r15 
 2078               	.L247:
 2079               	.LBB310:
 2080               	.LBB311:
 2081               	.LM359:
 2082 0964 AF4F 0200 		mov	@r15, 2(r15) 
 2083 0968 2F83      		sub	#2, r15
 2084               	.LM360:
 2085 096a 3F90 0000 		cmp	#mathStack-2, r15
 2086 096e FA23      		jne	.L247
 2087               	.LM361:
 2088 0970 824E 0000 		mov	r14, &mathStack 
GAS LISTING /tmp/ccvQL2RB.s 			page 38


 2089               	
 2090               		/* epilogue: not required */
 2091               	.LBE311:
 2092               	.LBE310:
 2093               	.LM362:
 2094 0974 3041      		ret
 2095               	.LVL117:
 2096               	.L245:
 2097               	.LM363:
 2098 0976 0E4F      		mov	r15, r14 
 2099 0978 0E5E      		rla	r14
 2100 097a 1E4E 0000 		mov	prog(r14), r14 
 2101               	.LVL118:
 2102 097e ED3F      		jmp	.L246
 2103               	.LFE22:
 2104               	.Lfe22:
 2105               		.size	pushnFunc,.Lfe22-pushnFunc
 2106               	;; End of function 
 2107               	
 2108               		.p2align 1,0
 2109               	.global	overFunc
 2110               		.type	overFunc,@function
 2111               	/***********************
 2112               	 * Function `overFunc' 
 2113               	 ***********************/
 2114               	overFunc:
 2115               	.LFB23:
 2116               	.LM364:
 2117               		/* prologue ends here (frame size = 0) */
 2118               	.L__FrameSize_overFunc=0x0
 2119               	.L__FrameOffset_overFunc=0x0
 2120               	.LM365:
 2121 0980 1E42 0000 		mov	&mathStack+2, r14 
 2122               	.LVL119:
 2123 0984 3F40 0000 		mov	#mathStack+26, r15 
 2124               	.L251:
 2125               	.LBB312:
 2126               	.LBB313:
 2127               	.LM366:
 2128 0988 AF4F 0200 		mov	@r15, 2(r15) 
 2129 098c 2F83      		sub	#2, r15
 2130               	.LM367:
 2131 098e 3F90 0000 		cmp	#mathStack-2, r15
 2132 0992 FA23      		jne	.L251
 2133               	.LM368:
 2134 0994 824E 0000 		mov	r14, &mathStack 
 2135               	
 2136               		/* epilogue: not required */
 2137               	.LBE313:
 2138               	.LBE312:
 2139               	.LM369:
 2140 0998 3041      		ret
 2141               	.LFE23:
 2142               	.Lfe23:
 2143               		.size	overFunc,.Lfe23-overFunc
 2144               	;; End of function 
 2145               	
GAS LISTING /tmp/ccvQL2RB.s 			page 39


 2146               		.p2align 1,0
 2147               	.global	dfnFunc
 2148               		.type	dfnFunc,@function
 2149               	/***********************
 2150               	 * Function `dfnFunc' 
 2151               	 ***********************/
 2152               	dfnFunc:
 2153               	.LFB24:
 2154               	.LM370:
 2155 099a 0B12      		push	r11
 2156               	.LCFI21:
 2157               		/* prologue ends here (frame size = 0) */
 2158               	.L__FrameSize_dfnFunc=0x0
 2159               	.L__FrameOffset_dfnFunc=0x2
 2160               	.LM371:
 2161 099c 5E42 0000 		mov.b	&wordBuffer, r14
 2162 09a0 4E93      		cmp.b	#0, r14
 2163 09a2 2624      		jeq	.L260
 2164 09a4 1B42 0000 		mov	&cmdListPtr, r11 
 2165 09a8 0C4B      		mov	r11, r12 
 2166 09aa 1C53      		add	#1, r12
 2167 09ac 0F43      		mov	#0, r15 
 2168               	.LVL120:
 2169 09ae 3B50 0000 		add	#cmdList, r11
 2170               	.L257:
 2171               	.LM372:
 2172 09b2 0D4B      		mov	r11, r13 
 2173 09b4 0D5F      		add	r15, r13
 2174 09b6 CD4E 0000 		mov.b	r14, @r13
 2175 09ba 0D4C      		mov	r12, r13 
 2176               	.LM373:
 2177 09bc 1F53      		add	#1, r15
 2178               	.LM374:
 2179 09be 5E4F 0000 		mov.b	wordBuffer(r15), r14
 2180 09c2 1C53      		add	#1, r12
 2181 09c4 4E93      		cmp.b	#0, r14
 2182 09c6 F523      		jne	.L257
 2183               	.L256:
 2184               	.LM375:
 2185 09c8 FD40 2000 		mov.b	#32, cmdList(r13)
 2185      0000 
 2186 09ce 1D53      		add	#1, r13
 2187 09d0 824D 0000 		mov	r13, &cmdListPtr 
 2188               	.LM376:
 2189 09d4 CD43 0000 		mov.b	#0, cmdList(r13)
 2190               	.LM377:
 2191 09d8 3E40 0000 		mov	#cmdList, r14 
 2192 09dc 3F40 0000 		mov	#wordBuffer, r15 
 2193               	.LVL121:
 2194 09e0 B012 0000 		call	#lookupToken
 2195               	.LM378:
 2196 09e4 0F5F      		rla	r15
 2197 09e6 9F42 0000 		mov	&progPtr, progOps(r15) 
 2197      0000 
 2198               	
 2199               		/* epilogue: frame size = 0 */
 2200               	.LM379:
GAS LISTING /tmp/ccvQL2RB.s 			page 40


 2201 09ec 3B41      		pop	r11
 2202 09ee 3041      		ret
 2203               	.L260:
 2204               	.LM380:
 2205 09f0 1D42 0000 		mov	&cmdListPtr, r13 
 2206 09f4 E93F      		jmp	.L256
 2207               	.LFE24:
 2208               	.Lfe24:
 2209               		.size	dfnFunc,.Lfe24-dfnFunc
 2210               	;; End of function 
 2211               	
 2212               		.p2align 1,0
 2213               	.global	printNumber
 2214               		.type	printNumber,@function
 2215               	/***********************
 2216               	 * Function `printNumber' 
 2217               	 ***********************/
 2218               	printNumber:
 2219               	.LFB25:
 2220               	.LM381:
 2221               	.LVL122:
 2222 09f6 0B12      		push	r11
 2223               	.LCFI22:
 2224 09f8 0A12      		push	r10
 2225               	.LCFI23:
 2226 09fa 0912      		push	r9
 2227               	.LCFI24:
 2228 09fc 0812      		push	r8
 2229               	.LCFI25:
 2230 09fe 0712      		push	r7
 2231               	.LCFI26:
 2232 0a00 0412      		push	r4
 2233               	.LCFI27:
 2234 0a02 3150 F2FF 		add	#llo(-14), r1
 2235               	.LCFI28:
 2236               		/* prologue ends here (frame size = 14) */
 2237               	.L__FrameSize_printNumber=0xe
 2238               	.L__FrameOffset_printNumber=0x1a
 2239               	.LM382:
 2240 0a06 084F      		mov	r15, r8 
 2241               	.LVL123:
 2242 0a08 0893      		tst	r8
 2243 0a0a 0234      		jge	.Lae1750
 2244 0a0c 38E3      		inv	r8
 2245 0a0e 1853      		inc	r8
 2246               	.Lae1750:
 2247 0a10 0441      		mov	r1, r4 
 2248 0a12 0743      		mov	#0, r7 
 2249               	.LVL124:
 2250 0a14 013C      		jmp	.L263
 2251               	.LVL125:
 2252               	.L280:
 2253               	.LM383:
 2254 0a16 074E      		mov	r14, r7 
 2255               	.LVL126:
 2256               	.L263:
 2257               	.LM384:
GAS LISTING /tmp/ccvQL2RB.s 			page 41


 2258 0a18 0C48      		mov	r8, r12 
 2259 0a1a 3A40 0A00 		mov	#10, r10 
 2260 0a1e B012 0000 		call	#__divmodhi4
 2261 0a22 094E      		mov	r14, r9 
 2262               	.LM385:
 2263 0a24 0C48      		mov	r8, r12 
 2264 0a26 3A40 0A00 		mov	#10, r10 
 2265 0a2a B012 0000 		call	#__divmodhi4
 2266 0a2e 084C      		mov	r12, r8 
 2267               	.LM386:
 2268 0a30 3950 3000 		add	#48, r9
 2269 0a34 8449 0000 		mov	r9, @r4 
 2270 0a38 0E47      		mov	r7, r14 
 2271 0a3a 1E53      		add	#1, r14
 2272               	.LVL127:
 2273 0a3c 2453      		add	#2, r4
 2274               	.LM387:
 2275 0a3e 0C93      		cmp	#0, r12
 2276 0a40 EA23      		jne	.L280
 2277               	.LVL128:
 2278               	.LM388:
 2279 0a42 0F9C      		cmp	r12, r15
 2280 0a44 4D38      		jl	.L281
 2281               	.L264:
 2282               	.LBB314:
 2283               	.LBB315:
 2284               	.LM389:
 2285 0a46 0C47      		mov	r7, r12 
 2286               	.LVL129:
 2287 0a48 3C53      		add	#llo(-1), r12
 2288               	.LVL130:
 2289 0a4a 0E4C      		mov	r12, r14 
 2290 0a4c 0E5E      		rla	r14
 2291 0a4e 0E51      		add	r1, r14
 2292               	.L270:
 2293               	.LBE315:
 2294               	.LBE314:
 2295               	.LBB317:
 2296               	.LBB318:
 2297               	.LM390:
 2298 0a50 1842 0000 		mov	&outputRingPtrXin, r8 
 2299               	.LVL131:
 2300               	.LM391:
 2301 0a54 1D42 0000 		mov	&outputRingPtrXout, r13 
 2302 0a58 1F42 0000 		mov	&outputRingPtrXin, r15 
 2303               	.LVL132:
 2304 0a5c 0D9F      		cmp	r15, r13
 2305 0a5e 0724      		jeq	.L267
 2306               	.L275:
 2307               	.LM392:
 2308               	/* #APP */
 2309               	 ;  500 "x.c" 1
 2310 0a60 32D2      		eint
 2311               	 ;  0 "" 2
 2312               	.LM393:
 2313               	/* #NOAPP */
 2314 0a62 1D42 0000 		mov	&outputRingPtrXout, r13 
GAS LISTING /tmp/ccvQL2RB.s 			page 42


 2315 0a66 1F42 0000 		mov	&outputRingPtrXin, r15 
 2316 0a6a 0D9F      		cmp	r15, r13
 2317 0a6c F923      		jne	.L275
 2318               	.L267:
 2319               	.LM394:
 2320 0a6e 1F42 0000 		mov	&outputRingPtrXin, r15 
 2321 0a72 0F5F      		rla	r15
 2322 0a74 CF49 0000 		mov.b	r9, outputRing(r15)
 2323 0a78 CF43 0000 		clr.b	outputRing+1(r15)
 2324               	.LM395:
 2325 0a7c 4F48      		mov.b	r8, r15
 2326 0a7e 5F53      		add.b	#1, r15
 2327               	.LM396:
 2328 0a80 0D4F      		mov	r15, r13 
 2329 0a82 3DF0 0F00 		and	#15, r13
 2330 0a86 824D 0000 		mov	r13, &outputRingPtrXin 
 2331               	.LBE318:
 2332               	.LBE317:
 2333               	.LM397:
 2334 0a8a 0C93      		cmp	#0, r12
 2335 0a8c 0438      		jl	.L269
 2336 0a8e 294E      		mov	@r14, r9 
 2337 0a90 2E83      		sub	#2, r14
 2338 0a92 3C53      		add	#llo(-1), r12
 2339 0a94 DD3F      		jmp	.L270
 2340               	.L269:
 2341               	.LBB319:
 2342               	.LBB320:
 2343               	.LM398:
 2344 0a96 1D42 0000 		mov	&outputRingPtrXin, r13 
 2345               	.LM399:
 2346 0a9a 1E42 0000 		mov	&outputRingPtrXout, r14 
 2347 0a9e 1F42 0000 		mov	&outputRingPtrXin, r15 
 2348 0aa2 0E9F      		cmp	r15, r14
 2349 0aa4 0724      		jeq	.L271
 2350               	.L274:
 2351               	.LM400:
 2352               	/* #APP */
 2353               	 ;  500 "x.c" 1
 2354 0aa6 32D2      		eint
 2355               	 ;  0 "" 2
 2356               	.LM401:
 2357               	/* #NOAPP */
 2358 0aa8 1E42 0000 		mov	&outputRingPtrXout, r14 
 2359 0aac 1F42 0000 		mov	&outputRingPtrXin, r15 
 2360 0ab0 0E9F      		cmp	r15, r14
 2361 0ab2 F923      		jne	.L274
 2362               	.L271:
 2363               	.LM402:
 2364 0ab4 1F42 0000 		mov	&outputRingPtrXin, r15 
 2365 0ab8 0F5F      		rla	r15
 2366 0aba BF40 2000 		mov	#32, outputRing(r15) 
 2366      0000 
 2367               	.LM403:
 2368 0ac0 4F4D      		mov.b	r13, r15
 2369 0ac2 5F53      		add.b	#1, r15
 2370               	.LM404:
GAS LISTING /tmp/ccvQL2RB.s 			page 43


 2371 0ac4 0E4F      		mov	r15, r14 
 2372 0ac6 3EF0 0F00 		and	#15, r14
 2373 0aca 824E 0000 		mov	r14, &outputRingPtrXin 
 2374               	
 2375               		/* epilogue: frame size = 14 */
 2376               	.LBE320:
 2377               	.LBE319:
 2378               	.LM405:
 2379 0ace 3150 0E00 		add	#14, r1
 2380               	.LCFI29:
 2381 0ad2 3441      		pop	r4
 2382 0ad4 3741      		pop	r7
 2383 0ad6 3841      		pop	r8
 2384 0ad8 3941      		pop	r9
 2385 0ada 3A41      		pop	r10
 2386 0adc 3B41      		pop	r11
 2387 0ade 3041      		ret
 2388               	.LVL133:
 2389               	.L281:
 2390               	.LBB321:
 2391               	.LBB316:
 2392               	.LM406:
 2393 0ae0 1D42 0000 		mov	&outputRingPtrXin, r13 
 2394               	.LM407:
 2395 0ae4 1E42 0000 		mov	&outputRingPtrXout, r14 
 2396               	.LVL134:
 2397 0ae8 1F42 0000 		mov	&outputRingPtrXin, r15 
 2398               	.LVL135:
 2399 0aec 0E9F      		cmp	r15, r14
 2400 0aee 0724      		jeq	.L265
 2401               	.L276:
 2402               	.LM408:
 2403               	/* #APP */
 2404               	 ;  500 "x.c" 1
 2405 0af0 32D2      		eint
 2406               	 ;  0 "" 2
 2407               	.LM409:
 2408               	/* #NOAPP */
 2409 0af2 1E42 0000 		mov	&outputRingPtrXout, r14 
 2410 0af6 1F42 0000 		mov	&outputRingPtrXin, r15 
 2411 0afa 0E9F      		cmp	r15, r14
 2412 0afc F923      		jne	.L276
 2413               	.L265:
 2414               	.LM410:
 2415 0afe 1F42 0000 		mov	&outputRingPtrXin, r15 
 2416 0b02 0F5F      		rla	r15
 2417 0b04 BF40 2D00 		mov	#45, outputRing(r15) 
 2417      0000 
 2418               	.LM411:
 2419 0b0a 4F4D      		mov.b	r13, r15
 2420 0b0c 5F53      		add.b	#1, r15
 2421               	.LM412:
 2422 0b0e 0D4F      		mov	r15, r13 
 2423 0b10 3DF0 0F00 		and	#15, r13
 2424 0b14 824D 0000 		mov	r13, &outputRingPtrXin 
 2425 0b18 963F      		jmp	.L264
 2426               	.LBE316:
GAS LISTING /tmp/ccvQL2RB.s 			page 44


 2427               	.LBE321:
 2428               	.LFE25:
 2429               	.Lfe25:
 2430               		.size	printNumber,.Lfe25-printNumber
 2431               	;; End of function 
 2432               	
 2433               		.p2align 1,0
 2434               	.global	printHexChar
 2435               		.type	printHexChar,@function
 2436               	/***********************
 2437               	 * Function `printHexChar' 
 2438               	 ***********************/
 2439               	printHexChar:
 2440               	.LFB26:
 2441               	.LM413:
 2442               	.LVL136:
 2443               		/* prologue ends here (frame size = 0) */
 2444               	.L__FrameSize_printHexChar=0x0
 2445               	.L__FrameOffset_printHexChar=0x0
 2446               	.LM414:
 2447 0b1a 3FF0 0F00 		and	#15, r15
 2448               	.LVL137:
 2449               	.LM415:
 2450 0b1e 3F90 0A00 		cmp	#10, r15
 2451 0b22 0238      		jl	.L283
 2452               	.LM416:
 2453 0b24 3F50 0700 		add	#7, r15
 2454               	.L283:
 2455               	.LBB322:
 2456               	.LBB323:
 2457               	.LM417:
 2458 0b28 1C42 0000 		mov	&outputRingPtrXin, r12 
 2459               	.LM418:
 2460 0b2c 1D42 0000 		mov	&outputRingPtrXout, r13 
 2461 0b30 1E42 0000 		mov	&outputRingPtrXin, r14 
 2462 0b34 0D9E      		cmp	r14, r13
 2463 0b36 0724      		jeq	.L284
 2464               	.L287:
 2465               	.LM419:
 2466               	/* #APP */
 2467               	 ;  500 "x.c" 1
 2468 0b38 32D2      		eint
 2469               	 ;  0 "" 2
 2470               	.LM420:
 2471               	/* #NOAPP */
 2472 0b3a 1D42 0000 		mov	&outputRingPtrXout, r13 
 2473 0b3e 1E42 0000 		mov	&outputRingPtrXin, r14 
 2474 0b42 0D9E      		cmp	r14, r13
 2475 0b44 F923      		jne	.L287
 2476               	.L284:
 2477               	.LM421:
 2478 0b46 1E42 0000 		mov	&outputRingPtrXin, r14 
 2479 0b4a 0E5E      		rla	r14
 2480 0b4c 3F50 3000 		add	#48, r15
 2481 0b50 8E4F 0000 		mov	r15, outputRing(r14) 
 2482               	.LM422:
 2483 0b54 4F4C      		mov.b	r12, r15
GAS LISTING /tmp/ccvQL2RB.s 			page 45


 2484               	.LVL138:
 2485 0b56 5F53      		add.b	#1, r15
 2486               	.LM423:
 2487 0b58 0E4F      		mov	r15, r14 
 2488 0b5a 3EF0 0F00 		and	#15, r14
 2489 0b5e 824E 0000 		mov	r14, &outputRingPtrXin 
 2490               	
 2491               		/* epilogue: not required */
 2492               	.LBE323:
 2493               	.LBE322:
 2494               	.LM424:
 2495 0b62 3041      		ret
 2496               	.LFE26:
 2497               	.Lfe26:
 2498               		.size	printHexChar,.Lfe26-printHexChar
 2499               	;; End of function 
 2500               	
 2501               		.p2align 1,0
 2502               	.global	printHexByte
 2503               		.type	printHexByte,@function
 2504               	/***********************
 2505               	 * Function `printHexByte' 
 2506               	 ***********************/
 2507               	printHexByte:
 2508               	.LFB27:
 2509               	.LM425:
 2510               	.LVL139:
 2511 0b64 0B12      		push	r11
 2512               	.LCFI30:
 2513               		/* prologue ends here (frame size = 0) */
 2514               	.L__FrameSize_printHexByte=0x0
 2515               	.L__FrameOffset_printHexByte=0x2
 2516               	.LM426:
 2517 0b66 7FF3      		and.b	#-1,r15
 2518               	.LVL140:
 2519               	.LBB324:
 2520               	.LBB325:
 2521               	.LM427:
 2522 0b68 0E4F      		mov	r15, r14 
 2523               	.LVL141:
 2524 0b6a 0E11      		rra	r14
 2525 0b6c 0E11      		rra	r14
 2526 0b6e 0E11      		rra	r14
 2527 0b70 0E11      		rra	r14
 2528 0b72 3EF0 0F00 		and	#15, r14
 2529               	.LM428:
 2530 0b76 3E90 0A00 		cmp	#10, r14
 2531 0b7a 0238      		jl	.L290
 2532               	.LM429:
 2533 0b7c 3E50 0700 		add	#7, r14
 2534               	.L290:
 2535               	.LBB326:
 2536               	.LBB327:
 2537               	.LM430:
 2538 0b80 1B42 0000 		mov	&outputRingPtrXin, r11 
 2539               	.LM431:
 2540 0b84 1C42 0000 		mov	&outputRingPtrXout, r12 
GAS LISTING /tmp/ccvQL2RB.s 			page 46


 2541 0b88 1D42 0000 		mov	&outputRingPtrXin, r13 
 2542 0b8c 0C9D      		cmp	r13, r12
 2543 0b8e 0724      		jeq	.L291
 2544               	.L298:
 2545               	.LM432:
 2546               	/* #APP */
 2547               	 ;  500 "x.c" 1
 2548 0b90 32D2      		eint
 2549               	 ;  0 "" 2
 2550               	.LM433:
 2551               	/* #NOAPP */
 2552 0b92 1C42 0000 		mov	&outputRingPtrXout, r12 
 2553 0b96 1D42 0000 		mov	&outputRingPtrXin, r13 
 2554 0b9a 0C9D      		cmp	r13, r12
 2555 0b9c F923      		jne	.L298
 2556               	.L291:
 2557               	.LM434:
 2558 0b9e 1D42 0000 		mov	&outputRingPtrXin, r13 
 2559 0ba2 0D5D      		rla	r13
 2560 0ba4 3E50 3000 		add	#48, r14
 2561 0ba8 8D4E 0000 		mov	r14, outputRing(r13) 
 2562               	.LM435:
 2563 0bac 4E4B      		mov.b	r11, r14
 2564               	.LVL142:
 2565 0bae 5E53      		add.b	#1, r14
 2566               	.LM436:
 2567 0bb0 0D4E      		mov	r14, r13 
 2568 0bb2 3DF0 0F00 		and	#15, r13
 2569 0bb6 824D 0000 		mov	r13, &outputRingPtrXin 
 2570               	.LBE327:
 2571               	.LBE326:
 2572               	.LBE325:
 2573               	.LBE324:
 2574               	.LBB328:
 2575               	.LBB329:
 2576               	.LM437:
 2577 0bba 0D4F      		mov	r15, r13 
 2578               	.LVL143:
 2579 0bbc 3DF0 0F00 		and	#15, r13
 2580               	.LM438:
 2581 0bc0 3D90 0A00 		cmp	#10, r13
 2582 0bc4 0238      		jl	.L293
 2583               	.LM439:
 2584 0bc6 3D50 0700 		add	#7, r13
 2585               	.L293:
 2586               	.LBB330:
 2587               	.LBB331:
 2588               	.LM440:
 2589 0bca 1C42 0000 		mov	&outputRingPtrXin, r12 
 2590               	.LM441:
 2591 0bce 1E42 0000 		mov	&outputRingPtrXout, r14 
 2592 0bd2 1F42 0000 		mov	&outputRingPtrXin, r15 
 2593               	.LVL144:
 2594 0bd6 0E9F      		cmp	r15, r14
 2595 0bd8 0724      		jeq	.L294
 2596               	.L297:
 2597               	.LM442:
GAS LISTING /tmp/ccvQL2RB.s 			page 47


 2598               	/* #APP */
 2599               	 ;  500 "x.c" 1
 2600 0bda 32D2      		eint
 2601               	 ;  0 "" 2
 2602               	.LM443:
 2603               	/* #NOAPP */
 2604 0bdc 1E42 0000 		mov	&outputRingPtrXout, r14 
 2605 0be0 1F42 0000 		mov	&outputRingPtrXin, r15 
 2606 0be4 0E9F      		cmp	r15, r14
 2607 0be6 F923      		jne	.L297
 2608               	.L294:
 2609               	.LM444:
 2610 0be8 1F42 0000 		mov	&outputRingPtrXin, r15 
 2611 0bec 0F5F      		rla	r15
 2612 0bee 3D50 3000 		add	#48, r13
 2613 0bf2 8F4D 0000 		mov	r13, outputRing(r15) 
 2614               	.LM445:
 2615 0bf6 4F4C      		mov.b	r12, r15
 2616 0bf8 5F53      		add.b	#1, r15
 2617               	.LM446:
 2618 0bfa 0E4F      		mov	r15, r14 
 2619 0bfc 3EF0 0F00 		and	#15, r14
 2620 0c00 824E 0000 		mov	r14, &outputRingPtrXin 
 2621               	
 2622               		/* epilogue: frame size = 0 */
 2623               	.LBE331:
 2624               	.LBE330:
 2625               	.LBE329:
 2626               	.LBE328:
 2627               	.LM447:
 2628 0c04 3B41      		pop	r11
 2629 0c06 3041      		ret
 2630               	.LFE27:
 2631               	.Lfe27:
 2632               		.size	printHexByte,.Lfe27-printHexByte
 2633               	;; End of function 
 2634               	
 2635               		.p2align 1,0
 2636               	.global	printHexWord
 2637               		.type	printHexWord,@function
 2638               	/***********************
 2639               	 * Function `printHexWord' 
 2640               	 ***********************/
 2641               	printHexWord:
 2642               	.LFB28:
 2643               	.LM448:
 2644               	.LVL145:
 2645 0c08 0B12      		push	r11
 2646               	.LCFI31:
 2647               		/* prologue ends here (frame size = 0) */
 2648               	.L__FrameSize_printHexWord=0x0
 2649               	.L__FrameOffset_printHexWord=0x2
 2650 0c0a 0B4F      		mov	r15, r11 
 2651               	.LM449:
 2652 0c0c 8F10      		swpb	r15
 2653 0c0e 8F11      		sxt	r15
 2654               	.LVL146:
GAS LISTING /tmp/ccvQL2RB.s 			page 48


 2655 0c10 B012 0000 		call	#printHexByte
 2656               	.LM450:
 2657 0c14 0F4B      		mov	r11, r15 
 2658               	.LVL147:
 2659 0c16 B012 0000 		call	#printHexByte
 2660               	
 2661               		/* epilogue: frame size = 0 */
 2662               	.LM451:
 2663 0c1a 3B41      		pop	r11
 2664               	.LVL148:
 2665 0c1c 3041      		ret
 2666               	.LFE28:
 2667               	.Lfe28:
 2668               		.size	printHexWord,.Lfe28-printHexWord
 2669               	;; End of function 
 2670               	
 2671               	.LC0:
 2672 0c1e 7072 6F67 		.string	"prog mem"
 2672      206D 656D 
 2672      00
 2673               	.LC1:
 2674 0c27 6F70 636F 		.string	"opcode "
 2674      6465 2000 
 2675 0c2f 00        		.p2align 1,0
 2676               	.global	execN
 2677               		.type	execN,@function
 2678               	/***********************
 2679               	 * Function `execN' 
 2680               	 ***********************/
 2681               	execN:
 2682               	.LFB30:
 2683               	.LM452:
 2684               	.LVL149:
 2685 0c30 0B12      		push	r11
 2686               	.LCFI32:
 2687 0c32 0A12      		push	r10
 2688               	.LCFI33:
 2689 0c34 0912      		push	r9
 2690               	.LCFI34:
 2691 0c36 0812      		push	r8
 2692               	.LCFI35:
 2693               		/* prologue ends here (frame size = 0) */
 2694               	.L__FrameSize_execN=0x0
 2695               	.L__FrameOffset_execN=0x8
 2696               	.LM453:
 2697 0c38 3F90 4000 		cmp	#64, r15
 2698 0c3c 2C28      		jlo	.L541
 2699               	.L304:
 2700               	.LM454:
 2701 0c3e 3D40 0000 		mov	#.LC1, r13 
 2702               	.LVL150:
 2703               	.LBB332:
 2704               	.LBB333:
 2705               	.LM455:
 2706 0c42 5C42 0000 		mov.b	&.LC1, r12
 2707 0c46 4C93      		cmp.b	#0, r12
 2708 0c48 2124      		jeq	.L451
GAS LISTING /tmp/ccvQL2RB.s 			page 49


 2709               	.L452:
 2710               	.LBB334:
 2711               	.LBB335:
 2712               	.LM456:
 2713 0c4a 1B42 0000 		mov	&outputRingPtrXin, r11 
 2714               	.LM457:
 2715 0c4e 1E42 0000 		mov	&outputRingPtrXout, r14 
 2716 0c52 1F42 0000 		mov	&outputRingPtrXin, r15 
 2717               	.LVL151:
 2718 0c56 0E9F      		cmp	r15, r14
 2719 0c58 0724      		jeq	.L448
 2720               	.L453:
 2721               	.LM458:
 2722               	/* #APP */
 2723               	 ;  500 "x.c" 1
 2724 0c5a 32D2      		eint
 2725               	 ;  0 "" 2
 2726               	.LM459:
 2727               	/* #NOAPP */
 2728 0c5c 1E42 0000 		mov	&outputRingPtrXout, r14 
 2729 0c60 1F42 0000 		mov	&outputRingPtrXin, r15 
 2730 0c64 0E9F      		cmp	r15, r14
 2731 0c66 F923      		jne	.L453
 2732               	.L448:
 2733               	.LM460:
 2734 0c68 1F42 0000 		mov	&outputRingPtrXin, r15 
 2735 0c6c 0F5F      		rla	r15
 2736 0c6e CF4C 0000 		mov.b	r12, outputRing(r15)
 2737 0c72 CF43 0000 		clr.b	outputRing+1(r15)
 2738               	.LM461:
 2739 0c76 4F4B      		mov.b	r11, r15
 2740 0c78 5F53      		add.b	#1, r15
 2741               	.LM462:
 2742 0c7a 0E4F      		mov	r15, r14 
 2743 0c7c 3EF0 0F00 		and	#15, r14
 2744 0c80 824E 0000 		mov	r14, &outputRingPtrXin 
 2745               	.LBE335:
 2746               	.LBE334:
 2747               	.LM463:
 2748 0c84 1D53      		add	#1, r13
 2749               	.LM464:
 2750 0c86 6C4D      		mov.b	@r13, r12
 2751 0c88 4C93      		cmp.b	#0, r12
 2752 0c8a DF23      		jne	.L452
 2753               	.LVL152:
 2754               	.L451:
 2755               	
 2756               		/* epilogue: frame size = 0 */
 2757               	.LBE333:
 2758               	.LBE332:
 2759               	.LM465:
 2760 0c8c 3841      		pop	r8
 2761 0c8e 3941      		pop	r9
 2762               	.LVL153:
 2763 0c90 3A41      		pop	r10
 2764 0c92 3B41      		pop	r11
 2765 0c94 3041      		ret
GAS LISTING /tmp/ccvQL2RB.s 			page 50


 2766               	.LVL154:
 2767               	.L541:
 2768               	.LM466:
 2769 0c96 0F5F      		rla	r15
 2770               	.LVL155:
 2771 0c98 104F 0000 		br	.L365(r15)	;	.L365
 2772               		.p2align 1,0
 2773               		.p2align 1,0
 2774               	.L365:
 2775 0c9c 0000      		.word	.L304
 2776 0c9e 0000      		.word	.L451
 2777 0ca0 0000      		.word	.L306
 2778 0ca2 0000      		.word	.L307
 2779 0ca4 0000      		.word	.L308
 2780 0ca6 0000      		.word	.L309
 2781 0ca8 0000      		.word	.L310
 2782 0caa 0000      		.word	.L311
 2783 0cac 0000      		.word	.L312
 2784 0cae 0000      		.word	.L313
 2785 0cb0 0000      		.word	.L314
 2786 0cb2 0000      		.word	.L315
 2787 0cb4 0000      		.word	.L316
 2788 0cb6 0000      		.word	.L317
 2789 0cb8 0000      		.word	.L318
 2790 0cba 0000      		.word	.L319
 2791 0cbc 0000      		.word	.L320
 2792 0cbe 0000      		.word	.L321
 2793 0cc0 0000      		.word	.L322
 2794 0cc2 0000      		.word	.L323
 2795 0cc4 0000      		.word	.L324
 2796 0cc6 0000      		.word	.L325
 2797 0cc8 0000      		.word	.L326
 2798 0cca 0000      		.word	.L304
 2799 0ccc 0000      		.word	.L304
 2800 0cce 0000      		.word	.L327
 2801 0cd0 0000      		.word	.L328
 2802 0cd2 0000      		.word	.L329
 2803 0cd4 0000      		.word	.L330
 2804 0cd6 0000      		.word	.L304
 2805 0cd8 0000      		.word	.L331
 2806 0cda 0000      		.word	.L332
 2807 0cdc 0000      		.word	.L333
 2808 0cde 0000      		.word	.L334
 2809 0ce0 0000      		.word	.L335
 2810 0ce2 0000      		.word	.L336
 2811 0ce4 0000      		.word	.L337
 2812 0ce6 0000      		.word	.L338
 2813 0ce8 0000      		.word	.L339
 2814 0cea 0000      		.word	.L340
 2815 0cec 0000      		.word	.L341
 2816 0cee 0000      		.word	.L342
 2817 0cf0 0000      		.word	.L343
 2818 0cf2 0000      		.word	.L344
 2819 0cf4 0000      		.word	.L345
 2820 0cf6 0000      		.word	.L346
 2821 0cf8 0000      		.word	.L347
 2822 0cfa 0000      		.word	.L355
GAS LISTING /tmp/ccvQL2RB.s 			page 51


 2823 0cfc 0000      		.word	.L349
 2824 0cfe 0000      		.word	.L350
 2825 0d00 0000      		.word	.L351
 2826 0d02 0000      		.word	.L352
 2827 0d04 0000      		.word	.L526
 2828 0d06 0000      		.word	.L354
 2829 0d08 0000      		.word	.L355
 2830 0d0a 0000      		.word	.L356
 2831 0d0c 0000      		.word	.L357
 2832 0d0e 0000      		.word	.L358
 2833 0d10 0000      		.word	.L359
 2834 0d12 0000      		.word	.L360
 2835 0d14 0000      		.word	.L361
 2836 0d16 0000      		.word	.L362
 2837 0d18 0000      		.word	.L363
 2838 0d1a 0000      		.word	.L364
 2839               	.LVL156:
 2840               	.L459:
 2841               	.LBB336:
 2842               	.LBB337:
 2843               	.LM467:
 2844               	/* #APP */
 2845               	 ;  511 "x.c" 1
 2846 0d1c 32D2      		eint
 2847               	 ;  0 "" 2
 2848               	.LVL157:
 2849               	/* #NOAPP */
 2850               	.L526:
 2851               	.LM468:
 2852 0d1e 1E42 0000 		mov	&inputRingPtrXin, r14 
 2853 0d22 1F42 0000 		mov	&inputRingPtrXout, r15 
 2854               	.LVL158:
 2855 0d26 0E9F      		cmp	r15, r14
 2856 0d28 F927      		jeq	.L459
 2857               	.LM469:
 2858 0d2a 1F42 0000 		mov	&inputRingPtrXout, r15 
 2859 0d2e 5E4F 0000 		mov.b	inputRing(r15), r14
 2860               	.LVL159:
 2861 0d32 1F53      		add	#1, r15
 2862 0d34 824F 0000 		mov	r15, &inputRingPtrXout 
 2863               	.LM470:
 2864 0d38 B2F0 0F00 		and	#15, &inputRingPtrXout
 2864      0000 
 2865 0d3e 3F40 0000 		mov	#mathStack+26, r15 
 2866               	.L420:
 2867               	.LBE337:
 2868               	.LBE336:
 2869               	.LBB338:
 2870               	.LBB339:
 2871               	.LM471:
 2872 0d42 AF4F 0200 		mov	@r15, 2(r15) 
 2873 0d46 2F83      		sub	#2, r15
 2874               	.LM472:
 2875 0d48 3F90 0000 		cmp	#mathStack-2, r15
 2876 0d4c FA23      		jne	.L420
 2877               	.LM473:
 2878 0d4e C24E 0000 		mov.b	r14, &mathStack
GAS LISTING /tmp/ccvQL2RB.s 			page 52


 2879 0d52 C243 0000 		clr.b	&mathStack+1
 2880               	.LBE339:
 2881               	.LBE338:
 2882               	.LM474:
 2883 0d56 9A3F      		jmp	.L451
 2884               	.LVL160:
 2885               	.L355:
 2886               	.LM475:
 2887 0d58 1F42 0000 		mov	&mathStack, r15 
 2888               	.LVL161:
 2889 0d5c 0F5F      		rla	r15
 2890 0d5e 924F 0000 		mov	buckets(r15), &mathStack 
 2890      0000 
 2891               	.LM476:
 2892 0d64 933F      		jmp	.L451
 2893               	.LVL162:
 2894               	.L336:
 2895               	.LBB340:
 2896               	.LBB341:
 2897               	.LM477:
 2898 0d66 1F42 0000 		mov	&progCounter, r15 
 2899               	.LVL163:
 2900 0d6a 3F90 1027 		cmp	#10000, r15
 2901 0d6e 0234      		jge	+4
 2902 0d70 3040 0000 		br	#.L395
 2903               	.LM478:
 2904 0d74 0E4F      		mov	r15, r14 
 2905 0d76 0E5E      		rla	r14
 2906 0d78 3E50 0000 		add	#progBi-20000, r14
 2907 0d7c 2E4E      		mov	@r14, r14 
 2908               	.LVL164:
 2909               	.L396:
 2910               	.LM479:
 2911 0d7e 1F53      		add	#1, r15
 2912 0d80 824F 0000 		mov	r15, &progCounter 
 2913 0d84 3F40 0000 		mov	#mathStack+26, r15 
 2914               	.L397:
 2915               	.LBB342:
 2916               	.LBB343:
 2917               	.LM480:
 2918 0d88 AF4F 0200 		mov	@r15, 2(r15) 
 2919 0d8c 2F83      		sub	#2, r15
 2920               	.LM481:
 2921 0d8e 3F90 0000 		cmp	#mathStack-2, r15
 2922 0d92 FA23      		jne	.L397
 2923               	.LBE343:
 2924               	.LBE342:
 2925               	.LBE341:
 2926               	.LBE340:
 2927               	.LBB345:
 2928               	.LBB348:
 2929               	.LM482:
 2930 0d94 824E 0000 		mov	r14, &mathStack 
 2931               	.LVL165:
 2932               	.LBE348:
 2933               	.LBE345:
 2934               	.LM483:
GAS LISTING /tmp/ccvQL2RB.s 			page 53


 2935 0d98 793F      		jmp	.L451
 2936               	.LVL166:
 2937               	.L335:
 2938               	.LM484:
 2939 0d9a B012 0000 		call	#luFunc
 2940               	.LVL167:
 2941               	.LM485:
 2942 0d9e 763F      		jmp	.L451
 2943               	.LVL168:
 2944               	.L334:
 2945               	.LM486:
 2946 0da0 B012 0000 		call	#execFunc
 2947               	.LVL169:
 2948               	.LM487:
 2949 0da4 733F      		jmp	.L451
 2950               	.LVL170:
 2951               	.L333:
 2952               	.LM488:
 2953 0da6 5F43      		mov.b	#1, r15
 2954               	.LVL171:
 2955 0da8 B012 0000 		call	#ifFunc
 2956               	.LM489:
 2957 0dac 6F3F      		jmp	.L451
 2958               	.LVL172:
 2959               	.L332:
 2960               	.LM490:
 2961 0dae 3F40 0000 		mov	#mathStack+26, r15 
 2962               	.LVL173:
 2963               	.L394:
 2964               	.LBB352:
 2965               	.LBB354:
 2966               	.LM491:
 2967 0db2 AF4F 0200 		mov	@r15, 2(r15) 
 2968 0db6 2F83      		sub	#2, r15
 2969               	.LM492:
 2970 0db8 3F90 0000 		cmp	#mathStack-2, r15
 2971 0dbc FA23      		jne	.L394
 2972               	.LVL174:
 2973               	.L531:
 2974               	.LM493:
 2975 0dbe 8243 0000 		mov	#0, &mathStack 
 2976               	.LBE354:
 2977               	.LBE352:
 2978               	.LM494:
 2979 0dc2 643F      		jmp	.L451
 2980               	.LVL175:
 2981               	.L331:
 2982               	.LM495:
 2983 0dc4 B012 0000 		call	#numFunc
 2984               	.LVL176:
 2985               	.LM496:
 2986 0dc8 613F      		jmp	.L451
 2987               	.LVL177:
 2988               	.L330:
 2989               	.LBB356:
 2990               	.LBB357:
 2991               	.LM497:
GAS LISTING /tmp/ccvQL2RB.s 			page 54


 2992 0dca 1F42 0000 		mov	&mathStack, r15 
 2993               	.LVL178:
 2994 0dce 3E40 0000 		mov	#mathStack+2, r14 
 2995               	.L393:
 2996               	.LM498:
 2997 0dd2 AE4E FEFF 		mov	@r14, -2(r14) 
 2998 0dd6 2E53      		add	#2, r14
 2999               	.LM499:
 3000 0dd8 3E90 0000 		cmp	#mathStack+32, r14
 3001 0ddc FA23      		jne	.L393
 3002               	.LBE357:
 3003               	.LBE356:
 3004               	.LM500:
 3005 0dde B012 0000 		call	#printHexWord
 3006               	.LVL179:
 3007               	.LM501:
 3008 0de2 543F      		jmp	.L451
 3009               	.LVL180:
 3010               	.L329:
 3011               	.LM502:
 3012 0de4 3F40 0000 		mov	#buckets, r15 
 3013               	.LVL181:
 3014               	.L392:
 3015               	.LM503:
 3016 0de8 8F43 0000 		mov	#0, @r15 
 3017 0dec 2F53      		add	#2, r15
 3018               	.LM504:
 3019 0dee 3F90 0000 		cmp	#buckets+512, r15
 3020 0df2 FA23      		jne	.L392
 3021 0df4 4B3F      		jmp	.L451
 3022               	.LVL182:
 3023               	.L328:
 3024               	.LBB358:
 3025               	.LBB359:
 3026               	.LM505:
 3027 0df6 1E42 0000 		mov	&addrStackPtr, r14 
 3028 0dfa 0F4E      		mov	r14, r15 
 3029               	.LVL183:
 3030 0dfc 0F5F      		rla	r15
 3031 0dfe 1C4F 0000 		mov	addrStack(r15), r12 
 3032               	.LVL184:
 3033               	.LM506:
 3034 0e02 0F4E      		mov	r14, r15 
 3035 0e04 1F53      		add	#1, r15
 3036 0e06 824F 0000 		mov	r15, &addrStackPtr 
 3037               	.LBE359:
 3038               	.LBE358:
 3039               	.LBB360:
 3040               	.LBB361:
 3041               	.LM507:
 3042 0e0a 1D42 0000 		mov	&mathStack, r13 
 3043               	.LVL185:
 3044 0e0e 3F40 0000 		mov	#mathStack+2, r15 
 3045               	.L391:
 3046               	.LM508:
 3047 0e12 AF4F FEFF 		mov	@r15, -2(r15) 
 3048 0e16 2F53      		add	#2, r15
GAS LISTING /tmp/ccvQL2RB.s 			page 55


 3049               	.LM509:
 3050 0e18 3F90 0000 		cmp	#mathStack+32, r15
 3051 0e1c FA23      		jne	.L391
 3052               	.LBE361:
 3053               	.LBE360:
 3054               	.LM510:
 3055 0e1e 0D93      		cmp	#0, r13
 3056 0e20 3523      		jne	.L451
 3057               	.LM511:
 3058 0e22 824E 0000 		mov	r14, &addrStackPtr 
 3059               	.LM512:
 3060 0e26 824C 0000 		mov	r12, &progCounter 
 3061 0e2a 303F      		jmp	.L451
 3062               	.LVL186:
 3063               	.L327:
 3064               	.LBB362:
 3065               	.LBB363:
 3066               	.LM513:
 3067 0e2c 1F42 0000 		mov	&addrStackPtr, r15 
 3068               	.LVL187:
 3069 0e30 3F53      		add	#llo(-1), r15
 3070 0e32 824F 0000 		mov	r15, &addrStackPtr 
 3071               	.LM514:
 3072 0e36 0F5F      		rla	r15
 3073 0e38 9F42 0000 		mov	&progCounter, addrStack(r15) 
 3073      0000 
 3074 0e3e 263F      		jmp	.L451
 3075               	.LVL188:
 3076               	.L306:
 3077               	.LBE363:
 3078               	.LBE362:
 3079               	.LM515:
 3080 0e40 1E42 0000 		mov	&mathStack, r14 
 3081 0e44 1E52 0000 		add	&mathStack+2, r14
 3082 0e48 824E 0000 		mov	r14, &mathStack+2 
 3083 0e4c 3F40 0000 		mov	#mathStack, r15 
 3084               	.LVL189:
 3085 0e50 023C      		jmp	.L369
 3086               	.L542:
 3087               	.LBB364:
 3088               	.LBB365:
 3089               	.LM516:
 3090 0e52 1E4F 0200 		mov	2(r15), r14 
 3091               	.L369:
 3092               	.LM517:
 3093 0e56 8F4E 0000 		mov	r14, @r15 
 3094 0e5a 2F53      		add	#2, r15
 3095               	.LM518:
 3096 0e5c 3F90 0000 		cmp	#mathStack+30, r15
 3097 0e60 F823      		jne	.L542
 3098 0e62 143F      		jmp	.L451
 3099               	.LVL190:
 3100               	.L354:
 3101               	.LBE365:
 3102               	.LBE364:
 3103               	.LBB366:
 3104               	.LBB367:
GAS LISTING /tmp/ccvQL2RB.s 			page 56


 3105               	.LM519:
 3106 0e64 1D42 0000 		mov	&outputRingPtrXin, r13 
 3107               	.LM520:
 3108 0e68 1E42 0000 		mov	&outputRingPtrXout, r14 
 3109 0e6c 1F42 0000 		mov	&outputRingPtrXin, r15 
 3110               	.LVL191:
 3111 0e70 0E9F      		cmp	r15, r14
 3112 0e72 0724      		jeq	.L421
 3113               	.L461:
 3114               	.LM521:
 3115               	/* #APP */
 3116               	 ;  500 "x.c" 1
 3117 0e74 32D2      		eint
 3118               	 ;  0 "" 2
 3119               	.LM522:
 3120               	/* #NOAPP */
 3121 0e76 1E42 0000 		mov	&outputRingPtrXout, r14 
 3122 0e7a 1F42 0000 		mov	&outputRingPtrXin, r15 
 3123 0e7e 0E9F      		cmp	r15, r14
 3124 0e80 F923      		jne	.L461
 3125               	.L421:
 3126               	.LM523:
 3127 0e82 1F42 0000 		mov	&outputRingPtrXin, r15 
 3128 0e86 0F5F      		rla	r15
 3129 0e88 BF40 0D00 		mov	#13, outputRing(r15) 
 3129      0000 
 3130               	.LM524:
 3131 0e8e 4F4D      		mov.b	r13, r15
 3132 0e90 5F53      		add.b	#1, r15
 3133               	.LM525:
 3134 0e92 0E4F      		mov	r15, r14 
 3135 0e94 3EF0 0F00 		and	#15, r14
 3136 0e98 824E 0000 		mov	r14, &outputRingPtrXin 
 3137               	.LBE367:
 3138               	.LBE366:
 3139               	.LBB368:
 3140               	.LBB369:
 3141               	.LM526:
 3142 0e9c 1D42 0000 		mov	&outputRingPtrXin, r13 
 3143               	.LM527:
 3144 0ea0 1E42 0000 		mov	&outputRingPtrXout, r14 
 3145 0ea4 1F42 0000 		mov	&outputRingPtrXin, r15 
 3146 0ea8 0E9F      		cmp	r15, r14
 3147 0eaa 0724      		jeq	.L423
 3148               	.L460:
 3149               	.LM528:
 3150               	/* #APP */
 3151               	 ;  500 "x.c" 1
 3152 0eac 32D2      		eint
 3153               	 ;  0 "" 2
 3154               	.LM529:
 3155               	/* #NOAPP */
 3156 0eae 1E42 0000 		mov	&outputRingPtrXout, r14 
 3157 0eb2 1F42 0000 		mov	&outputRingPtrXin, r15 
 3158 0eb6 0E9F      		cmp	r15, r14
 3159 0eb8 F923      		jne	.L460
 3160               	.L423:
GAS LISTING /tmp/ccvQL2RB.s 			page 57


 3161               	.LM530:
 3162 0eba 1F42 0000 		mov	&outputRingPtrXin, r15 
 3163 0ebe 0F5F      		rla	r15
 3164 0ec0 BF40 0A00 		mov	#10, outputRing(r15) 
 3164      0000 
 3165               	.LVL192:
 3166               	.L536:
 3167               	.LM531:
 3168 0ec6 4F4D      		mov.b	r13, r15
 3169 0ec8 5F53      		add.b	#1, r15
 3170               	.LM532:
 3171 0eca 0E4F      		mov	r15, r14 
 3172 0ecc 3EF0 0F00 		and	#15, r14
 3173 0ed0 824E 0000 		mov	r14, &outputRingPtrXin 
 3174               	.LBE369:
 3175               	.LBE368:
 3176               	.LM533:
 3177 0ed4 DB3E      		jmp	.L451
 3178               	.LVL193:
 3179               	.L357:
 3180               	.LM534:
 3181 0ed6 3F40 0000 		mov	#mathStack+26, r15 
 3182               	.LVL194:
 3183               	.L426:
 3184               	.LBB370:
 3185               	.LBB371:
 3186               	.LM535:
 3187 0eda AF4F 0200 		mov	@r15, 2(r15) 
 3188 0ede 2F83      		sub	#2, r15
 3189               	.LM536:
 3190 0ee0 3F90 0000 		cmp	#mathStack-2, r15
 3191 0ee4 FA23      		jne	.L426
 3192               	.LM537:
 3193 0ee6 3F40 0000 		mov	#fastTimer, r15 
 3194 0eea 0F11      		rra	r15
 3195 0eec 824F 0000 		mov	r15, &mathStack 
 3196               	.LBE371:
 3197               	.LBE370:
 3198               	.LM538:
 3199 0ef0 CD3E      		jmp	.L451
 3200               	.LVL195:
 3201               	.L356:
 3202               	.LM539:
 3203 0ef2 3F40 0000 		mov	#buckets, r15 
 3204               	.LVL196:
 3205               	.L425:
 3206               	.LM540:
 3207 0ef6 8F43 0000 		mov	#0, @r15 
 3208 0efa 2F53      		add	#2, r15
 3209               	.LM541:
 3210 0efc 3F90 0000 		cmp	#buckets+520, r15
 3211 0f00 FA23      		jne	.L425
 3212 0f02 C43E      		jmp	.L451
 3213               	.LVL197:
 3214               	.L361:
 3215               	.LM542:
 3216 0f04 1F42 0000 		mov	&fecShadow+4, r15 
GAS LISTING /tmp/ccvQL2RB.s 			page 58


 3217               	.LVL198:
 3218 0f08 B012 0000 		call	#printHexWord
 3219               	.LBB372:
 3220               	.LBB373:
 3221               	.LM543:
 3222 0f0c 1D42 0000 		mov	&outputRingPtrXin, r13 
 3223               	.LM544:
 3224 0f10 1E42 0000 		mov	&outputRingPtrXout, r14 
 3225 0f14 1F42 0000 		mov	&outputRingPtrXin, r15 
 3226 0f18 0E9F      		cmp	r15, r14
 3227 0f1a 0724      		jeq	.L439
 3228               	.L467:
 3229               	.LM545:
 3230               	/* #APP */
 3231               	 ;  500 "x.c" 1
 3232 0f1c 32D2      		eint
 3233               	 ;  0 "" 2
 3234               	.LM546:
 3235               	/* #NOAPP */
 3236 0f1e 1E42 0000 		mov	&outputRingPtrXout, r14 
 3237 0f22 1F42 0000 		mov	&outputRingPtrXin, r15 
 3238 0f26 0E9F      		cmp	r15, r14
 3239 0f28 F923      		jne	.L467
 3240               	.L439:
 3241               	.LM547:
 3242 0f2a 1F42 0000 		mov	&outputRingPtrXin, r15 
 3243 0f2e 0F5F      		rla	r15
 3244 0f30 BF40 2000 		mov	#32, outputRing(r15) 
 3244      0000 
 3245               	.LM548:
 3246 0f36 4F4D      		mov.b	r13, r15
 3247 0f38 5F53      		add.b	#1, r15
 3248               	.LM549:
 3249 0f3a 0E4F      		mov	r15, r14 
 3250 0f3c 3EF0 0F00 		and	#15, r14
 3251 0f40 824E 0000 		mov	r14, &outputRingPtrXin 
 3252               	.LBE373:
 3253               	.LBE372:
 3254               	.LM550:
 3255 0f44 1F42 0000 		mov	&fecShadow+2, r15 
 3256 0f48 B012 0000 		call	#printHexWord
 3257               	.LBB374:
 3258               	.LBB375:
 3259               	.LM551:
 3260 0f4c 1D42 0000 		mov	&outputRingPtrXin, r13 
 3261               	.LM552:
 3262 0f50 1E42 0000 		mov	&outputRingPtrXout, r14 
 3263 0f54 1F42 0000 		mov	&outputRingPtrXin, r15 
 3264 0f58 0E9F      		cmp	r15, r14
 3265 0f5a 0724      		jeq	.L441
 3266               	.L466:
 3267               	.LM553:
 3268               	/* #APP */
 3269               	 ;  500 "x.c" 1
 3270 0f5c 32D2      		eint
 3271               	 ;  0 "" 2
 3272               	.LM554:
GAS LISTING /tmp/ccvQL2RB.s 			page 59


 3273               	/* #NOAPP */
 3274 0f5e 1E42 0000 		mov	&outputRingPtrXout, r14 
 3275 0f62 1F42 0000 		mov	&outputRingPtrXin, r15 
 3276 0f66 0E9F      		cmp	r15, r14
 3277 0f68 F923      		jne	.L466
 3278               	.L441:
 3279               	.LM555:
 3280 0f6a 1F42 0000 		mov	&outputRingPtrXin, r15 
 3281 0f6e 0F5F      		rla	r15
 3282 0f70 BF40 2000 		mov	#32, outputRing(r15) 
 3282      0000 
 3283               	.LM556:
 3284 0f76 4F4D      		mov.b	r13, r15
 3285 0f78 5F53      		add.b	#1, r15
 3286               	.LM557:
 3287 0f7a 0E4F      		mov	r15, r14 
 3288 0f7c 3EF0 0F00 		and	#15, r14
 3289 0f80 824E 0000 		mov	r14, &outputRingPtrXin 
 3290               	.LBE375:
 3291               	.LBE374:
 3292               	.LM558:
 3293 0f84 1F42 0000 		mov	&fecShadow, r15 
 3294 0f88 B012 0000 		call	#printHexWord
 3295 0f8c 7F3E      		jmp	.L451
 3296               	.LVL199:
 3297               	.L360:
 3298               	.LM559:
 3299 0f8e 3B40 0000 		mov	#buckets, r11 
 3300 0f92 0A43      		mov	#0, r10 
 3301               	.LVL200:
 3302 0f94 053C      		jmp	.L438
 3303               	.L431:
 3304               	.LM560:
 3305 0f96 1A53      		add	#1, r10
 3306 0f98 2B53      		add	#2, r11
 3307 0f9a 3A90 0001 		cmp	#256, r10
 3308 0f9e 7626      		jeq	.L451
 3309               	.L438:
 3310               	.LM561:
 3311 0fa0 8B93 0000 		cmp	#0, @r11
 3312 0fa4 F827      		jeq	.L431
 3313               	.LM562:
 3314 0fa6 0F4A      		mov	r10, r15 
 3315               	.LVL201:
 3316 0fa8 B012 0000 		call	#printHexByte
 3317               	.LBB376:
 3318               	.LBB377:
 3319               	.LM563:
 3320 0fac 1F42 0000 		mov	&outputRingPtrXin, r15 
 3321               	.LM564:
 3322 0fb0 1D42 0000 		mov	&outputRingPtrXout, r13 
 3323 0fb4 1E42 0000 		mov	&outputRingPtrXin, r14 
 3324 0fb8 0D9E      		cmp	r14, r13
 3325 0fba 0724      		jeq	.L432
 3326               	.L465:
 3327               	.LM565:
 3328               	/* #APP */
GAS LISTING /tmp/ccvQL2RB.s 			page 60


 3329               	 ;  500 "x.c" 1
 3330 0fbc 32D2      		eint
 3331               	 ;  0 "" 2
 3332               	.LM566:
 3333               	/* #NOAPP */
 3334 0fbe 1D42 0000 		mov	&outputRingPtrXout, r13 
 3335 0fc2 1E42 0000 		mov	&outputRingPtrXin, r14 
 3336 0fc6 0D9E      		cmp	r14, r13
 3337 0fc8 F923      		jne	.L465
 3338               	.L432:
 3339               	.LM567:
 3340 0fca 1E42 0000 		mov	&outputRingPtrXin, r14 
 3341 0fce 0E5E      		rla	r14
 3342 0fd0 BE40 2000 		mov	#32, outputRing(r14) 
 3342      0000 
 3343               	.LM568:
 3344 0fd6 5F53      		add.b	#1, r15
 3345               	.LM569:
 3346 0fd8 0E4F      		mov	r15, r14 
 3347 0fda 3EF0 0F00 		and	#15, r14
 3348 0fde 824E 0000 		mov	r14, &outputRingPtrXin 
 3349               	.LBE377:
 3350               	.LBE376:
 3351               	.LM570:
 3352 0fe2 2F4B      		mov	@r11, r15 
 3353 0fe4 B012 0000 		call	#printHexWord
 3354               	.LBB378:
 3355               	.LBB379:
 3356               	.LM571:
 3357 0fe8 1F42 0000 		mov	&outputRingPtrXin, r15 
 3358               	.LM572:
 3359 0fec 1D42 0000 		mov	&outputRingPtrXout, r13 
 3360 0ff0 1E42 0000 		mov	&outputRingPtrXin, r14 
 3361 0ff4 0D9E      		cmp	r14, r13
 3362 0ff6 0724      		jeq	.L434
 3363               	.L464:
 3364               	.LM573:
 3365               	/* #APP */
 3366               	 ;  500 "x.c" 1
 3367 0ff8 32D2      		eint
 3368               	 ;  0 "" 2
 3369               	.LM574:
 3370               	/* #NOAPP */
 3371 0ffa 1D42 0000 		mov	&outputRingPtrXout, r13 
 3372 0ffe 1E42 0000 		mov	&outputRingPtrXin, r14 
 3373 1002 0D9E      		cmp	r14, r13
 3374 1004 F923      		jne	.L464
 3375               	.L434:
 3376               	.LM575:
 3377 1006 1E42 0000 		mov	&outputRingPtrXin, r14 
 3378 100a 0E5E      		rla	r14
 3379 100c BE40 0D00 		mov	#13, outputRing(r14) 
 3379      0000 
 3380               	.LM576:
 3381 1012 5F53      		add.b	#1, r15
 3382               	.LM577:
 3383 1014 0E4F      		mov	r15, r14 
GAS LISTING /tmp/ccvQL2RB.s 			page 61


 3384 1016 3EF0 0F00 		and	#15, r14
 3385 101a 824E 0000 		mov	r14, &outputRingPtrXin 
 3386               	.LBE379:
 3387               	.LBE378:
 3388               	.LBB380:
 3389               	.LBB381:
 3390               	.LM578:
 3391 101e 1F42 0000 		mov	&outputRingPtrXin, r15 
 3392               	.LM579:
 3393 1022 1D42 0000 		mov	&outputRingPtrXout, r13 
 3394 1026 1E42 0000 		mov	&outputRingPtrXin, r14 
 3395 102a 0D9E      		cmp	r14, r13
 3396 102c 0724      		jeq	.L436
 3397               	.L463:
 3398               	.LM580:
 3399               	/* #APP */
 3400               	 ;  500 "x.c" 1
 3401 102e 32D2      		eint
 3402               	 ;  0 "" 2
 3403               	.LM581:
 3404               	/* #NOAPP */
 3405 1030 1D42 0000 		mov	&outputRingPtrXout, r13 
 3406 1034 1E42 0000 		mov	&outputRingPtrXin, r14 
 3407 1038 0D9E      		cmp	r14, r13
 3408 103a F923      		jne	.L463
 3409               	.L436:
 3410               	.LM582:
 3411 103c 1E42 0000 		mov	&outputRingPtrXin, r14 
 3412 1040 0E5E      		rla	r14
 3413 1042 BE40 0A00 		mov	#10, outputRing(r14) 
 3413      0000 
 3414               	.LM583:
 3415 1048 5F53      		add.b	#1, r15
 3416               	.LM584:
 3417 104a 0E4F      		mov	r15, r14 
 3418 104c 3EF0 0F00 		and	#15, r14
 3419 1050 824E 0000 		mov	r14, &outputRingPtrXin 
 3420 1054 A03F      		jmp	.L431
 3421               	.LVL202:
 3422               	.L344:
 3423               	.LBE381:
 3424               	.LBE380:
 3425               	.LM585:
 3426 1056 1E42 0000 		mov	&progPtr, r14 
 3427 105a 3F40 0000 		mov	#mathStack+26, r15 
 3428               	.LVL203:
 3429               	.L410:
 3430               	.LBB382:
 3431               	.LBB383:
 3432               	.LM586:
 3433 105e AF4F 0200 		mov	@r15, 2(r15) 
 3434 1062 2F83      		sub	#2, r15
 3435               	.LM587:
 3436 1064 3F90 0000 		cmp	#mathStack-2, r15
 3437 1068 FA23      		jne	.L410
 3438               	.LBE383:
 3439               	.LBE382:
GAS LISTING /tmp/ccvQL2RB.s 			page 62


 3440               	.LBB384:
 3441               	.LBB349:
 3442               	.LM588:
 3443 106a 824E 0000 		mov	r14, &mathStack 
 3444               	.LVL204:
 3445 106e 3040 0000 		br	#.L451
 3446               	.LVL205:
 3447               	.L343:
 3448               	.LBE349:
 3449               	.LBE384:
 3450               	.LBB385:
 3451               	.LBB386:
 3452               	.LM589:
 3453 1072 1C42 0000 		mov	&mathStack, r12 
 3454               	.LVL206:
 3455 1076 3F40 0000 		mov	#mathStack+2, r15 
 3456               	.LVL207:
 3457               	.LM590:
 3458 107a 0D4F      		mov	r15, r13 
 3459 107c 3D50 1E00 		add	#30, r13
 3460 1080 0E4F      		mov	r15, r14 
 3461               	.L408:
 3462               	.LM591:
 3463 1082 AE4E FEFF 		mov	@r14, -2(r14) 
 3464 1086 2E53      		add	#2, r14
 3465               	.LM592:
 3466 1088 3E90 0000 		cmp	#mathStack+32, r14
 3467 108c FA23      		jne	.L408
 3468               	.LBE386:
 3469               	.LBE385:
 3470               	.LBB387:
 3471               	.LBB388:
 3472               	.LM593:
 3473 108e 1E42 0000 		mov	&mathStack, r14 
 3474               	.LVL208:
 3475               	.L409:
 3476               	.LM594:
 3477 1092 AF4F FEFF 		mov	@r15, -2(r15) 
 3478 1096 2F53      		add	#2, r15
 3479               	.LM595:
 3480 1098 0D9F      		cmp	r15, r13
 3481 109a FB23      		jne	.L409
 3482               	.LBE388:
 3483               	.LBE387:
 3484               	.LM596:
 3485 109c 0F4C      		mov	r12, r15 
 3486 109e 1FC3      		bic	#1,r15
 3487               	.LVL209:
 3488 10a0 1F52 0000 		add	&dirMemory, r15
 3489               	.LVL210:
 3490 10a4 8F4E 0000 		mov	r14, @r15 
 3491               	.LM597:
 3492 10a8 3040 0000 		br	#.L451
 3493               	.LVL211:
 3494               	.L342:
 3495               	.LBB389:
 3496               	.LBB390:
GAS LISTING /tmp/ccvQL2RB.s 			page 63


 3497               	.LM598:
 3498 10ac 1E42 0000 		mov	&mathStack, r14 
 3499               	.LVL212:
 3500 10b0 3F40 0000 		mov	#mathStack+2, r15 
 3501               	.LVL213:
 3502               	.L406:
 3503               	.LM599:
 3504 10b4 AF4F FEFF 		mov	@r15, -2(r15) 
 3505 10b8 2F53      		add	#2, r15
 3506               	.LM600:
 3507 10ba 3F90 0000 		cmp	#mathStack+32, r15
 3508 10be FA23      		jne	.L406
 3509               	.LBE390:
 3510               	.LBE389:
 3511               	.LM601:
 3512 10c0 1EC3      		bic	#1,r14
 3513               	.LVL214:
 3514 10c2 1E52 0000 		add	&dirMemory, r14
 3515               	.LVL215:
 3516 10c6 2E4E      		mov	@r14, r14 
 3517               	.LVL216:
 3518 10c8 3F50 FAFF 		add	#llo(-6), r15
 3519               	.L407:
 3520               	.LBB391:
 3521               	.LBB392:
 3522               	.LM602:
 3523 10cc AF4F 0200 		mov	@r15, 2(r15) 
 3524 10d0 2F83      		sub	#2, r15
 3525               	.LM603:
 3526 10d2 3F90 0000 		cmp	#mathStack-2, r15
 3527 10d6 FA23      		jne	.L407
 3528               	.LBE392:
 3529               	.LBE391:
 3530               	.LBB393:
 3531               	.LBB347:
 3532               	.LM604:
 3533 10d8 824E 0000 		mov	r14, &mathStack 
 3534 10dc 3040 0000 		br	#.L451
 3535               	.LVL217:
 3536               	.L341:
 3537               	.LBE347:
 3538               	.LBE393:
 3539               	.LBB394:
 3540               	.LBB395:
 3541               	.LM605:
 3542 10e0 1E42 0000 		mov	&addrStackPtr, r14 
 3543 10e4 0F4E      		mov	r14, r15 
 3544               	.LVL218:
 3545 10e6 0F5F      		rla	r15
 3546               	.LM606:
 3547 10e8 1E53      		add	#1, r14
 3548 10ea 824E 0000 		mov	r14, &addrStackPtr 
 3549               	.LBE395:
 3550               	.LBE394:
 3551               	.LM607:
 3552 10ee 924F 0000 		mov	addrStack(r15), &progCounter 
 3552      0000 
GAS LISTING /tmp/ccvQL2RB.s 			page 64


 3553               	.LM608:
 3554 10f4 3040 0000 		br	#.L451
 3555               	.LVL219:
 3556               	.L340:
 3557               	.LBB396:
 3558               	.LBB397:
 3559               	.LM609:
 3560 10f8 1C42 0000 		mov	&mathStack, r12 
 3561               	.LVL220:
 3562 10fc 3F40 0000 		mov	#mathStack+2, r15 
 3563               	.LVL221:
 3564               	.L403:
 3565               	.LM610:
 3566 1100 AF4F FEFF 		mov	@r15, -2(r15) 
 3567 1104 2F53      		add	#2, r15
 3568               	.LM611:
 3569 1106 3F90 0000 		cmp	#mathStack+32, r15
 3570 110a FA23      		jne	.L403
 3571               	.LBE397:
 3572               	.LBE396:
 3573               	.LBB398:
 3574               	.LBB399:
 3575               	.LM612:
 3576 110c 1D42 0000 		mov	&outputRingPtrXin, r13 
 3577               	.LM613:
 3578 1110 1E42 0000 		mov	&outputRingPtrXout, r14 
 3579 1114 1F42 0000 		mov	&outputRingPtrXin, r15 
 3580 1118 0E9F      		cmp	r15, r14
 3581 111a 0724      		jeq	.L404
 3582               	.L457:
 3583               	.LM614:
 3584               	/* #APP */
 3585               	 ;  500 "x.c" 1
 3586 111c 32D2      		eint
 3587               	 ;  0 "" 2
 3588               	.LM615:
 3589               	/* #NOAPP */
 3590 111e 1E42 0000 		mov	&outputRingPtrXout, r14 
 3591 1122 1F42 0000 		mov	&outputRingPtrXin, r15 
 3592 1126 0E9F      		cmp	r15, r14
 3593 1128 F923      		jne	.L457
 3594               	.L404:
 3595               	.LM616:
 3596 112a 1F42 0000 		mov	&outputRingPtrXin, r15 
 3597 112e 0F5F      		rla	r15
 3598 1130 CF4C 0000 		mov.b	r12, outputRing(r15)
 3599 1134 CF43 0000 		clr.b	outputRing+1(r15)
 3600 1138 C63E      		jmp	.L536
 3601               	.LVL222:
 3602               	.L339:
 3603               	.LBE399:
 3604               	.LBE398:
 3605               	.LBB400:
 3606               	.LBB401:
 3607               	.LM617:
 3608 113a 5C42 0000 		mov.b	&wordBuffer, r12
 3609 113e 4C93      		cmp.b	#0, r12
GAS LISTING /tmp/ccvQL2RB.s 			page 65


 3610 1140 0220      		jne	+4
 3611 1142 3040 0000 		br	#.L451
 3612               	.LBE401:
 3613               	.LBE400:
 3614               	.LM618:
 3615 1146 3D40 0000 		mov	#wordBuffer, r13 
 3616               	.LVL223:
 3617               	.L402:
 3618               	.LBB405:
 3619               	.LBB404:
 3620               	.LBB402:
 3621               	.LBB403:
 3622               	.LM619:
 3623 114a 1B42 0000 		mov	&outputRingPtrXin, r11 
 3624               	.LM620:
 3625 114e 1E42 0000 		mov	&outputRingPtrXout, r14 
 3626 1152 1F42 0000 		mov	&outputRingPtrXin, r15 
 3627               	.LVL224:
 3628 1156 0E9F      		cmp	r15, r14
 3629 1158 0724      		jeq	.L400
 3630               	.L456:
 3631               	.LM621:
 3632               	/* #APP */
 3633               	 ;  500 "x.c" 1
 3634 115a 32D2      		eint
 3635               	 ;  0 "" 2
 3636               	.LM622:
 3637               	/* #NOAPP */
 3638 115c 1E42 0000 		mov	&outputRingPtrXout, r14 
 3639 1160 1F42 0000 		mov	&outputRingPtrXin, r15 
 3640 1164 0E9F      		cmp	r15, r14
 3641 1166 F923      		jne	.L456
 3642               	.L400:
 3643               	.LM623:
 3644 1168 1F42 0000 		mov	&outputRingPtrXin, r15 
 3645 116c 0F5F      		rla	r15
 3646 116e CF4C 0000 		mov.b	r12, outputRing(r15)
 3647 1172 CF43 0000 		clr.b	outputRing+1(r15)
 3648               	.LM624:
 3649 1176 4F4B      		mov.b	r11, r15
 3650 1178 5F53      		add.b	#1, r15
 3651               	.LM625:
 3652 117a 0E4F      		mov	r15, r14 
 3653 117c 3EF0 0F00 		and	#15, r14
 3654 1180 824E 0000 		mov	r14, &outputRingPtrXin 
 3655               	.LBE403:
 3656               	.LBE402:
 3657               	.LM626:
 3658 1184 1D53      		add	#1, r13
 3659               	.LM627:
 3660 1186 6C4D      		mov.b	@r13, r12
 3661 1188 4C93      		cmp.b	#0, r12
 3662 118a DF23      		jne	.L402
 3663 118c 3040 0000 		br	#.L451
 3664               	.LVL225:
 3665               	.L338:
 3666               	.LBE404:
GAS LISTING /tmp/ccvQL2RB.s 			page 66


 3667               	.LBE405:
 3668               	.LM628:
 3669 1190 3F40 0000 		mov	#mathStack+26, r15 
 3670               	.LVL226:
 3671               	.L399:
 3672               	.LBB406:
 3673               	.LBB408:
 3674               	.LM629:
 3675 1194 AF4F 0200 		mov	@r15, 2(r15) 
 3676 1198 2F83      		sub	#2, r15
 3677               	.LM630:
 3678 119a 3F90 0000 		cmp	#mathStack-2, r15
 3679 119e FA23      		jne	.L399
 3680               	.LVL227:
 3681               	.L532:
 3682               	.LM631:
 3683 11a0 9243 0000 		mov	#1, &mathStack 
 3684               	.LBE408:
 3685               	.LBE406:
 3686               	.LM632:
 3687 11a4 3040 0000 		br	#.L451
 3688               	.LVL228:
 3689               	.L337:
 3690               	.LBB410:
 3691               	.LBB411:
 3692               	.LM633:
 3693 11a8 1E42 0000 		mov	&mathStack+2, r14 
 3694               	.LVL229:
 3695 11ac 3F40 0000 		mov	#mathStack+26, r15 
 3696               	.LVL230:
 3697               	.L398:
 3698               	.LBB412:
 3699               	.LBB413:
 3700               	.LM634:
 3701 11b0 AF4F 0200 		mov	@r15, 2(r15) 
 3702 11b4 2F83      		sub	#2, r15
 3703               	.LM635:
 3704 11b6 3F90 0000 		cmp	#mathStack-2, r15
 3705 11ba FA23      		jne	.L398
 3706               	.LBE413:
 3707               	.LBE412:
 3708               	.LBE411:
 3709               	.LBE410:
 3710               	.LBB414:
 3711               	.LBB350:
 3712               	.LM636:
 3713 11bc 824E 0000 		mov	r14, &mathStack 
 3714               	.LVL231:
 3715 11c0 3040 0000 		br	#.L451
 3716               	.LVL232:
 3717               	.L364:
 3718               	.LBE350:
 3719               	.LBE414:
 3720               	.LBB415:
 3721               	.LBB416:
 3722               	.LM637:
 3723 11c4 1E42 0000 		mov	&mathStack, r14 
GAS LISTING /tmp/ccvQL2RB.s 			page 67


 3724               	.LVL233:
 3725 11c8 3F40 0000 		mov	#mathStack+2, r15 
 3726               	.LVL234:
 3727               	.L447:
 3728               	.LM638:
 3729 11cc AF4F FEFF 		mov	@r15, -2(r15) 
 3730 11d0 2F53      		add	#2, r15
 3731               	.LM639:
 3732 11d2 3F90 0000 		cmp	#mathStack+32, r15
 3733 11d6 FA23      		jne	.L447
 3734               	.LBE416:
 3735               	.LBE415:
 3736               	.LM640:
 3737 11d8 3E90 3000 		cmp	#48, r14
 3738 11dc 0228      		jlo	+4
 3739 11de 3040 0000 		br	#.L451
 3740               	.LM641:
 3741 11e2 0F4E      		mov	r14, r15 
 3742               	.LVL235:
 3743 11e4 0F11      		rra	r15
 3744 11e6 0F11      		rra	r15
 3745 11e8 0F11      		rra	r15
 3746               	.LM642:
 3747 11ea 1FC3      		bic	#1,r15
 3748 11ec 1D43      		mov	#1, r13 
 3749 11ee 3EF0 0F00 		and	#15, r14
 3750               	.LVL236:
 3751 11f2 0E93      		tst	r14
 3752 11f4 0324      		jz	.Lsend3030
 3753               	.Lsst3030:
 3754 11f6 0D5D      		rla	r13
 3755 11f8 1E83      		dec	r14
 3756 11fa FD23      		jnz	.Lsst3030
 3757               	.Lsend3030:
 3758               	.LVL237:
 3759 11fc 8FCD 0000 		bic r13, fecShadow(r15)
 3760 1200 3040 0000 		br	#.L451
 3761               	.LVL238:
 3762               	.L347:
 3763               	.LM643:
 3764 1204 1F42 0000 		mov	&addrStackPtr, r15 
 3765               	.LVL239:
 3766 1208 0F5F      		rla	r15
 3767 120a 3F50 0000 		add	#addrStack+2, r15
 3768 120e 2E4F      		mov	@r15, r14 
 3769               	.LVL240:
 3770 1210 3F40 0000 		mov	#mathStack+26, r15 
 3771               	.L413:
 3772               	.LBB417:
 3773               	.LBB346:
 3774               	.LM644:
 3775 1214 AF4F 0200 		mov	@r15, 2(r15) 
 3776 1218 2F83      		sub	#2, r15
 3777               	.LM645:
 3778 121a 3F90 0000 		cmp	#mathStack-2, r15
 3779 121e FA23      		jne	.L413
 3780               	.LM646:
GAS LISTING /tmp/ccvQL2RB.s 			page 68


 3781 1220 824E 0000 		mov	r14, &mathStack 
 3782 1224 3040 0000 		br	#.L451
 3783               	.LVL241:
 3784               	.L346:
 3785               	.LBE346:
 3786               	.LBE417:
 3787               	.LBB418:
 3788               	.LBB419:
 3789               	.LM647:
 3790 1228 1B42 0000 		mov	&addrStackPtr, r11 
 3791 122c 0F4B      		mov	r11, r15 
 3792               	.LVL242:
 3793 122e 0F5F      		rla	r15
 3794 1230 3F50 0000 		add	#addrStack, r15
 3795 1234 284F      		mov	@r15, r8 
 3796               	.LVL243:
 3797               	.LM648:
 3798 1236 0A4B      		mov	r11, r10 
 3799 1238 1A53      		add	#1, r10
 3800               	.LBE419:
 3801               	.LBE418:
 3802               	.LBB420:
 3803               	.LBB421:
 3804               	.LM649:
 3805 123a 0E4A      		mov	r10, r14 
 3806 123c 0E5E      		rla	r14
 3807 123e 3E50 0000 		add	#addrStack, r14
 3808 1242 2C4E      		mov	@r14, r12 
 3809               	.LVL244:
 3810               	.LM650:
 3811 1244 1A53      		add	#1, r10
 3812               	.LBE421:
 3813               	.LBE420:
 3814               	.LBB422:
 3815               	.LBB423:
 3816               	.LM651:
 3817 1246 0D4A      		mov	r10, r13 
 3818 1248 0D5D      		rla	r13
 3819 124a 3D50 0000 		add	#addrStack, r13
 3820 124e 294D      		mov	@r13, r9 
 3821               	.LVL245:
 3822               	.LM652:
 3823 1250 1A53      		add	#1, r10
 3824 1252 824A 0000 		mov	r10, &addrStackPtr 
 3825               	.LBE423:
 3826               	.LBE422:
 3827               	.LM653:
 3828 1256 1C53      		add	#1, r12
 3829               	.LM654:
 3830 1258 0C99      		cmp	r9, r12
 3831 125a 0238      		jl	+4
 3832 125c 3040 0000 		br	#.L451
 3833               	.LBB424:
 3834               	.LBB425:
 3835               	.LM655:
 3836 1260 8E4C 0000 		mov	r12, @r14 
 3837               	.LBE425:
GAS LISTING /tmp/ccvQL2RB.s 			page 69


 3838               	.LBE424:
 3839               	.LBB426:
 3840               	.LBB427:
 3841               	.LM656:
 3842 1264 824B 0000 		mov	r11, &addrStackPtr 
 3843               	.LM657:
 3844 1268 8F48 0000 		mov	r8, @r15 
 3845               	.LBE427:
 3846               	.LBE426:
 3847               	.LM658:
 3848 126c 8248 0000 		mov	r8, &progCounter 
 3849 1270 3040 0000 		br	#.L451
 3850               	.LVL246:
 3851               	.L345:
 3852               	.LBB428:
 3853               	.LBB429:
 3854               	.LM659:
 3855 1274 1C42 0000 		mov	&mathStack, r12 
 3856               	.LVL247:
 3857 1278 3F40 0000 		mov	#mathStack+2, r15 
 3858               	.LVL248:
 3859               	.LM660:
 3860 127c 0D4F      		mov	r15, r13 
 3861 127e 3D50 1E00 		add	#30, r13
 3862 1282 0E4F      		mov	r15, r14 
 3863               	.L411:
 3864               	.LM661:
 3865 1284 AE4E FEFF 		mov	@r14, -2(r14) 
 3866 1288 2E53      		add	#2, r14
 3867               	.LM662:
 3868 128a 3E90 0000 		cmp	#mathStack+32, r14
 3869 128e FA23      		jne	.L411
 3870               	.LBE429:
 3871               	.LBE428:
 3872               	.LBB430:
 3873               	.LBB431:
 3874               	.LM663:
 3875 1290 1B42 0000 		mov	&mathStack, r11 
 3876               	.LVL249:
 3877               	.L412:
 3878               	.LM664:
 3879 1294 AF4F FEFF 		mov	@r15, -2(r15) 
 3880 1298 2F53      		add	#2, r15
 3881               	.LM665:
 3882 129a 0D9F      		cmp	r15, r13
 3883 129c FB23      		jne	.L412
 3884               	.LBE431:
 3885               	.LBE430:
 3886               	.LBB432:
 3887               	.LBB433:
 3888               	.LM666:
 3889 129e 1F42 0000 		mov	&addrStackPtr, r15 
 3890 12a2 3F53      		add	#llo(-1), r15
 3891               	.LM667:
 3892 12a4 0E4F      		mov	r15, r14 
 3893 12a6 0E5E      		rla	r14
 3894 12a8 8E4B 0000 		mov	r11, addrStack(r14) 
GAS LISTING /tmp/ccvQL2RB.s 			page 70


 3895               	.LBE433:
 3896               	.LBE432:
 3897               	.LBB434:
 3898               	.LBB435:
 3899 12ac 0E4F      		mov	r15, r14 
 3900 12ae 0E5E      		rla	r14
 3901 12b0 8E4C 0000 		mov	r12, addrStack+-2(r14) 
 3902               	.LBE435:
 3903               	.LBE434:
 3904               	.LBB436:
 3905               	.LBB437:
 3906               	.LM668:
 3907 12b4 2F83      		sub	#2, r15
 3908 12b6 824F 0000 		mov	r15, &addrStackPtr 
 3909               	.LM669:
 3910 12ba 0F5F      		rla	r15
 3911 12bc 9F42 0000 		mov	&progCounter, addrStack(r15) 
 3911      0000 
 3912               	.LBE437:
 3913               	.LBE436:
 3914               	.LM670:
 3915 12c2 3040 0000 		br	#.L451
 3916               	.LVL250:
 3917               	.L350:
 3918               	.LM671:
 3919 12c6 1E42 0000 		mov	&mathStack, r14 
 3920 12ca 1EF2 0000 		and	&mathStack+2, r14
 3921 12ce 824E 0000 		mov	r14, &mathStack+2 
 3922 12d2 3F40 0000 		mov	#mathStack, r15 
 3923               	.LVL251:
 3924 12d6 023C      		jmp	.L416
 3925               	.L543:
 3926               	.LBB438:
 3927               	.LBB439:
 3928               	.LM672:
 3929 12d8 1E4F 0200 		mov	2(r15), r14 
 3930               	.L416:
 3931               	.LM673:
 3932 12dc 8F4E 0000 		mov	r14, @r15 
 3933 12e0 2F53      		add	#2, r15
 3934               	.LM674:
 3935 12e2 3F90 0000 		cmp	#mathStack+30, r15
 3936 12e6 F823      		jne	.L543
 3937 12e8 3040 0000 		br	#.L451
 3938               	.LVL252:
 3939               	.L349:
 3940               	.LBE439:
 3941               	.LBE438:
 3942               	.LM675:
 3943 12ec 3F40 0000 		mov	#mathStack+2, r15 
 3944               	.LVL253:
 3945               	.LM676:
 3946 12f0 0D4F      		mov	r15, r13 
 3947 12f2 3D50 1E00 		add	#30, r13
 3948 12f6 0E4F      		mov	r15, r14 
 3949               	.L414:
 3950               	.LBB440:
GAS LISTING /tmp/ccvQL2RB.s 			page 71


 3951               	.LBB441:
 3952               	.LM677:
 3953 12f8 AE4E FEFF 		mov	@r14, -2(r14) 
 3954 12fc 2E53      		add	#2, r14
 3955               	.LM678:
 3956 12fe 3E90 0000 		cmp	#mathStack+32, r14
 3957 1302 FA23      		jne	.L414
 3958               	.L458:
 3959               	.LBE441:
 3960               	.LBE440:
 3961               	.LBB442:
 3962               	.LBB443:
 3963               	.LM679:
 3964 1304 AF4F FEFF 		mov	@r15, -2(r15) 
 3965 1308 2F53      		add	#2, r15
 3966               	.LM680:
 3967 130a 0D9F      		cmp	r15, r13
 3968 130c 0220      		jne	+4
 3969 130e 3040 0000 		br	#.L451
 3970               	.LM681:
 3971 1312 AF4F FEFF 		mov	@r15, -2(r15) 
 3972 1316 2F53      		add	#2, r15
 3973               	.LM682:
 3974 1318 0D9F      		cmp	r15, r13
 3975 131a F423      		jne	.L458
 3976 131c 3040 0000 		br	#.L451
 3977               	.LVL254:
 3978               	.L312:
 3979               	.LBE443:
 3980               	.LBE442:
 3981               	.LM683:
 3982 1320 3F40 0000 		mov	#mathStack+2, r15 
 3983               	.LVL255:
 3984               	.L375:
 3985               	.LBB444:
 3986               	.LBB445:
 3987               	.LM684:
 3988 1324 AF4F FEFF 		mov	@r15, -2(r15) 
 3989 1328 2F53      		add	#2, r15
 3990               	.LM685:
 3991 132a 3F90 0000 		cmp	#mathStack+32, r15
 3992 132e FA23      		jne	.L375
 3993 1330 3040 0000 		br	#.L451
 3994               	.LVL256:
 3995               	.L311:
 3996               	.LBE445:
 3997               	.LBE444:
 3998               	.LM686:
 3999 1334 1E42 0000 		mov	&mathStack, r14 
 4000 1338 3F40 0000 		mov	#mathStack+26, r15 
 4001               	.LVL257:
 4002               	.L374:
 4003               	.LBB446:
 4004               	.LBB447:
 4005               	.LM687:
 4006 133c AF4F 0200 		mov	@r15, 2(r15) 
 4007 1340 2F83      		sub	#2, r15
GAS LISTING /tmp/ccvQL2RB.s 			page 72


 4008               	.LM688:
 4009 1342 3F90 0000 		cmp	#mathStack-2, r15
 4010 1346 FA23      		jne	.L374
 4011               	.LBE447:
 4012               	.LBE446:
 4013               	.LBB448:
 4014               	.LBB351:
 4015               	.LM689:
 4016 1348 824E 0000 		mov	r14, &mathStack 
 4017               	.LVL258:
 4018 134c 3040 0000 		br	#.L451
 4019               	.LVL259:
 4020               	.L359:
 4021               	.LBE351:
 4022               	.LBE448:
 4023               	.LM690:
 4024 1350 3B40 0000 		mov	#buckets+512, r11 
 4025               	.L430:
 4026               	.LM691:
 4027 1354 2F4B      		mov	@r11, r15 
 4028               	.LVL260:
 4029 1356 B012 0000 		call	#printHexWord
 4030               	.LBB449:
 4031               	.LBB450:
 4032               	.LM692:
 4033 135a 1D42 0000 		mov	&outputRingPtrXin, r13 
 4034               	.LM693:
 4035 135e 1E42 0000 		mov	&outputRingPtrXout, r14 
 4036 1362 1F42 0000 		mov	&outputRingPtrXin, r15 
 4037 1366 0E9F      		cmp	r15, r14
 4038 1368 0724      		jeq	.L428
 4039               	.L462:
 4040               	.LM694:
 4041               	/* #APP */
 4042               	 ;  500 "x.c" 1
 4043 136a 32D2      		eint
 4044               	 ;  0 "" 2
 4045               	.LM695:
 4046               	/* #NOAPP */
 4047 136c 1E42 0000 		mov	&outputRingPtrXout, r14 
 4048 1370 1F42 0000 		mov	&outputRingPtrXin, r15 
 4049 1374 0E9F      		cmp	r15, r14
 4050 1376 F923      		jne	.L462
 4051               	.L428:
 4052               	.LM696:
 4053 1378 1F42 0000 		mov	&outputRingPtrXin, r15 
 4054 137c 0F5F      		rla	r15
 4055 137e BF40 2000 		mov	#32, outputRing(r15) 
 4055      0000 
 4056               	.LM697:
 4057 1384 4F4D      		mov.b	r13, r15
 4058 1386 5F53      		add.b	#1, r15
 4059               	.LM698:
 4060 1388 0E4F      		mov	r15, r14 
 4061 138a 3EF0 0F00 		and	#15, r14
 4062 138e 824E 0000 		mov	r14, &outputRingPtrXin 
 4063 1392 2B53      		add	#2, r11
GAS LISTING /tmp/ccvQL2RB.s 			page 73


 4064               	.LBE450:
 4065               	.LBE449:
 4066               	.LM699:
 4067 1394 3B90 0000 		cmp	#buckets+520, r11
 4068 1398 DD23      		jne	.L430
 4069 139a 3040 0000 		br	#.L451
 4070               	.LVL261:
 4071               	.L358:
 4072               	.LM700:
 4073 139e 3F40 0000 		mov	#mathStack+26, r15 
 4074               	.LVL262:
 4075               	.L427:
 4076               	.LBB451:
 4077               	.LBB452:
 4078               	.LM701:
 4079 13a2 AF4F 0200 		mov	@r15, 2(r15) 
 4080 13a6 2F83      		sub	#2, r15
 4081               	.LM702:
 4082 13a8 3F90 0000 		cmp	#mathStack-2, r15
 4083 13ac FA23      		jne	.L427
 4084               	.LM703:
 4085 13ae 3F40 0000 		mov	#slowTimer, r15 
 4086 13b2 0F11      		rra	r15
 4087 13b4 824F 0000 		mov	r15, &mathStack 
 4088               	.LBE452:
 4089               	.LBE451:
 4090               	.LM704:
 4091 13b8 3040 0000 		br	#.L451
 4092               	.LVL263:
 4093               	.L352:
 4094               	.LBB453:
 4095               	.LBB454:
 4096               	.LM705:
 4097 13bc 1942 0000 		mov	&mathStack, r9 
 4098               	.LVL264:
 4099 13c0 3F40 0000 		mov	#mathStack+2, r15 
 4100               	.LVL265:
 4101               	.LM706:
 4102 13c4 0D4F      		mov	r15, r13 
 4103 13c6 3D50 1E00 		add	#30, r13
 4104 13ca 0E4F      		mov	r15, r14 
 4105               	.L418:
 4106               	.LM707:
 4107 13cc AE4E FEFF 		mov	@r14, -2(r14) 
 4108 13d0 2E53      		add	#2, r14
 4109               	.LM708:
 4110 13d2 3E90 0000 		cmp	#mathStack+32, r14
 4111 13d6 FA23      		jne	.L418
 4112               	.LBE454:
 4113               	.LBE453:
 4114               	.LBB455:
 4115               	.LBB456:
 4116               	.LM709:
 4117 13d8 1A42 0000 		mov	&mathStack, r10 
 4118               	.LVL266:
 4119               	.L419:
 4120               	.LM710:
GAS LISTING /tmp/ccvQL2RB.s 			page 74


 4121 13dc AF4F FEFF 		mov	@r15, -2(r15) 
 4122 13e0 2F53      		add	#2, r15
 4123               	.LM711:
 4124 13e2 0D9F      		cmp	r15, r13
 4125 13e4 FB23      		jne	.L419
 4126               	.LBE456:
 4127               	.LBE455:
 4128               	.LM712:
 4129 13e6 1C42 0000 		mov	&mathStack, r12 
 4130 13ea 0B43      		mov	#0, r11
 4131 13ec 0A93      		tst	r10
 4132 13ee 0134      		jge	+2
 4133 13f0 3B43      		mov	#-1, r11
 4134 13f2 0D43      		mov	#0, r13
 4135 13f4 0C93      		tst	r12
 4136 13f6 0134      		jge	+2
 4137 13f8 3D43      		mov	#-1, r13
 4138 13fa B012 0000 		call	#__mulhisi3
 4139               	.LVL267:
 4140               	.LM713:
 4141 13fe 0C4E      		mov	r14, r12
 4142 1400 0D4F      		mov	r15, r13
 4143 1402 0A49      		mov	r9, r10
 4144 1404 0B4A      		mov	r10, r11
 4145 1406 0B5B      		rla	r11
 4146 1408 0B7B      		subc	r11, r11
 4147 140a 3BE3      		inv	r11
 4148 140c B012 0000 		call	#__divmodsi4
 4149               	.LVL268:
 4150 1410 824C 0000 		mov	r12, &mathStack 
 4151               	.LM714:
 4152 1414 3040 0000 		br	#.L451
 4153               	.LVL269:
 4154               	.L351:
 4155               	.LM715:
 4156 1418 1E42 0000 		mov	&mathStack, r14 
 4157 141c 1ED2 0000 		bis	&mathStack+2, r14
 4158 1420 824E 0000 		mov	r14, &mathStack+2 
 4159 1424 3F40 0000 		mov	#mathStack, r15 
 4160               	.LVL270:
 4161 1428 023C      		jmp	.L417
 4162               	.L544:
 4163               	.LBB457:
 4164               	.LBB458:
 4165               	.LM716:
 4166 142a 1E4F 0200 		mov	2(r15), r14 
 4167               	.L417:
 4168               	.LM717:
 4169 142e 8F4E 0000 		mov	r14, @r15 
 4170 1432 2F53      		add	#2, r15
 4171               	.LM718:
 4172 1434 3F90 0000 		cmp	#mathStack+30, r15
 4173 1438 F823      		jne	.L544
 4174 143a 3040 0000 		br	#.L451
 4175               	.LVL271:
 4176               	.L363:
 4177               	.LBE458:
GAS LISTING /tmp/ccvQL2RB.s 			page 75


 4178               	.LBE457:
 4179               	.LBB459:
 4180               	.LBB460:
 4181               	.LM719:
 4182 143e 1E42 0000 		mov	&mathStack, r14 
 4183               	.LVL272:
 4184 1442 3F40 0000 		mov	#mathStack+2, r15 
 4185               	.LVL273:
 4186               	.L446:
 4187               	.LM720:
 4188 1446 AF4F FEFF 		mov	@r15, -2(r15) 
 4189 144a 2F53      		add	#2, r15
 4190               	.LM721:
 4191 144c 3F90 0000 		cmp	#mathStack+32, r15
 4192 1450 FA23      		jne	.L446
 4193               	.LBE460:
 4194               	.LBE459:
 4195               	.LM722:
 4196 1452 3E90 3000 		cmp	#48, r14
 4197 1456 0228      		jlo	+4
 4198 1458 3040 0000 		br	#.L451
 4199               	.LM723:
 4200 145c 0F4E      		mov	r14, r15 
 4201               	.LVL274:
 4202 145e 0F11      		rra	r15
 4203 1460 0F11      		rra	r15
 4204 1462 0F11      		rra	r15
 4205               	.LM724:
 4206 1464 1FC3      		bic	#1,r15
 4207 1466 1D43      		mov	#1, r13 
 4208 1468 3EF0 0F00 		and	#15, r14
 4209               	.LVL275:
 4210 146c 0E93      		tst	r14
 4211 146e 0324      		jz	.Lsend3448
 4212               	.Lsst3448:
 4213 1470 0D5D      		rla	r13
 4214 1472 1E83      		dec	r14
 4215 1474 FD23      		jnz	.Lsst3448
 4216               	.Lsend3448:
 4217               	.LVL276:
 4218 1476 8FDD 0000 		bis	r13, fecShadow(r15)
 4219 147a 3040 0000 		br	#.L451
 4220               	.LVL277:
 4221               	.L362:
 4222               	.LBB461:
 4223               	.LBB462:
 4224               	.LM725:
 4225 147e 1C42 0000 		mov	&mathStack, r12 
 4226               	.LVL278:
 4227 1482 3F40 0000 		mov	#mathStack+2, r15 
 4228               	.LVL279:
 4229               	.LM726:
 4230 1486 0D4F      		mov	r15, r13 
 4231 1488 3D50 1E00 		add	#30, r13
 4232 148c 0E4F      		mov	r15, r14 
 4233               	.L443:
 4234               	.LM727:
GAS LISTING /tmp/ccvQL2RB.s 			page 76


 4235 148e AE4E FEFF 		mov	@r14, -2(r14) 
 4236 1492 2E53      		add	#2, r14
 4237               	.LM728:
 4238 1494 3E90 0000 		cmp	#mathStack+32, r14
 4239 1498 FA23      		jne	.L443
 4240               	.LBE462:
 4241               	.LBE461:
 4242               	.LM729:
 4243 149a 824C 0000 		mov	r12, &fecShadow 
 4244               	.LBB463:
 4245               	.LBB464:
 4246               	.LM730:
 4247 149e 1C42 0000 		mov	&mathStack, r12 
 4248               	.LVL280:
 4249 14a2 3E50 E2FF 		add	#llo(-30), r14
 4250               	.L444:
 4251               	.LM731:
 4252 14a6 AE4E FEFF 		mov	@r14, -2(r14) 
 4253 14aa 2E53      		add	#2, r14
 4254               	.LM732:
 4255 14ac 0D9E      		cmp	r14, r13
 4256 14ae FB23      		jne	.L444
 4257               	.LBE464:
 4258               	.LBE463:
 4259               	.LM733:
 4260 14b0 824C 0000 		mov	r12, &fecShadow+2 
 4261               	.LBB465:
 4262               	.LBB466:
 4263               	.LM734:
 4264 14b4 1E42 0000 		mov	&mathStack, r14 
 4265               	.LVL281:
 4266               	.L445:
 4267               	.LM735:
 4268 14b8 AF4F FEFF 		mov	@r15, -2(r15) 
 4269 14bc 2F53      		add	#2, r15
 4270               	.LM736:
 4271 14be 3F90 0000 		cmp	#mathStack+32, r15
 4272 14c2 FA23      		jne	.L445
 4273               	.LBE466:
 4274               	.LBE465:
 4275               	.LM737:
 4276 14c4 824E 0000 		mov	r14, &fecShadow+4 
 4277               	.LM738:
 4278 14c8 3040 0000 		br	#.L451
 4279               	.LVL282:
 4280               	.L310:
 4281               	.LBB467:
 4282               	.LBB468:
 4283               	.LM739:
 4284 14cc 1F42 0000 		mov	&mathStack, r15 
 4285               	.LVL283:
 4286 14d0 3E40 0000 		mov	#mathStack+2, r14 
 4287               	.L373:
 4288               	.LM740:
 4289 14d4 AE4E FEFF 		mov	@r14, -2(r14) 
 4290 14d8 2E53      		add	#2, r14
 4291               	.LM741:
GAS LISTING /tmp/ccvQL2RB.s 			page 77


 4292 14da 3E90 0000 		cmp	#mathStack+32, r14
 4293 14de FA23      		jne	.L373
 4294               	.LBE468:
 4295               	.LBE467:
 4296               	.LM742:
 4297 14e0 B012 0000 		call	#printNumber
 4298               	.LVL284:
 4299               	.LM743:
 4300 14e4 3040 0000 		br	#.L451
 4301               	.LVL285:
 4302               	.L309:
 4303               	.LM744:
 4304 14e8 1C42 0000 		mov	&mathStack+2, r12 
 4305 14ec 1A42 0000 		mov	&mathStack, r10 
 4306 14f0 B012 0000 		call	#__divmodhi4
 4307 14f4 824C 0000 		mov	r12, &mathStack+2 
 4308 14f8 3F40 0000 		mov	#mathStack, r15 
 4309               	.LVL286:
 4310 14fc 023C      		jmp	.L372
 4311               	.L545:
 4312               	.LBB469:
 4313               	.LBB470:
 4314               	.LM745:
 4315 14fe 1C4F 0200 		mov	2(r15), r12 
 4316               	.L372:
 4317               	.LM746:
 4318 1502 8F4C 0000 		mov	r12, @r15 
 4319 1506 2F53      		add	#2, r15
 4320               	.LM747:
 4321 1508 3F90 0000 		cmp	#mathStack+30, r15
 4322 150c F823      		jne	.L545
 4323 150e 3040 0000 		br	#.L451
 4324               	.LVL287:
 4325               	.L308:
 4326               	.LBE470:
 4327               	.LBE469:
 4328               	.LM748:
 4329 1512 1A42 0000 		mov	&mathStack+2, r10 
 4330 1516 1C42 0000 		mov	&mathStack, r12 
 4331 151a B012 0000 		call	#__mulhi3
 4332 151e 824E 0000 		mov	r14, &mathStack+2 
 4333 1522 3F40 0000 		mov	#mathStack, r15 
 4334               	.LVL288:
 4335 1526 023C      		jmp	.L371
 4336               	.L546:
 4337               	.LBB471:
 4338               	.LBB472:
 4339               	.LM749:
 4340 1528 1E4F 0200 		mov	2(r15), r14 
 4341               	.L371:
 4342               	.LM750:
 4343 152c 8F4E 0000 		mov	r14, @r15 
 4344 1530 2F53      		add	#2, r15
 4345               	.LM751:
 4346 1532 3F90 0000 		cmp	#mathStack+30, r15
 4347 1536 F823      		jne	.L546
 4348 1538 3040 0000 		br	#.L451
GAS LISTING /tmp/ccvQL2RB.s 			page 78


 4349               	.LVL289:
 4350               	.L307:
 4351               	.LBE472:
 4352               	.LBE471:
 4353               	.LM752:
 4354 153c 1E42 0000 		mov	&mathStack+2, r14 
 4355 1540 1E82 0000 		sub	&mathStack, r14
 4356 1544 824E 0000 		mov	r14, &mathStack+2 
 4357 1548 3F40 0000 		mov	#mathStack, r15 
 4358               	.LVL290:
 4359 154c 023C      		jmp	.L370
 4360               	.L547:
 4361               	.LBB473:
 4362               	.LBB474:
 4363               	.LM753:
 4364 154e 1E4F 0200 		mov	2(r15), r14 
 4365               	.L370:
 4366               	.LM754:
 4367 1552 8F4E 0000 		mov	r14, @r15 
 4368 1556 2F53      		add	#2, r15
 4369               	.LM755:
 4370 1558 3F90 0000 		cmp	#mathStack+30, r15
 4371 155c F823      		jne	.L547
 4372 155e 3040 0000 		br	#.L451
 4373               	.LVL291:
 4374               	.L326:
 4375               	.LBE474:
 4376               	.LBE473:
 4377               	.LM756:
 4378 1562 4F43      		mov.b	#0, r15
 4379               	.LVL292:
 4380 1564 B012 0000 		call	#ifFunc
 4381               	.LM757:
 4382 1568 3040 0000 		br	#.L451
 4383               	.LVL293:
 4384               	.L325:
 4385               	.LM758:
 4386 156c B012 0000 		call	#listFunction
 4387               	.LVL294:
 4388               	.LM759:
 4389 1570 3040 0000 		br	#.L451
 4390               	.LVL295:
 4391               	.L324:
 4392               	.LM760:
 4393 1574 8293 0000 		cmp	#0, &mathStack
 4394 1578 0220      		jne	+4
 4395 157a 3040 0000 		br	#.L532
 4396               	.LBB475:
 4397               	.LBB353:
 4398               	.LM761:
 4399 157e 8243 0000 		mov	#0, &mathStack 
 4400 1582 3040 0000 		br	#.L451
 4401               	.L323:
 4402               	.LBE353:
 4403               	.LBE475:
 4404               	.LBB476:
 4405               	.LBB477:
GAS LISTING /tmp/ccvQL2RB.s 			page 79


 4406               	.LM762:
 4407 1586 1C42 0000 		mov	&mathStack, r12 
 4408               	.LVL296:
 4409 158a 3F40 0000 		mov	#mathStack+2, r15 
 4410               	.LVL297:
 4411               	.LM763:
 4412 158e 0D4F      		mov	r15, r13 
 4413 1590 3D50 1E00 		add	#30, r13
 4414 1594 0E4F      		mov	r15, r14 
 4415               	.L388:
 4416               	.LM764:
 4417 1596 AE4E FEFF 		mov	@r14, -2(r14) 
 4418 159a 2E53      		add	#2, r14
 4419               	.LM765:
 4420 159c 3E90 0000 		cmp	#mathStack+32, r14
 4421 15a0 FA23      		jne	.L388
 4422               	.LBE477:
 4423               	.LBE476:
 4424               	.LBB478:
 4425               	.LBB479:
 4426               	.LM766:
 4427 15a2 1E42 0000 		mov	&mathStack, r14 
 4428               	.LVL298:
 4429               	.L389:
 4430               	.LM767:
 4431 15a6 AF4F FEFF 		mov	@r15, -2(r15) 
 4432 15aa 2F53      		add	#2, r15
 4433               	.LM768:
 4434 15ac 0D9F      		cmp	r15, r13
 4435 15ae FB23      		jne	.L389
 4436               	.LBE479:
 4437               	.LBE478:
 4438               	.LM769:
 4439 15b0 0F4C      		mov	r12, r15 
 4440 15b2 0F5F      		rla	r15
 4441               	.LVL299:
 4442 15b4 8F4E 0000 		mov	r14, prog(r15) 
 4443               	.LM770:
 4444 15b8 3040 0000 		br	#.L451
 4445               	.LVL300:
 4446               	.L322:
 4447               	.LM771:
 4448 15bc 1F42 0000 		mov	&mathStack, r15 
 4449               	.LVL301:
 4450 15c0 0F5F      		rla	r15
 4451 15c2 924F 0000 		mov	prog(r15), &mathStack 
 4451      0000 
 4452               	.LM772:
 4453 15c8 3040 0000 		br	#.L451
 4454               	.LVL302:
 4455               	.L321:
 4456               	.LM773:
 4457 15cc 1E42 0000 		mov	&progPtr, r14 
 4458               	.LBB480:
 4459               	.LBB481:
 4460               	.LM774:
 4461 15d0 1D42 0000 		mov	&mathStack, r13 
GAS LISTING /tmp/ccvQL2RB.s 			page 80


 4462               	.LVL303:
 4463 15d4 3F40 0000 		mov	#mathStack+2, r15 
 4464               	.LVL304:
 4465               	.L384:
 4466               	.LM775:
 4467 15d8 AF4F FEFF 		mov	@r15, -2(r15) 
 4468 15dc 2F53      		add	#2, r15
 4469               	.LM776:
 4470 15de 3F90 0000 		cmp	#mathStack+32, r15
 4471 15e2 FA23      		jne	.L384
 4472               	.LBE481:
 4473               	.LBE480:
 4474               	.LM777:
 4475 15e4 0F4E      		mov	r14, r15 
 4476 15e6 0F5F      		rla	r15
 4477 15e8 8F4D 0000 		mov	r13, prog(r15) 
 4478 15ec 1E53      		add	#1, r14
 4479 15ee 824E 0000 		mov	r14, &progPtr 
 4480               	.LM778:
 4481 15f2 3E90 0001 		cmp	#256, r14
 4482 15f6 0234      		jge	+4
 4483 15f8 3040 0000 		br	#.L451
 4484               	.LM779:
 4485 15fc 3D40 0000 		mov	#.LC0, r13 
 4486               	.LVL305:
 4487               	.LBB482:
 4488               	.LBB483:
 4489               	.LM780:
 4490 1600 5C42 0000 		mov.b	&.LC0, r12
 4491 1604 4C93      		cmp.b	#0, r12
 4492 1606 0220      		jne	+4
 4493 1608 3040 0000 		br	#.L451
 4494               	.L454:
 4495               	.LBB484:
 4496               	.LBB485:
 4497               	.LM781:
 4498 160c 1B42 0000 		mov	&outputRingPtrXin, r11 
 4499               	.LM782:
 4500 1610 1E42 0000 		mov	&outputRingPtrXout, r14 
 4501 1614 1F42 0000 		mov	&outputRingPtrXin, r15 
 4502 1618 0E9F      		cmp	r15, r14
 4503 161a 0724      		jeq	.L385
 4504               	.L455:
 4505               	.LM783:
 4506               	/* #APP */
 4507               	 ;  500 "x.c" 1
 4508 161c 32D2      		eint
 4509               	 ;  0 "" 2
 4510               	.LM784:
 4511               	/* #NOAPP */
 4512 161e 1E42 0000 		mov	&outputRingPtrXout, r14 
 4513 1622 1F42 0000 		mov	&outputRingPtrXin, r15 
 4514 1626 0E9F      		cmp	r15, r14
 4515 1628 F923      		jne	.L455
 4516               	.L385:
 4517               	.LM785:
 4518 162a 1F42 0000 		mov	&outputRingPtrXin, r15 
GAS LISTING /tmp/ccvQL2RB.s 			page 81


 4519 162e 0F5F      		rla	r15
 4520 1630 CF4C 0000 		mov.b	r12, outputRing(r15)
 4521 1634 CF43 0000 		clr.b	outputRing+1(r15)
 4522               	.LM786:
 4523 1638 4F4B      		mov.b	r11, r15
 4524 163a 5F53      		add.b	#1, r15
 4525               	.LM787:
 4526 163c 0E4F      		mov	r15, r14 
 4527 163e 3EF0 0F00 		and	#15, r14
 4528 1642 824E 0000 		mov	r14, &outputRingPtrXin 
 4529               	.LBE485:
 4530               	.LBE484:
 4531               	.LM788:
 4532 1646 1D53      		add	#1, r13
 4533               	.LM789:
 4534 1648 6C4D      		mov.b	@r13, r12
 4535 164a 4C93      		cmp.b	#0, r12
 4536 164c DF23      		jne	.L454
 4537 164e 3040 0000 		br	#.L451
 4538               	.LVL306:
 4539               	.L320:
 4540               	.LBE483:
 4541               	.LBE482:
 4542               	.LM790:
 4543 1652 1D42 0000 		mov	&inputRingPtrXin, r13 
 4544 1656 1E42 0000 		mov	&inputRingPtrXout, r14 
 4545 165a 3F40 0000 		mov	#mathStack+26, r15 
 4546               	.LVL307:
 4547               	.L383:
 4548               	.LBB486:
 4549               	.LBB487:
 4550               	.LM791:
 4551 165e AF4F 0200 		mov	@r15, 2(r15) 
 4552 1662 2F83      		sub	#2, r15
 4553               	.LM792:
 4554 1664 3F90 0000 		cmp	#mathStack-2, r15
 4555 1668 FA23      		jne	.L383
 4556               	.LM793:
 4557 166a 0F4D      		mov	r13, r15 
 4558 166c 0F8E      		sub	r14, r15
 4559 166e 3FF0 0F00 		and	#15, r15
 4560 1672 824F 0000 		mov	r15, &mathStack 
 4561               	.LBE487:
 4562               	.LBE486:
 4563               	.LM794:
 4564 1676 3040 0000 		br	#.L451
 4565               	.LVL308:
 4566               	.L319:
 4567               	.LM795:
 4568 167a B012 0000 		call	#dfnFunc
 4569               	.LVL309:
 4570               	.LM796:
 4571 167e 3040 0000 		br	#.L451
 4572               	.LVL310:
 4573               	.L318:
 4574               	.LM797:
 4575 1682 B012 0000 		call	#getWord
GAS LISTING /tmp/ccvQL2RB.s 			page 82


 4576               	.LVL311:
 4577               	.LM798:
 4578 1686 3040 0000 		br	#.L451
 4579               	.LVL312:
 4580               	.L317:
 4581               	.LBB488:
 4582               	.LBB489:
 4583               	.LM799:
 4584 168a 1F42 0000 		mov	&mathStack, r15 
 4585               	.LVL313:
 4586 168e 3E40 0000 		mov	#mathStack+2, r14 
 4587               	.L382:
 4588               	.LM800:
 4589 1692 AE4E FEFF 		mov	@r14, -2(r14) 
 4590 1696 2E53      		add	#2, r14
 4591               	.LM801:
 4592 1698 3E90 0000 		cmp	#mathStack+32, r14
 4593 169c FA23      		jne	.L382
 4594               	.LBE489:
 4595               	.LBE488:
 4596               	.LM802:
 4597 169e B012 0000 		call	#printHexByte
 4598               	.LVL314:
 4599               	.LM803:
 4600 16a2 3040 0000 		br	#.L451
 4601               	.LVL315:
 4602               	.L316:
 4603               	.LBB490:
 4604               	.LBB491:
 4605               	.LM804:
 4606 16a6 1E42 0000 		mov	&mathStack, r14 
 4607               	.LVL316:
 4608 16aa 3F40 0000 		mov	#mathStack+2, r15 
 4609               	.LVL317:
 4610               	.L380:
 4611               	.LM805:
 4612 16ae AF4F FEFF 		mov	@r15, -2(r15) 
 4613 16b2 2F53      		add	#2, r15
 4614               	.LM806:
 4615 16b4 3F90 0000 		cmp	#mathStack+32, r15
 4616 16b8 FA23      		jne	.L380
 4617               	.LBE491:
 4618               	.LBE490:
 4619               	.LM807:
 4620 16ba 829E 0000 		cmp	r14, &mathStack
 4621 16be 0220      		jne	+4
 4622 16c0 3040 0000 		br	#.L532
 4623               	.LBB492:
 4624               	.LBB355:
 4625               	.LM808:
 4626 16c4 8243 0000 		mov	#0, &mathStack 
 4627 16c8 3040 0000 		br	#.L451
 4628               	.LVL318:
 4629               	.L315:
 4630               	.LBE355:
 4631               	.LBE492:
 4632               	.LBB493:
GAS LISTING /tmp/ccvQL2RB.s 			page 83


 4633               	.LBB494:
 4634               	.LM809:
 4635 16cc 1E42 0000 		mov	&mathStack, r14 
 4636               	.LVL319:
 4637 16d0 3F40 0000 		mov	#mathStack+2, r15 
 4638               	.LVL320:
 4639               	.L378:
 4640               	.LM810:
 4641 16d4 AF4F FEFF 		mov	@r15, -2(r15) 
 4642 16d8 2F53      		add	#2, r15
 4643               	.LM811:
 4644 16da 3F90 0000 		cmp	#mathStack+32, r15
 4645 16de FA23      		jne	.L378
 4646               	.LBE494:
 4647               	.LBE493:
 4648               	.LM812:
 4649 16e0 1E92 0000 		cmp	&mathStack, r14
 4650 16e4 0238      		jl	+4
 4651 16e6 3040 0000 		br	#.L531
 4652               	.LBB495:
 4653               	.LBB407:
 4654               	.LM813:
 4655 16ea 9243 0000 		mov	#1, &mathStack 
 4656 16ee 3040 0000 		br	#.L451
 4657               	.LVL321:
 4658               	.L314:
 4659               	.LBE407:
 4660               	.LBE495:
 4661               	.LBB496:
 4662               	.LBB497:
 4663               	.LM814:
 4664 16f2 1E42 0000 		mov	&mathStack, r14 
 4665               	.LVL322:
 4666 16f6 3F40 0000 		mov	#mathStack+2, r15 
 4667               	.LVL323:
 4668               	.L376:
 4669               	.LM815:
 4670 16fa AF4F FEFF 		mov	@r15, -2(r15) 
 4671 16fe 2F53      		add	#2, r15
 4672               	.LM816:
 4673 1700 3F90 0000 		cmp	#mathStack+32, r15
 4674 1704 FA23      		jne	.L376
 4675               	.LBE497:
 4676               	.LBE496:
 4677               	.LM817:
 4678 1706 829E 0000 		cmp	r14, &mathStack
 4679 170a 0238      		jl	+4
 4680 170c 3040 0000 		br	#.L531
 4681               	.LBB498:
 4682               	.LBB409:
 4683               	.LM818:
 4684 1710 9243 0000 		mov	#1, &mathStack 
 4685 1714 3040 0000 		br	#.L451
 4686               	.LVL324:
 4687               	.L313:
 4688               	.LBE409:
 4689               	.LBE498:
GAS LISTING /tmp/ccvQL2RB.s 			page 84


 4690               	.LM819:
 4691 1718 1F42 0000 		mov	&mathStack, r15 
 4692               	.LVL325:
 4693               	.LM820:
 4694 171c 9242 0000 		mov	&mathStack+2, &mathStack 
 4694      0000 
 4695               	.LM821:
 4696 1722 824F 0000 		mov	r15, &mathStack+2 
 4697               	.LM822:
 4698 1726 3040 0000 		br	#.L451
 4699               	.LVL326:
 4700               	.L395:
 4701               	.LBB499:
 4702               	.LBB344:
 4703               	.LM823:
 4704 172a 0E4F      		mov	r15, r14 
 4705 172c 0E5E      		rla	r14
 4706 172e 1E4E 0000 		mov	prog(r14), r14 
 4707               	.LVL327:
 4708 1732 3040 0000 		br	#.L396
 4709               	.LBE344:
 4710               	.LBE499:
 4711               	.LFE30:
 4712               	.Lfe29:
 4713               		.size	execN,.Lfe29-execN
 4714               	;; End of function 
 4715               	
 4716               		.p2align 1,0
 4717               	.global	execFunc
 4718               		.type	execFunc,@function
 4719               	/***********************
 4720               	 * Function `execFunc' 
 4721               	 ***********************/
 4722               	execFunc:
 4723               	.LFB29:
 4724               	.LM824:
 4725               		/* prologue ends here (frame size = 0) */
 4726               	.L__FrameSize_execFunc=0x0
 4727               	.L__FrameOffset_execFunc=0x0
 4728               	.LBB500:
 4729               	.LBB501:
 4730               	.LM825:
 4731 1736 1F42 0000 		mov	&mathStack, r15 
 4732               	.LVL328:
 4733 173a 3E40 0000 		mov	#mathStack+2, r14 
 4734               	.L549:
 4735               	.LM826:
 4736 173e AE4E FEFF 		mov	@r14, -2(r14) 
 4737 1742 2E53      		add	#2, r14
 4738               	.LM827:
 4739 1744 3E90 0000 		cmp	#mathStack+32, r14
 4740 1748 FA23      		jne	.L549
 4741               	.LBE501:
 4742               	.LBE500:
 4743               	.LM828:
 4744 174a 3F90 204E 		cmp	#20000, r15
 4745 174e 2034      		jge	.L555
GAS LISTING /tmp/ccvQL2RB.s 			page 85


 4746               	.LM829:
 4747 1750 3F90 1027 		cmp	#10000, r15
 4748 1754 0E34      		jge	.L556
 4749               	.LBB502:
 4750               	.LBB503:
 4751               	.LM830:
 4752 1756 1E42 0000 		mov	&addrStackPtr, r14 
 4753 175a 3E53      		add	#llo(-1), r14
 4754 175c 824E 0000 		mov	r14, &addrStackPtr 
 4755               	.LM831:
 4756 1760 0E5E      		rla	r14
 4757 1762 9E42 0000 		mov	&progCounter, addrStack(r14) 
 4757      0000 
 4758               	.LBE503:
 4759               	.LBE502:
 4760               	.LM832:
 4761 1768 0F5F      		rla	r15
 4762               	.LVL329:
 4763 176a 924F 0000 		mov	progOps(r15), &progCounter 
 4763      0000 
 4764 1770 3041      		ret
 4765               	.L556:
 4766               	.LBB504:
 4767               	.LBB505:
 4768               	.LM833:
 4769 1772 1E42 0000 		mov	&addrStackPtr, r14 
 4770 1776 3E53      		add	#llo(-1), r14
 4771 1778 824E 0000 		mov	r14, &addrStackPtr 
 4772               	.LM834:
 4773 177c 0E5E      		rla	r14
 4774 177e 9E42 0000 		mov	&progCounter, addrStack(r14) 
 4774      0000 
 4775               	.LBE505:
 4776               	.LBE504:
 4777               	.LM835:
 4778 1784 0F5F      		rla	r15
 4779               	.LVL330:
 4780 1786 3F50 0000 		add	#cmdList2N-20000, r15
 4781 178a A24F 0000 		mov	@r15, &progCounter 
 4782 178e 3041      		ret
 4783               	.LVL331:
 4784               	.L555:
 4785               	.LM836:
 4786 1790 3F50 E0B1 		add	#llo(-20000), r15
 4787               	.LVL332:
 4788 1794 B012 0000 		call	#execN
 4789 1798 3041      		ret
 4790               	.LFE29:
 4791               	.Lfe30:
 4792               		.size	execFunc,.Lfe30-execFunc
 4793               	;; End of function 
 4794               	
 4795               		.p2align 1,0
 4796               	.global	processLoop
 4797               		.type	processLoop,@function
 4798               	/***********************
 4799               	 * Function `processLoop' 
GAS LISTING /tmp/ccvQL2RB.s 			page 86


 4800               	 ***********************/
 4801               	processLoop:
 4802               	.LFB31:
 4803               	.LM837:
 4804 179a 0B12      		push	r11
 4805               	.LCFI36:
 4806 179c 0A12      		push	r10
 4807               	.LCFI37:
 4808               		/* prologue ends here (frame size = 0) */
 4809               	.L__FrameSize_processLoop=0x0
 4810               	.L__FrameOffset_processLoop=0x4
 4811               	.LM838:
 4812 179e 1E42 0000 		mov	&progCounter, r14 
 4813               	.LM839:
 4814 17a2 3A40 0F27 		mov	#9999, r10 
 4815               	.LM840:
 4816 17a6 3B40 1F4E 		mov	#19999, r11 
 4817               	.L563:
 4818               	.LM841:
 4819 17aa 0A9E      		cmp	r14, r10
 4820 17ac 1734      		jge	.L558
 4821               	.LVL333:
 4822               	.L565:
 4823               	.LM842:
 4824 17ae 0F4E      		mov	r14, r15 
 4825               	.LVL334:
 4826 17b0 0F5F      		rla	r15
 4827 17b2 3F50 0000 		add	#progBi-20000, r15
 4828 17b6 2F4F      		mov	@r15, r15 
 4829               	.LVL335:
 4830               	.LM843:
 4831 17b8 1E53      		add	#1, r14
 4832 17ba 824E 0000 		mov	r14, &progCounter 
 4833               	.LM844:
 4834 17be 0B9F      		cmp	r15, r11
 4835 17c0 1638      		jl	.L564
 4836               	.L560:
 4837               	.LBB506:
 4838               	.LBB507:
 4839               	.LM845:
 4840 17c2 1D42 0000 		mov	&addrStackPtr, r13 
 4841 17c6 3D53      		add	#llo(-1), r13
 4842 17c8 824D 0000 		mov	r13, &addrStackPtr 
 4843               	.LM846:
 4844 17cc 0D5D      		rla	r13
 4845 17ce 8D4E 0000 		mov	r14, addrStack(r13) 
 4846               	.LBE507:
 4847               	.LBE506:
 4848               	.LM847:
 4849 17d2 0F5F      		rla	r15
 4850               	.LVL336:
 4851 17d4 1E4F 0000 		mov	progOps(r15), r14 
 4852               	.LM848:
 4853 17d8 0A9E      		cmp	r14, r10
 4854 17da E93B      		jl	.L565
 4855               	.L558:
 4856               	.LM849:
GAS LISTING /tmp/ccvQL2RB.s 			page 87


 4857 17dc 0F4E      		mov	r14, r15 
 4858               	.LVL337:
 4859 17de 0F5F      		rla	r15
 4860 17e0 1F4F 0000 		mov	prog(r15), r15 
 4861               	.LVL338:
 4862               	.LM850:
 4863 17e4 1E53      		add	#1, r14
 4864 17e6 824E 0000 		mov	r14, &progCounter 
 4865               	.LM851:
 4866 17ea 0B9F      		cmp	r15, r11
 4867 17ec EA37      		jge	.L560
 4868               	.L564:
 4869               	.LM852:
 4870 17ee 3F50 E0B1 		add	#llo(-20000), r15
 4871               	.LVL339:
 4872 17f2 B012 0000 		call	#execN
 4873 17f6 1E42 0000 		mov	&progCounter, r14 
 4874 17fa D73F      		jmp	.L563
 4875               	.LFE31:
 4876               	.Lfe31:
 4877               		.size	processLoop,.Lfe31-processLoop
 4878               	;; End of function 
 4879               	
 4880               		.p2align 1,0
 4881               	.global	main
 4882               		.type	main,@function
 4883               	/***********************
 4884               	 * Function `main' 
 4885               	 ***********************/
 4886               	main:
 4887               	.LFB32:
 4888               	.LM853:
 4889 17fc 3140 0000 		mov	#__stack, r1 
 4890               		/* prologue ends here (frame size = 0) */
 4891               	.L__FrameSize_main=0x0
 4892               	.L__FrameOffset_main=0x0
 4893               	.LM854:
 4894 1800 B240 0C00 		mov	#12, &0x200C 
 4894      0C20 
 4895               	.LM855:
 4896 1806 8243 0820 		mov	#0, &0x2008 
 4897               	.LM856:
 4898 180a B240 1F00 		mov	#31, &0x2004 
 4898      0420 
 4899               	.LBB508:
 4900               	.LBB509:
 4901               	.LM857:
 4902 1810 8243 0000 		mov	#0, &outputCharCntrN 
 4903               	.LM858:
 4904 1814 8243 0000 		mov	#0, &outputCharCntr 
 4905               	.LM859:
 4906 1818 8243 0000 		mov	#0, &inputCharCntr 
 4907               	.LM860:
 4908 181c 8243 0000 		mov	#0, &inputRingPtrXin 
 4909               	.LM861:
 4910 1820 8243 0000 		mov	#0, &inputRingPtrXout 
 4911               	.LM862:
GAS LISTING /tmp/ccvQL2RB.s 			page 88


 4912 1824 8243 0000 		mov	#0, &outputRingPtrXin 
 4913               	.LM863:
 4914 1828 8243 0000 		mov	#0, &outputRingPtrXout 
 4915               	.LM864:
 4916 182c C243 0000 		mov.b	#0, &inputBufPtr
 4917               	.LBE509:
 4918               	.LBE508:
 4919               	.LM865:
 4920 1830 8243 0460 		mov	#0, &0x6004 
 4921               	.LM866:
 4922 1834 8243 0260 		mov	#0, &0x6002 
 4923               	.LM867:
 4924 1838 B240 2304 		mov	#1059, &0x600A 
 4924      0A60 
 4925               	.LM868:
 4926 183e B240 3C00 		mov	#60, &0x6000 
 4926      0060 
 4927               	.LBB510:
 4928               	.LBB511:
 4929               	.LM869:
 4930 1844 1D42 0000 		mov	&outputRingPtrXin, r13 
 4931               	.LM870:
 4932 1848 1E42 0000 		mov	&outputRingPtrXout, r14 
 4933 184c 1F42 0000 		mov	&outputRingPtrXin, r15 
 4934 1850 0E9F      		cmp	r15, r14
 4935 1852 0724      		jeq	.L567
 4936               	.L570:
 4937               	.LM871:
 4938               	/* #APP */
 4939               	 ;  500 "x.c" 1
 4940 1854 32D2      		eint
 4941               	 ;  0 "" 2
 4942               	.LM872:
 4943               	/* #NOAPP */
 4944 1856 1E42 0000 		mov	&outputRingPtrXout, r14 
 4945 185a 1F42 0000 		mov	&outputRingPtrXin, r15 
 4946 185e 0E9F      		cmp	r15, r14
 4947 1860 F923      		jne	.L570
 4948               	.L567:
 4949               	.LM873:
 4950 1862 1F42 0000 		mov	&outputRingPtrXin, r15 
 4951 1866 0F5F      		rla	r15
 4952 1868 8F43 0000 		mov	#0, outputRing(r15) 
 4953               	.LM874:
 4954 186c 4F4D      		mov.b	r13, r15
 4955 186e 5F53      		add.b	#1, r15
 4956               	.LM875:
 4957 1870 0E4F      		mov	r15, r14 
 4958 1872 3EF0 0F00 		and	#15, r14
 4959 1876 824E 0000 		mov	r14, &outputRingPtrXin 
 4960               	.LBE511:
 4961               	.LBE510:
 4962               	.LM876:
 4963 187a B240 2000 		mov	#32, &addrStackPtr 
 4963      0000 
 4964               	.LM877:
 4965 1880 B240 1027 		mov	#10000, &progCounter 
GAS LISTING /tmp/ccvQL2RB.s 			page 89


 4965      0000 
 4966               	.LM878:
 4967 1886 9243 0000 		mov	#1, &progPtr 
 4968               	.LM879:
 4969 188a 8243 0000 		mov	#0, &cmdListPtr 
 4970               	.LM880:
 4971 188e C243 0000 		mov.b	#0, &cmdList
 4972               	.LM881:
 4973 1892 9243 0000 		mov	#1, &progOpsPtr 
 4974               	.LM882:
 4975 1896 8243 0000 		mov	#0, &dirMemory 
 4976               	.LM883:
 4977 189a B012 0000 		call	#processLoop
 4978               	.LM884:
 4979 189e 0F43      		mov	#0, r15 
 4980               	
 4981               		/* epilogue: frame size = 0 */
 4982 18a0 3040 0000 		br	#main
 4983               	.LFE32:
 4984               	.Lfe32:
 4985               		.size	main,.Lfe32-main
 4986               	;; End of function 
 4987               	
 4988               		.p2align 1,0
 4989               	.global	_unexpected_
 4990               		.type	_unexpected_,@function
 4991               	/***********************
 4992               	 * Function `_unexpected_' 
 4993               	 ***********************/
 4994               	_unexpected_:
 4995               	.LFB33:
 4996               	.LM885:
 4997               		/* prologue: naked */
 4998               	.L__FrameSize__unexpected_=0x0
 4999               	.LM886:
 5000               	/* #APP */
 5001               	 ;  1357 "x.c" 1
 5002 18a4 3040 0000 		br #main
 5003               	 ;  0 "" 2
 5004               	
 5005               		/* epilogue: naked */
 5006               	.LM887:
 5007               	/* #NOAPP */
 5008               	.LFE33:
 5009               	.Lfe33:
 5010               		.size	_unexpected_,.Lfe33-_unexpected_
 5011               	;; End of function 
 5012               	
 5013               	.global	cmdListBi
 5014               		.type	cmdListBi,@object
 5015               		.size	cmdListBi,267
 5016               	cmdListBi:
 5017 18a8 6578 6974 		.ascii	"exit + - * / . dup drop swap < > = .hb gw dfn keyt , p@ p! n"
 5017      202B 202D 
 5017      202A 202F 
 5017      202E 2064 
 5017      7570 2064 
GAS LISTING /tmp/ccvQL2RB.s 			page 90


 5018 18e4 6F74 206C 		.ascii	"ot list if then else begin until clrb .h ] num push0 goto ex"
 5018      6973 7420 
 5018      6966 2074 
 5018      6865 6E20 
 5018      656C 7365 
 5019 1920 6563 206C 		.ascii	"ec lu pushn over push1 pwrd emit ; @ ! h@ do loop i b@ a! an"
 5019      7520 7075 
 5019      7368 6E20 
 5019      6F76 6572 
 5019      2070 7573 
 5020 195c 6420 6F72 		.ascii	"d or */ key cr hist hi"
 5020      202A 2F20 
 5020      6B65 7920 
 5020      6372 2068 
 5020      6973 7420 
 5021 1972 7374 636C 		.string	"stclr fasttimer slowtimer stat hstat fec fecset fecbset fecbclr "
 5021      7220 6661 
 5021      7374 7469 
 5021      6D65 7220 
 5021      736C 6F77 
 5022               	.global	cmdListBi2
 5023               		.type	cmdListBi2,@object
 5024               		.size	cmdListBi2,9
 5025               	cmdListBi2:
 5026 19b3 5B20 3A20 		.string	"[ : var "
 5026      7661 7220 
 5026      00
 5027               	.global	cmdList2N
 5028               		.p2align 1,0
 5029               		.type	cmdList2N,@object
 5030               		.size	cmdList2N,8
 5031               	cmdList2N:
 5032 19bc 0000      		.word	0
 5033 19be 1027      		.word	10000
 5034 19c0 3027      		.word	10032
 5035 19c2 9727      		.word	10135
 5036               	.global	progBi
 5037               		.p2align 1,0
 5038               		.type	progBi,@object
 5039               		.size	progBi,296
 5040               	progBi:
 5041 19c4 394E      		.word	20025
 5042 19c6 2E4E      		.word	20014
 5043 19c8 3E4E      		.word	20030
 5044 19ca 364E      		.word	20022
 5045 19cc 1827      		.word	10008
 5046 19ce 3F4E      		.word	20031
 5047 19d0 404E      		.word	20032
 5048 19d2 2E27      		.word	10030
 5049 19d4 284E      		.word	20008
 5050 19d6 424E      		.word	20034
 5051 19d8 364E      		.word	20022
 5052 19da 2A27      		.word	10026
 5053 19dc 434E      		.word	20035
 5054 19de 5D00      		.word	93
 5055 19e0 444E      		.word	20036
 5056 19e2 2C4E      		.word	20012
GAS LISTING /tmp/ccvQL2RB.s 			page 91


 5057 19e4 364E      		.word	20022
 5058 19e6 2627      		.word	10022
 5059 19e8 284E      		.word	20008
 5060 19ea 454E      		.word	20037
 5061 19ec 404E      		.word	20032
 5062 19ee 2E27      		.word	10030
 5063 19f0 414E      		.word	20033
 5064 19f2 3F4E      		.word	20031
 5065 19f4 404E      		.word	20032
 5066 19f6 2E27      		.word	10030
 5067 19f8 434E      		.word	20035
 5068 19fa 3F00      		.word	63
 5069 19fc 474E      		.word	20039
 5070 19fe 3F4E      		.word	20031
 5071 1a00 3A4E      		.word	20026
 5072 1a02 484E      		.word	20040
 5073 1a04 434E      		.word	20035
 5074 1a06 5555      		.word	21845
 5075 1a08 2E4E      		.word	20014
 5076 1a0a 2F4E      		.word	20015
 5077 1a0c 394E      		.word	20025
 5078 1a0e 2E4E      		.word	20014
 5079 1a10 3E4E      		.word	20030
 5080 1a12 364E      		.word	20022
 5081 1a14 3F27      		.word	10047
 5082 1a16 434E      		.word	20035
 5083 1a18 434E      		.word	20035
 5084 1a1a 314E      		.word	20017
 5085 1a1c 314E      		.word	20017
 5086 1a1e 3F4E      		.word	20031
 5087 1a20 3A4E      		.word	20026
 5088 1a22 284E      		.word	20008
 5089 1a24 424E      		.word	20034
 5090 1a26 344E      		.word	20020
 5091 1a28 364E      		.word	20022
 5092 1a2a 4A27      		.word	10058
 5093 1a2c 434E      		.word	20035
 5094 1a2e 3F00      		.word	63
 5095 1a30 474E      		.word	20039
 5096 1a32 464E      		.word	20038
 5097 1a34 3F4E      		.word	20031
 5098 1a36 3A4E      		.word	20026
 5099 1a38 434E      		.word	20035
 5100 1a3a 364E      		.word	20022
 5101 1a3c 444E      		.word	20036
 5102 1a3e 2C4E      		.word	20012
 5103 1a40 364E      		.word	20022
 5104 1a42 5627      		.word	10070
 5105 1a44 314E      		.word	20017
 5106 1a46 4B4E      		.word	20043
 5107 1a48 274E      		.word	20007
 5108 1a4a 314E      		.word	20017
 5109 1a4c 3F4E      		.word	20031
 5110 1a4e 3A4E      		.word	20026
 5111 1a50 434E      		.word	20035
 5112 1a52 384E      		.word	20024
 5113 1a54 444E      		.word	20036
GAS LISTING /tmp/ccvQL2RB.s 			page 92


 5114 1a56 2C4E      		.word	20012
 5115 1a58 364E      		.word	20022
 5116 1a5a 6827      		.word	10088
 5117 1a5c 434E      		.word	20035
 5118 1a5e 404E      		.word	20032
 5119 1a60 314E      		.word	20017
 5120 1a62 4B4E      		.word	20043
 5121 1a64 294E      		.word	20009
 5122 1a66 314E      		.word	20017
 5123 1a68 294E      		.word	20009
 5124 1a6a 4B4E      		.word	20043
 5125 1a6c 294E      		.word	20009
 5126 1a6e 334E      		.word	20019
 5127 1a70 3F4E      		.word	20031
 5128 1a72 3A4E      		.word	20026
 5129 1a74 434E      		.word	20035
 5130 1a76 374E      		.word	20023
 5131 1a78 444E      		.word	20036
 5132 1a7a 2C4E      		.word	20012
 5133 1a7c 364E      		.word	20022
 5134 1a7e 7427      		.word	10100
 5135 1a80 284E      		.word	20008
 5136 1a82 4B4E      		.word	20043
 5137 1a84 294E      		.word	20009
 5138 1a86 334E      		.word	20019
 5139 1a88 3F4E      		.word	20031
 5140 1a8a 3A4E      		.word	20026
 5141 1a8c 434E      		.word	20035
 5142 1a8e 1127      		.word	10001
 5143 1a90 444E      		.word	20036
 5144 1a92 2C4E      		.word	20012
 5145 1a94 364E      		.word	20022
 5146 1a96 7D27      		.word	10109
 5147 1a98 1127      		.word	10001
 5148 1a9a 3F4E      		.word	20031
 5149 1a9c 3A4E      		.word	20026
 5150 1a9e 434E      		.word	20035
 5151 1aa0 484E      		.word	20040
 5152 1aa2 444E      		.word	20036
 5153 1aa4 2C4E      		.word	20012
 5154 1aa6 344E      		.word	20020
 5155 1aa8 364E      		.word	20022
 5156 1aaa 8727      		.word	10119
 5157 1aac 314E      		.word	20017
 5158 1aae 3F4E      		.word	20031
 5159 1ab0 3A4E      		.word	20026
 5160 1ab2 314E      		.word	20017
 5161 1ab4 434E      		.word	20035
 5162 1ab6 5555      		.word	21845
 5163 1ab8 2C4E      		.word	20012
 5164 1aba 344E      		.word	20020
 5165 1abc 364E      		.word	20022
 5166 1abe 9427      		.word	10132
 5167 1ac0 434E      		.word	20035
 5168 1ac2 3F00      		.word	63
 5169 1ac4 474E      		.word	20039
 5170 1ac6 434E      		.word	20035
GAS LISTING /tmp/ccvQL2RB.s 			page 93


 5171 1ac8 7300      		.word	115
 5172 1aca 474E      		.word	20039
 5173 1acc 454E      		.word	20037
 5174 1ace 3A4E      		.word	20026
 5175 1ad0 484E      		.word	20040
 5176 1ad2 4B4E      		.word	20043
 5177 1ad4 3F4E      		.word	20031
 5178 1ad6 314E      		.word	20017
 5179 1ad8 2E4E      		.word	20014
 5180 1ada 2F4E      		.word	20015
 5181 1adc 434E      		.word	20035
 5182 1ade 434E      		.word	20035
 5183 1ae0 314E      		.word	20017
 5184 1ae2 314E      		.word	20017
 5185 1ae4 434E      		.word	20035
 5186 1ae6 484E      		.word	20040
 5187 1ae8 314E      		.word	20017
 5188 1aea 484E      		.word	20040
 5189               	.global	InterruptVectors
 5190               		.section	.vectors,"aw",@progbits
 5191               		.p2align 1,0
 5192               		.type	InterruptVectors,@object
 5193               		.size	InterruptVectors,32
 5194               	InterruptVectors:
 5195 0000 003C      		.word	15360
 5196 0002 3040      		.word	16432
 5197 0004 0000      		.word	main
 5198 0006 003C      		.word	15360
 5199 0008 003C      		.word	15360
 5200 000a 3040      		.word	16432
 5201 000c 0000      		.word	timerInterrupt
 5202 000e 3040      		.word	16432
 5203 0010 0000      		.word	adcInterrupt
 5204 0012 003C      		.word	15360
 5205 0014 003C      		.word	15360
 5206 0016 003C      		.word	15360
 5207 0018 003C      		.word	15360
 5208 001a 003C      		.word	15360
 5209 001c 3040      		.word	16432
 5210 001e 0000      		.word	junkInterrupt
 5211               		.comm mathStack,32,2
 5212               		.comm addrStack,64,2
 5213               		.comm addrStackPtr,2,2
 5214               		.comm prog,512,2
 5215               		.comm progPtr,2,2
 5216               		.comm progOps,64,2
 5217               		.comm progOpsPtr,2,2
 5218               		.comm cmdList,128,2
 5219               		.comm cmdListPtr,2,2
 5220               		.comm subSecondClock,2,2
 5221               		.comm fastTimer,2,2
 5222               		.comm slowTimer,2,2
 5223               		.comm dirMemory,2,2
 5224               		.comm buckets,520,2
 5225               		.comm progCounter,2,2
 5226               		.comm lineBuffer,128,2
 5227               		.comm lineBufferPtr,2,2
GAS LISTING /tmp/ccvQL2RB.s 			page 94


 5228               		.comm wordBuffer,32,2
 5229               		.comm outputCharN,2,2
 5230               		.comm outputCharCntrN,2,2
 5231               		.comm outputChar,2,2
 5232               		.comm outputCharCntr,2,2
 5233               		.comm clicks,2,2
 5234               		.comm outputRing,32,2
 5235               		.comm outputRingPtrXin,2,2
 5236               		.comm outputRingPtrXout,2,2
 5237               		.comm inputChar,2,2
 5238               		.comm inputCharX,2,2
 5239               		.comm inputCharCntr,2,2
 5240               		.comm inputCharBit,2,2
 5241               		.comm inputRing,16,2
 5242               		.comm inputRingPtrXin,2,2
 5243               		.comm inputRingPtrXout,2,2
 5244               		.comm inputBuf,128,2
 5245               		.comm inputBufPtr,1
 5246               		.comm fecShadow,6,2
 5247               		.comm ad_int_tmp,2,2
 5248               		.section	.debug_frame,"",@progbits
 5249               	.Lframe0:
 5250 0000 1000 0000 		.4byte	.LECIE0-.LSCIE0
 5251               	.LSCIE0:
 5252 0004 FFFF FFFF 		.4byte	0xffffffff
 5253 0008 01        		.byte	0x1
 5254 0009 00        		.string	""
 5255 000a 01        		.uleb128 0x1
 5256 000b 7E        		.sleb128 -2
 5257 000c 11        		.byte	0x11
 5258 000d 0C        		.byte	0xc
 5259 000e 01        		.uleb128 0x1
 5260 000f 02        		.uleb128 0x2
 5261 0010 11        		.byte	0x11
 5262 0011 11        		.uleb128 0x11
 5263 0012 01        		.sleb128 1
 5264 0013 00        		.p2align 1,0
 5265               	.LECIE0:
 5266               	.LSFDE0:
 5267 0014 0800 0000 		.4byte	.LEFDE0-.LASFDE0
 5268               	.LASFDE0:
 5269 0018 0000 0000 		.4byte	.Lframe0
 5270 001c 0000      		.2byte	.LFB0
 5271 001e 0400      		.2byte	.LFE0-.LFB0
 5272               		.p2align 1,0
 5273               	.LEFDE0:
 5274               	.LSFDE2:
 5275 0020 0800 0000 		.4byte	.LEFDE2-.LASFDE2
 5276               	.LASFDE2:
 5277 0024 0000 0000 		.4byte	.Lframe0
 5278 0028 0000      		.2byte	.LFB1
 5279 002a 0200      		.2byte	.LFE1-.LFB1
 5280               		.p2align 1,0
 5281               	.LEFDE2:
 5282               	.LSFDE4:
 5283 002c 0800 0000 		.4byte	.LEFDE4-.LASFDE4
 5284               	.LASFDE4:
GAS LISTING /tmp/ccvQL2RB.s 			page 95


 5285 0030 0000 0000 		.4byte	.Lframe0
 5286 0034 0000      		.2byte	.LFB2
 5287 0036 0200      		.2byte	.LFE2-.LFB2
 5288               		.p2align 1,0
 5289               	.LEFDE4:
 5290               	.LSFDE6:
 5291 0038 1C00 0000 		.4byte	.LEFDE6-.LASFDE6
 5292               	.LASFDE6:
 5293 003c 0000 0000 		.4byte	.Lframe0
 5294 0040 0000      		.2byte	.LFB3
 5295 0042 1A01      		.2byte	.LFE3-.LFB3
 5296 0044 42        		.byte	0x4
 5297               		.4byte	.LCFI0-.LFB3
 5298 0045 0E        		.byte	0xe
 5299 0046 04        		.uleb128 0x4
 5300 0047 42        		.byte	0x4
 5301               		.4byte	.LCFI1-.LCFI0
 5302 0048 0E        		.byte	0xe
 5303 0049 06        		.uleb128 0x6
 5304 004a 11        		.byte	0x11
 5305 004b 0E        		.uleb128 0xe
 5306 004c 03        		.sleb128 3
 5307 004d 11        		.byte	0x11
 5308 004e 0F        		.uleb128 0xf
 5309 004f 02        		.sleb128 2
 5310 0050 02        		.byte	0x4
 5311 0051 CC        		.4byte	.LCFI2-.LCFI1
 5312 0052 0E        		.byte	0xe
 5313 0053 04        		.uleb128 0x4
 5314 0054 42        		.byte	0x4
 5315               		.4byte	.LCFI3-.LCFI2
 5316 0055 0E        		.byte	0xe
 5317 0056 02        		.uleb128 0x2
 5318 0057 00        		.p2align 1,0
 5319               	.LEFDE6:
 5320               	.LSFDE8:
 5321 0058 0800 0000 		.4byte	.LEFDE8-.LASFDE8
 5322               	.LASFDE8:
 5323 005c 0000 0000 		.4byte	.Lframe0
 5324 0060 0000      		.2byte	.LFB5
 5325 0062 3C00      		.2byte	.LFE5-.LFB5
 5326               		.p2align 1,0
 5327               	.LEFDE8:
 5328               	.LSFDE10:
 5329 0064 0800 0000 		.4byte	.LEFDE10-.LASFDE10
 5330               	.LASFDE10:
 5331 0068 0000 0000 		.4byte	.Lframe0
 5332 006c 0000      		.2byte	.LFB6
 5333 006e 2800      		.2byte	.LFE6-.LFB6
 5334               		.p2align 1,0
 5335               	.LEFDE10:
 5336               	.LSFDE12:
 5337 0070 0800 0000 		.4byte	.LEFDE12-.LASFDE12
 5338               	.LASFDE12:
 5339 0074 0000 0000 		.4byte	.Lframe0
 5340 0078 0000      		.2byte	.LFB7
 5341 007a 2200      		.2byte	.LFE7-.LFB7
GAS LISTING /tmp/ccvQL2RB.s 			page 96


 5342               		.p2align 1,0
 5343               	.LEFDE12:
 5344               	.LSFDE14:
 5345 007c 0800 0000 		.4byte	.LEFDE14-.LASFDE14
 5346               	.LASFDE14:
 5347 0080 0000 0000 		.4byte	.Lframe0
 5348 0084 0000      		.2byte	.LFB8
 5349 0086 1400      		.2byte	.LFE8-.LFB8
 5350               		.p2align 1,0
 5351               	.LEFDE14:
 5352               	.LSFDE16:
 5353 0088 1A00 0000 		.4byte	.LEFDE16-.LASFDE16
 5354               	.LASFDE16:
 5355 008c 0000 0000 		.4byte	.Lframe0
 5356 0090 0000      		.2byte	.LFB9
 5357 0092 3202      		.2byte	.LFE9-.LFB9
 5358 0094 42        		.byte	0x4
 5359               		.4byte	.LCFI4-.LFB9
 5360 0095 0E        		.byte	0xe
 5361 0096 04        		.uleb128 0x4
 5362 0097 42        		.byte	0x4
 5363               		.4byte	.LCFI5-.LCFI4
 5364 0098 0E        		.byte	0xe
 5365 0099 06        		.uleb128 0x6
 5366 009a 42        		.byte	0x4
 5367               		.4byte	.LCFI6-.LCFI5
 5368 009b 0E        		.byte	0xe
 5369 009c 08        		.uleb128 0x8
 5370 009d 11        		.byte	0x11
 5371 009e 09        		.uleb128 0x9
 5372 009f 04        		.sleb128 4
 5373 00a0 11        		.byte	0x11
 5374 00a1 0A        		.uleb128 0xa
 5375 00a2 03        		.sleb128 3
 5376 00a3 11        		.byte	0x11
 5377 00a4 0B        		.uleb128 0xb
 5378 00a5 02        		.sleb128 2
 5379               		.p2align 1,0
 5380               	.LEFDE16:
 5381               	.LSFDE18:
 5382 00a6 1A00 0000 		.4byte	.LEFDE18-.LASFDE18
 5383               	.LASFDE18:
 5384 00aa 0000 0000 		.4byte	.Lframe0
 5385 00ae 0000      		.2byte	.LFB10
 5386 00b0 C000      		.2byte	.LFE10-.LFB10
 5387 00b2 42        		.byte	0x4
 5388               		.4byte	.LCFI7-.LFB10
 5389 00b3 0E        		.byte	0xe
 5390 00b4 04        		.uleb128 0x4
 5391 00b5 42        		.byte	0x4
 5392               		.4byte	.LCFI8-.LCFI7
 5393 00b6 0E        		.byte	0xe
 5394 00b7 06        		.uleb128 0x6
 5395 00b8 42        		.byte	0x4
 5396               		.4byte	.LCFI9-.LCFI8
 5397 00b9 0E        		.byte	0xe
 5398 00ba 08        		.uleb128 0x8
GAS LISTING /tmp/ccvQL2RB.s 			page 97


 5399 00bb 11        		.byte	0x11
 5400 00bc 09        		.uleb128 0x9
 5401 00bd 04        		.sleb128 4
 5402 00be 11        		.byte	0x11
 5403 00bf 0A        		.uleb128 0xa
 5404 00c0 03        		.sleb128 3
 5405 00c1 11        		.byte	0x11
 5406 00c2 0B        		.uleb128 0xb
 5407 00c3 02        		.sleb128 2
 5408               		.p2align 1,0
 5409               	.LEFDE18:
 5410               	.LSFDE20:
 5411 00c4 0E00 0000 		.4byte	.LEFDE20-.LASFDE20
 5412               	.LASFDE20:
 5413 00c8 0000 0000 		.4byte	.Lframe0
 5414 00cc 0000      		.2byte	.LFB11
 5415 00ce 4E00      		.2byte	.LFE11-.LFB11
 5416 00d0 42        		.byte	0x4
 5417               		.4byte	.LCFI10-.LFB11
 5418 00d1 0E        		.byte	0xe
 5419 00d2 04        		.uleb128 0x4
 5420 00d3 11        		.byte	0x11
 5421 00d4 0B        		.uleb128 0xb
 5422 00d5 02        		.sleb128 2
 5423               		.p2align 1,0
 5424               	.LEFDE20:
 5425               	.LSFDE22:
 5426 00d6 0E00 0000 		.4byte	.LEFDE22-.LASFDE22
 5427               	.LASFDE22:
 5428 00da 0000 0000 		.4byte	.Lframe0
 5429 00de 0000      		.2byte	.LFB12
 5430 00e0 3200      		.2byte	.LFE12-.LFB12
 5431 00e2 42        		.byte	0x4
 5432               		.4byte	.LCFI11-.LFB12
 5433 00e3 0E        		.byte	0xe
 5434 00e4 04        		.uleb128 0x4
 5435 00e5 11        		.byte	0x11
 5436 00e6 0B        		.uleb128 0xb
 5437 00e7 02        		.sleb128 2
 5438               		.p2align 1,0
 5439               	.LEFDE22:
 5440               	.LSFDE24:
 5441 00e8 0E00 0000 		.4byte	.LEFDE24-.LASFDE24
 5442               	.LASFDE24:
 5443 00ec 0000 0000 		.4byte	.Lframe0
 5444 00f0 0000      		.2byte	.LFB13
 5445 00f2 E800      		.2byte	.LFE13-.LFB13
 5446 00f4 42        		.byte	0x4
 5447               		.4byte	.LCFI12-.LFB13
 5448 00f5 0E        		.byte	0xe
 5449 00f6 04        		.uleb128 0x4
 5450 00f7 11        		.byte	0x11
 5451 00f8 0B        		.uleb128 0xb
 5452 00f9 02        		.sleb128 2
 5453               		.p2align 1,0
 5454               	.LEFDE24:
 5455               	.LSFDE26:
GAS LISTING /tmp/ccvQL2RB.s 			page 98


 5456 00fa 0800 0000 		.4byte	.LEFDE26-.LASFDE26
 5457               	.LASFDE26:
 5458 00fe 0000 0000 		.4byte	.Lframe0
 5459 0102 0000      		.2byte	.LFB14
 5460 0104 1600      		.2byte	.LFE14-.LFB14
 5461               		.p2align 1,0
 5462               	.LEFDE26:
 5463               	.LSFDE28:
 5464 0106 0800 0000 		.4byte	.LEFDE28-.LASFDE28
 5465               	.LASFDE28:
 5466 010a 0000 0000 		.4byte	.Lframe0
 5467 010e 0000      		.2byte	.LFB15
 5468 0110 1600      		.2byte	.LFE15-.LFB15
 5469               		.p2align 1,0
 5470               	.LEFDE28:
 5471               	.LSFDE30:
 5472 0112 0800 0000 		.4byte	.LEFDE30-.LASFDE30
 5473               	.LASFDE30:
 5474 0116 0000 0000 		.4byte	.Lframe0
 5475 011a 0000      		.2byte	.LFB16
 5476 011c 1400      		.2byte	.LFE16-.LFB16
 5477               		.p2align 1,0
 5478               	.LEFDE30:
 5479               	.LSFDE32:
 5480 011e 0800 0000 		.4byte	.LEFDE32-.LASFDE32
 5481               	.LASFDE32:
 5482 0122 0000 0000 		.4byte	.Lframe0
 5483 0126 0000      		.2byte	.LFB17
 5484 0128 1200      		.2byte	.LFE17-.LFB17
 5485               		.p2align 1,0
 5486               	.LEFDE32:
 5487               	.LSFDE34:
 5488 012a 2600 0000 		.4byte	.LEFDE34-.LASFDE34
 5489               	.LASFDE34:
 5490 012e 0000 0000 		.4byte	.Lframe0
 5491 0132 0000      		.2byte	.LFB18
 5492 0134 E600      		.2byte	.LFE18-.LFB18
 5493 0136 42        		.byte	0x4
 5494               		.4byte	.LCFI13-.LFB18
 5495 0137 0E        		.byte	0xe
 5496 0138 04        		.uleb128 0x4
 5497 0139 42        		.byte	0x4
 5498               		.4byte	.LCFI14-.LCFI13
 5499 013a 0E        		.byte	0xe
 5500 013b 06        		.uleb128 0x6
 5501 013c 42        		.byte	0x4
 5502               		.4byte	.LCFI15-.LCFI14
 5503 013d 0E        		.byte	0xe
 5504 013e 08        		.uleb128 0x8
 5505 013f 42        		.byte	0x4
 5506               		.4byte	.LCFI16-.LCFI15
 5507 0140 0E        		.byte	0xe
 5508 0141 0A        		.uleb128 0xa
 5509 0142 42        		.byte	0x4
 5510               		.4byte	.LCFI17-.LCFI16
 5511 0143 0E        		.byte	0xe
 5512 0144 0C        		.uleb128 0xc
GAS LISTING /tmp/ccvQL2RB.s 			page 99


 5513 0145 11        		.byte	0x11
 5514 0146 07        		.uleb128 0x7
 5515 0147 06        		.sleb128 6
 5516 0148 11        		.byte	0x11
 5517 0149 08        		.uleb128 0x8
 5518 014a 05        		.sleb128 5
 5519 014b 11        		.byte	0x11
 5520 014c 09        		.uleb128 0x9
 5521 014d 04        		.sleb128 4
 5522 014e 11        		.byte	0x11
 5523 014f 0A        		.uleb128 0xa
 5524 0150 03        		.sleb128 3
 5525 0151 11        		.byte	0x11
 5526 0152 0B        		.uleb128 0xb
 5527 0153 02        		.sleb128 2
 5528               		.p2align 1,0
 5529               	.LEFDE34:
 5530               	.LSFDE36:
 5531 0154 1400 0000 		.4byte	.LEFDE36-.LASFDE36
 5532               	.LASFDE36:
 5533 0158 0000 0000 		.4byte	.Lframe0
 5534 015c 0000      		.2byte	.LFB19
 5535 015e D200      		.2byte	.LFE19-.LFB19
 5536 0160 42        		.byte	0x4
 5537               		.4byte	.LCFI18-.LFB19
 5538 0161 0E        		.byte	0xe
 5539 0162 04        		.uleb128 0x4
 5540 0163 42        		.byte	0x4
 5541               		.4byte	.LCFI19-.LCFI18
 5542 0164 0E        		.byte	0xe
 5543 0165 06        		.uleb128 0x6
 5544 0166 11        		.byte	0x11
 5545 0167 0A        		.uleb128 0xa
 5546 0168 03        		.sleb128 3
 5547 0169 11        		.byte	0x11
 5548 016a 0B        		.uleb128 0xb
 5549 016b 02        		.sleb128 2
 5550               		.p2align 1,0
 5551               	.LEFDE36:
 5552               	.LSFDE38:
 5553 016c 0E00 0000 		.4byte	.LEFDE38-.LASFDE38
 5554               	.LASFDE38:
 5555 0170 0000 0000 		.4byte	.Lframe0
 5556 0174 0000      		.2byte	.LFB20
 5557 0176 D200      		.2byte	.LFE20-.LFB20
 5558 0178 42        		.byte	0x4
 5559               		.4byte	.LCFI20-.LFB20
 5560 0179 0E        		.byte	0xe
 5561 017a 04        		.uleb128 0x4
 5562 017b 11        		.byte	0x11
 5563 017c 0B        		.uleb128 0xb
 5564 017d 02        		.sleb128 2
 5565               		.p2align 1,0
 5566               	.LEFDE38:
 5567               	.LSFDE40:
 5568 017e 0800 0000 		.4byte	.LEFDE40-.LASFDE40
 5569               	.LASFDE40:
GAS LISTING /tmp/ccvQL2RB.s 			page 100


 5570 0182 0000 0000 		.4byte	.Lframe0
 5571 0186 0000      		.2byte	.LFB21
 5572 0188 5400      		.2byte	.LFE21-.LFB21
 5573               		.p2align 1,0
 5574               	.LEFDE40:
 5575               	.LSFDE42:
 5576 018a 0800 0000 		.4byte	.LEFDE42-.LASFDE42
 5577               	.LASFDE42:
 5578 018e 0000 0000 		.4byte	.Lframe0
 5579 0192 0000      		.2byte	.LFB22
 5580 0194 3A00      		.2byte	.LFE22-.LFB22
 5581               		.p2align 1,0
 5582               	.LEFDE42:
 5583               	.LSFDE44:
 5584 0196 0800 0000 		.4byte	.LEFDE44-.LASFDE44
 5585               	.LASFDE44:
 5586 019a 0000 0000 		.4byte	.Lframe0
 5587 019e 0000      		.2byte	.LFB23
 5588 01a0 1A00      		.2byte	.LFE23-.LFB23
 5589               		.p2align 1,0
 5590               	.LEFDE44:
 5591               	.LSFDE46:
 5592 01a2 0E00 0000 		.4byte	.LEFDE46-.LASFDE46
 5593               	.LASFDE46:
 5594 01a6 0000 0000 		.4byte	.Lframe0
 5595 01aa 0000      		.2byte	.LFB24
 5596 01ac 5C00      		.2byte	.LFE24-.LFB24
 5597 01ae 42        		.byte	0x4
 5598               		.4byte	.LCFI21-.LFB24
 5599 01af 0E        		.byte	0xe
 5600 01b0 04        		.uleb128 0x4
 5601 01b1 11        		.byte	0x11
 5602 01b2 0B        		.uleb128 0xb
 5603 01b3 02        		.sleb128 2
 5604               		.p2align 1,0
 5605               	.LEFDE46:
 5606               	.LSFDE48:
 5607 01b4 3400 0000 		.4byte	.LEFDE48-.LASFDE48
 5608               	.LASFDE48:
 5609 01b8 0000 0000 		.4byte	.Lframe0
 5610 01bc 0000      		.2byte	.LFB25
 5611 01be 2401      		.2byte	.LFE25-.LFB25
 5612 01c0 42        		.byte	0x4
 5613               		.4byte	.LCFI22-.LFB25
 5614 01c1 0E        		.byte	0xe
 5615 01c2 04        		.uleb128 0x4
 5616 01c3 42        		.byte	0x4
 5617               		.4byte	.LCFI23-.LCFI22
 5618 01c4 0E        		.byte	0xe
 5619 01c5 06        		.uleb128 0x6
 5620 01c6 42        		.byte	0x4
 5621               		.4byte	.LCFI24-.LCFI23
 5622 01c7 0E        		.byte	0xe
 5623 01c8 08        		.uleb128 0x8
 5624 01c9 42        		.byte	0x4
 5625               		.4byte	.LCFI25-.LCFI24
 5626 01ca 0E        		.byte	0xe
GAS LISTING /tmp/ccvQL2RB.s 			page 101


 5627 01cb 0A        		.uleb128 0xa
 5628 01cc 42        		.byte	0x4
 5629               		.4byte	.LCFI26-.LCFI25
 5630 01cd 0E        		.byte	0xe
 5631 01ce 0C        		.uleb128 0xc
 5632 01cf 42        		.byte	0x4
 5633               		.4byte	.LCFI27-.LCFI26
 5634 01d0 0E        		.byte	0xe
 5635 01d1 0E        		.uleb128 0xe
 5636 01d2 44        		.byte	0x4
 5637               		.4byte	.LCFI28-.LCFI27
 5638 01d3 0E        		.byte	0xe
 5639 01d4 1C        		.uleb128 0x1c
 5640 01d5 11        		.byte	0x11
 5641 01d6 04        		.uleb128 0x4
 5642 01d7 07        		.sleb128 7
 5643 01d8 11        		.byte	0x11
 5644 01d9 07        		.uleb128 0x7
 5645 01da 06        		.sleb128 6
 5646 01db 11        		.byte	0x11
 5647 01dc 08        		.uleb128 0x8
 5648 01dd 05        		.sleb128 5
 5649 01de 11        		.byte	0x11
 5650 01df 09        		.uleb128 0x9
 5651 01e0 04        		.sleb128 4
 5652 01e1 11        		.byte	0x11
 5653 01e2 0A        		.uleb128 0xa
 5654 01e3 03        		.sleb128 3
 5655 01e4 11        		.byte	0x11
 5656 01e5 0B        		.uleb128 0xb
 5657 01e6 02        		.sleb128 2
 5658 01e7 02        		.byte	0x4
 5659 01e8 CC        		.4byte	.LCFI29-.LCFI28
 5660 01e9 0E        		.byte	0xe
 5661 01ea 0E        		.uleb128 0xe
 5662 01eb 00        		.p2align 1,0
 5663               	.LEFDE48:
 5664               	.LSFDE50:
 5665 01ec 0800 0000 		.4byte	.LEFDE50-.LASFDE50
 5666               	.LASFDE50:
 5667 01f0 0000 0000 		.4byte	.Lframe0
 5668 01f4 0000      		.2byte	.LFB26
 5669 01f6 4A00      		.2byte	.LFE26-.LFB26
 5670               		.p2align 1,0
 5671               	.LEFDE50:
 5672               	.LSFDE52:
 5673 01f8 0E00 0000 		.4byte	.LEFDE52-.LASFDE52
 5674               	.LASFDE52:
 5675 01fc 0000 0000 		.4byte	.Lframe0
 5676 0200 0000      		.2byte	.LFB27
 5677 0202 A400      		.2byte	.LFE27-.LFB27
 5678 0204 42        		.byte	0x4
 5679               		.4byte	.LCFI30-.LFB27
 5680 0205 0E        		.byte	0xe
 5681 0206 04        		.uleb128 0x4
 5682 0207 11        		.byte	0x11
 5683 0208 0B        		.uleb128 0xb
GAS LISTING /tmp/ccvQL2RB.s 			page 102


 5684 0209 02        		.sleb128 2
 5685               		.p2align 1,0
 5686               	.LEFDE52:
 5687               	.LSFDE54:
 5688 020a 0E00 0000 		.4byte	.LEFDE54-.LASFDE54
 5689               	.LASFDE54:
 5690 020e 0000 0000 		.4byte	.Lframe0
 5691 0212 0000      		.2byte	.LFB28
 5692 0214 1600      		.2byte	.LFE28-.LFB28
 5693 0216 42        		.byte	0x4
 5694               		.4byte	.LCFI31-.LFB28
 5695 0217 0E        		.byte	0xe
 5696 0218 04        		.uleb128 0x4
 5697 0219 11        		.byte	0x11
 5698 021a 0B        		.uleb128 0xb
 5699 021b 02        		.sleb128 2
 5700               		.p2align 1,0
 5701               	.LEFDE54:
 5702               	.LSFDE56:
 5703 021c 2000 0000 		.4byte	.LEFDE56-.LASFDE56
 5704               	.LASFDE56:
 5705 0220 0000 0000 		.4byte	.Lframe0
 5706 0224 0000      		.2byte	.LFB30
 5707 0226 060B      		.2byte	.LFE30-.LFB30
 5708 0228 42        		.byte	0x4
 5709               		.4byte	.LCFI32-.LFB30
 5710 0229 0E        		.byte	0xe
 5711 022a 04        		.uleb128 0x4
 5712 022b 42        		.byte	0x4
 5713               		.4byte	.LCFI33-.LCFI32
 5714 022c 0E        		.byte	0xe
 5715 022d 06        		.uleb128 0x6
 5716 022e 42        		.byte	0x4
 5717               		.4byte	.LCFI34-.LCFI33
 5718 022f 0E        		.byte	0xe
 5719 0230 08        		.uleb128 0x8
 5720 0231 42        		.byte	0x4
 5721               		.4byte	.LCFI35-.LCFI34
 5722 0232 0E        		.byte	0xe
 5723 0233 0A        		.uleb128 0xa
 5724 0234 11        		.byte	0x11
 5725 0235 08        		.uleb128 0x8
 5726 0236 05        		.sleb128 5
 5727 0237 11        		.byte	0x11
 5728 0238 09        		.uleb128 0x9
 5729 0239 04        		.sleb128 4
 5730 023a 11        		.byte	0x11
 5731 023b 0A        		.uleb128 0xa
 5732 023c 03        		.sleb128 3
 5733 023d 11        		.byte	0x11
 5734 023e 0B        		.uleb128 0xb
 5735 023f 02        		.sleb128 2
 5736               		.p2align 1,0
 5737               	.LEFDE56:
 5738               	.LSFDE58:
 5739 0240 0800 0000 		.4byte	.LEFDE58-.LASFDE58
 5740               	.LASFDE58:
GAS LISTING /tmp/ccvQL2RB.s 			page 103


 5741 0244 0000 0000 		.4byte	.Lframe0
 5742 0248 0000      		.2byte	.LFB29
 5743 024a 6400      		.2byte	.LFE29-.LFB29
 5744               		.p2align 1,0
 5745               	.LEFDE58:
 5746               	.LSFDE60:
 5747 024c 1400 0000 		.4byte	.LEFDE60-.LASFDE60
 5748               	.LASFDE60:
 5749 0250 0000 0000 		.4byte	.Lframe0
 5750 0254 0000      		.2byte	.LFB31
 5751 0256 6200      		.2byte	.LFE31-.LFB31
 5752 0258 42        		.byte	0x4
 5753               		.4byte	.LCFI36-.LFB31
 5754 0259 0E        		.byte	0xe
 5755 025a 04        		.uleb128 0x4
 5756 025b 42        		.byte	0x4
 5757               		.4byte	.LCFI37-.LCFI36
 5758 025c 0E        		.byte	0xe
 5759 025d 06        		.uleb128 0x6
 5760 025e 11        		.byte	0x11
 5761 025f 0A        		.uleb128 0xa
 5762 0260 03        		.sleb128 3
 5763 0261 11        		.byte	0x11
 5764 0262 0B        		.uleb128 0xb
 5765 0263 02        		.sleb128 2
 5766               		.p2align 1,0
 5767               	.LEFDE60:
 5768               	.LSFDE62:
 5769 0264 0800 0000 		.4byte	.LEFDE62-.LASFDE62
 5770               	.LASFDE62:
 5771 0268 0000 0000 		.4byte	.Lframe0
 5772 026c 0000      		.2byte	.LFB32
 5773 026e A800      		.2byte	.LFE32-.LFB32
 5774               		.p2align 1,0
 5775               	.LEFDE62:
 5776               	.LSFDE64:
 5777 0270 0800 0000 		.4byte	.LEFDE64-.LASFDE64
 5778               	.LASFDE64:
 5779 0274 0000 0000 		.4byte	.Lframe0
 5780 0278 0000      		.2byte	.LFB33
 5781 027a 0400      		.2byte	.LFE33-.LFB33
 5782               		.p2align 1,0
 5783               	.LEFDE64:
 5784               		.text
 5785               	.Letext0:
 5786               		.section	.debug_loc,"",@progbits
 5787               	.Ldebug_loc0:
 5788               	.LLST3:
 5789 0000 0800      		.2byte	.LFB3-.Ltext0
 5790 0002 0A00      		.2byte	.LCFI0-.Ltext0
 5791 0004 0200      		.2byte	0x2
 5792 0006 71        		.byte	0x71
 5793 0007 02        		.sleb128 2
 5794 0008 0A00      		.2byte	.LCFI0-.Ltext0
 5795 000a 0C00      		.2byte	.LCFI1-.Ltext0
 5796 000c 0200      		.2byte	0x2
 5797 000e 71        		.byte	0x71
GAS LISTING /tmp/ccvQL2RB.s 			page 104


 5798 000f 04        		.sleb128 4
 5799 0010 0C00      		.2byte	.LCFI1-.Ltext0
 5800 0012 D800      		.2byte	.LCFI2-.Ltext0
 5801 0014 0200      		.2byte	0x2
 5802 0016 71        		.byte	0x71
 5803 0017 06        		.sleb128 6
 5804 0018 D800      		.2byte	.LCFI2-.Ltext0
 5805 001a DA00      		.2byte	.LCFI3-.Ltext0
 5806 001c 0200      		.2byte	0x2
 5807 001e 71        		.byte	0x71
 5808 001f 04        		.sleb128 4
 5809 0020 DA00      		.2byte	.LCFI3-.Ltext0
 5810 0022 2201      		.2byte	.LFE3-.Ltext0
 5811 0024 0200      		.2byte	0x2
 5812 0026 71        		.byte	0x71
 5813 0027 02        		.sleb128 2
 5814 0028 0000      		.2byte	0x0
 5815 002a 0000      		.2byte	0x0
 5816               	.LLST5:
 5817 002c 2201      		.2byte	.LVL0-.Ltext0
 5818 002e 5001      		.2byte	.LVL1-.Ltext0
 5819 0030 0100      		.2byte	0x1
 5820 0032 5F        		.byte	0x5f
 5821 0033 0000      		.2byte	0x0
 5822 0035 0000      		.2byte	0x0
 5823               	.LLST9:
 5824 0037 B001      		.2byte	.LVL2-.Ltext0
 5825 0039 BA01      		.2byte	.LVL3-.Ltext0
 5826 003b 0100      		.2byte	0x1
 5827 003d 5F        		.byte	0x5f
 5828 003e 0000      		.2byte	0x0
 5829 0040 0000      		.2byte	0x0
 5830               	.LLST10:
 5831 0042 BC01      		.2byte	.LFB9-.Ltext0
 5832 0044 BE01      		.2byte	.LCFI4-.Ltext0
 5833 0046 0200      		.2byte	0x2
 5834 0048 71        		.byte	0x71
 5835 0049 02        		.sleb128 2
 5836 004a BE01      		.2byte	.LCFI4-.Ltext0
 5837 004c C001      		.2byte	.LCFI5-.Ltext0
 5838 004e 0200      		.2byte	0x2
 5839 0050 71        		.byte	0x71
 5840 0051 04        		.sleb128 4
 5841 0052 C001      		.2byte	.LCFI5-.Ltext0
 5842 0054 C201      		.2byte	.LCFI6-.Ltext0
 5843 0056 0200      		.2byte	0x2
 5844 0058 71        		.byte	0x71
 5845 0059 06        		.sleb128 6
 5846 005a C201      		.2byte	.LCFI6-.Ltext0
 5847 005c EE03      		.2byte	.LFE9-.Ltext0
 5848 005e 0200      		.2byte	0x2
 5849 0060 71        		.byte	0x71
 5850 0061 08        		.sleb128 8
 5851 0062 0000      		.2byte	0x0
 5852 0064 0000      		.2byte	0x0
 5853               	.LLST11:
 5854 0066 7602      		.2byte	.LVL4-.Ltext0
GAS LISTING /tmp/ccvQL2RB.s 			page 105


 5855 0068 3603      		.2byte	.LVL5-.Ltext0
 5856 006a 0100      		.2byte	0x1
 5857 006c 5B        		.byte	0x5b
 5858 006d 3803      		.2byte	.LVL6-.Ltext0
 5859 006f EE03      		.2byte	.LFE9-.Ltext0
 5860 0071 0100      		.2byte	0x1
 5861 0073 5B        		.byte	0x5b
 5862 0074 0000      		.2byte	0x0
 5863 0076 0000      		.2byte	0x0
 5864               	.LLST12:
 5865 0078 7602      		.2byte	.LVL4-.Ltext0
 5866 007a 4003      		.2byte	.LVL7-.Ltext0
 5867 007c 0100      		.2byte	0x1
 5868 007e 5C        		.byte	0x5c
 5869 007f E403      		.2byte	.LVL8-.Ltext0
 5870 0081 EE03      		.2byte	.LFE9-.Ltext0
 5871 0083 0100      		.2byte	0x1
 5872 0085 5C        		.byte	0x5c
 5873 0086 0000      		.2byte	0x0
 5874 0088 0000      		.2byte	0x0
 5875               	.LLST13:
 5876 008a EE03      		.2byte	.LFB10-.Ltext0
 5877 008c F003      		.2byte	.LCFI7-.Ltext0
 5878 008e 0200      		.2byte	0x2
 5879 0090 71        		.byte	0x71
 5880 0091 02        		.sleb128 2
 5881 0092 F003      		.2byte	.LCFI7-.Ltext0
 5882 0094 F203      		.2byte	.LCFI8-.Ltext0
 5883 0096 0200      		.2byte	0x2
 5884 0098 71        		.byte	0x71
 5885 0099 04        		.sleb128 4
 5886 009a F203      		.2byte	.LCFI8-.Ltext0
 5887 009c F403      		.2byte	.LCFI9-.Ltext0
 5888 009e 0200      		.2byte	0x2
 5889 00a0 71        		.byte	0x71
 5890 00a1 06        		.sleb128 6
 5891 00a2 F403      		.2byte	.LCFI9-.Ltext0
 5892 00a4 AE04      		.2byte	.LFE10-.Ltext0
 5893 00a6 0200      		.2byte	0x2
 5894 00a8 71        		.byte	0x71
 5895 00a9 08        		.sleb128 8
 5896 00aa 0000      		.2byte	0x0
 5897 00ac 0000      		.2byte	0x0
 5898               	.LLST14:
 5899 00ae 0004      		.2byte	.LVL9-.Ltext0
 5900 00b0 0E04      		.2byte	.LVL11-.Ltext0
 5901 00b2 0100      		.2byte	0x1
 5902 00b4 5E        		.byte	0x5e
 5903 00b5 1C04      		.2byte	.LVL12-.Ltext0
 5904 00b7 2004      		.2byte	.LVL13-.Ltext0
 5905 00b9 0100      		.2byte	0x1
 5906 00bb 5E        		.byte	0x5e
 5907 00bc 4204      		.2byte	.LVL14-.Ltext0
 5908 00be 6E04      		.2byte	.LVL15-.Ltext0
 5909 00c0 0100      		.2byte	0x1
 5910 00c2 5E        		.byte	0x5e
 5911 00c3 8204      		.2byte	.LVL19-.Ltext0
GAS LISTING /tmp/ccvQL2RB.s 			page 106


 5912 00c5 8404      		.2byte	.LVL20-.Ltext0
 5913 00c7 0100      		.2byte	0x1
 5914 00c9 5E        		.byte	0x5e
 5915 00ca 9204      		.2byte	.LVL21-.Ltext0
 5916 00cc AE04      		.2byte	.LFE10-.Ltext0
 5917 00ce 0100      		.2byte	0x1
 5918 00d0 5E        		.byte	0x5e
 5919 00d1 0000      		.2byte	0x0
 5920 00d3 0000      		.2byte	0x0
 5921               	.LLST15:
 5922 00d5 0004      		.2byte	.LVL9-.Ltext0
 5923 00d7 7604      		.2byte	.LVL16-.Ltext0
 5924 00d9 0100      		.2byte	0x1
 5925 00db 5F        		.byte	0x5f
 5926 00dc 7804      		.2byte	.LVL17-.Ltext0
 5927 00de AE04      		.2byte	.LFE10-.Ltext0
 5928 00e0 0100      		.2byte	0x1
 5929 00e2 5F        		.byte	0x5f
 5930 00e3 0000      		.2byte	0x0
 5931 00e5 0000      		.2byte	0x0
 5932               	.LLST16:
 5933 00e7 AE04      		.2byte	.LFB11-.Ltext0
 5934 00e9 B004      		.2byte	.LCFI10-.Ltext0
 5935 00eb 0200      		.2byte	0x2
 5936 00ed 71        		.byte	0x71
 5937 00ee 02        		.sleb128 2
 5938 00ef B004      		.2byte	.LCFI10-.Ltext0
 5939 00f1 FC04      		.2byte	.LFE11-.Ltext0
 5940 00f3 0200      		.2byte	0x2
 5941 00f5 71        		.byte	0x71
 5942 00f6 04        		.sleb128 4
 5943 00f7 0000      		.2byte	0x0
 5944 00f9 0000      		.2byte	0x0
 5945               	.LLST17:
 5946 00fb FC04      		.2byte	.LFB12-.Ltext0
 5947 00fd FE04      		.2byte	.LCFI11-.Ltext0
 5948 00ff 0200      		.2byte	0x2
 5949 0101 71        		.byte	0x71
 5950 0102 02        		.sleb128 2
 5951 0103 FE04      		.2byte	.LCFI11-.Ltext0
 5952 0105 2E05      		.2byte	.LFE12-.Ltext0
 5953 0107 0200      		.2byte	0x2
 5954 0109 71        		.byte	0x71
 5955 010a 04        		.sleb128 4
 5956 010b 0000      		.2byte	0x0
 5957 010d 0000      		.2byte	0x0
 5958               	.LLST18:
 5959 010f FC04      		.2byte	.LVL24-.Ltext0
 5960 0111 2605      		.2byte	.LVL28-.Ltext0
 5961 0113 0100      		.2byte	0x1
 5962 0115 5F        		.byte	0x5f
 5963 0116 2A05      		.2byte	.LVL30-.Ltext0
 5964 0118 2E05      		.2byte	.LFE12-.Ltext0
 5965 011a 0100      		.2byte	0x1
 5966 011c 5F        		.byte	0x5f
 5967 011d 0000      		.2byte	0x0
 5968 011f 0000      		.2byte	0x0
GAS LISTING /tmp/ccvQL2RB.s 			page 107


 5969               	.LLST19:
 5970 0121 0C05      		.2byte	.LVL25-.Ltext0
 5971 0123 2805      		.2byte	.LVL29-.Ltext0
 5972 0125 0100      		.2byte	0x1
 5973 0127 5B        		.byte	0x5b
 5974 0128 2C05      		.2byte	.LVL31-.Ltext0
 5975 012a 2E05      		.2byte	.LFE12-.Ltext0
 5976 012c 0100      		.2byte	0x1
 5977 012e 5B        		.byte	0x5b
 5978 012f 0000      		.2byte	0x0
 5979 0131 0000      		.2byte	0x0
 5980               	.LLST20:
 5981 0133 2E05      		.2byte	.LFB13-.Ltext0
 5982 0135 3005      		.2byte	.LCFI12-.Ltext0
 5983 0137 0200      		.2byte	0x2
 5984 0139 71        		.byte	0x71
 5985 013a 02        		.sleb128 2
 5986 013b 3005      		.2byte	.LCFI12-.Ltext0
 5987 013d 1606      		.2byte	.LFE13-.Ltext0
 5988 013f 0200      		.2byte	0x2
 5989 0141 71        		.byte	0x71
 5990 0142 04        		.sleb128 4
 5991 0143 0000      		.2byte	0x0
 5992 0145 0000      		.2byte	0x0
 5993               	.LLST21:
 5994 0147 3805      		.2byte	.LVL32-.Ltext0
 5995 0149 8205      		.2byte	.LVL33-.Ltext0
 5996 014b 0100      		.2byte	0x1
 5997 014d 5D        		.byte	0x5d
 5998 014e 0000      		.2byte	0x0
 5999 0150 0000      		.2byte	0x0
 6000               	.LLST22:
 6001 0152 8205      		.2byte	.LVL33-.Ltext0
 6002 0154 D005      		.2byte	.LVL34-.Ltext0
 6003 0156 0100      		.2byte	0x1
 6004 0158 5D        		.byte	0x5d
 6005 0159 1206      		.2byte	.LVL35-.Ltext0
 6006 015b 1606      		.2byte	.LFE13-.Ltext0
 6007 015d 0100      		.2byte	0x1
 6008 015f 5D        		.byte	0x5d
 6009 0160 0000      		.2byte	0x0
 6010 0162 0000      		.2byte	0x0
 6011               	.LLST27:
 6012 0164 6806      		.2byte	.LFB18-.Ltext0
 6013 0166 6A06      		.2byte	.LCFI13-.Ltext0
 6014 0168 0200      		.2byte	0x2
 6015 016a 71        		.byte	0x71
 6016 016b 02        		.sleb128 2
 6017 016c 6A06      		.2byte	.LCFI13-.Ltext0
 6018 016e 6C06      		.2byte	.LCFI14-.Ltext0
 6019 0170 0200      		.2byte	0x2
 6020 0172 71        		.byte	0x71
 6021 0173 04        		.sleb128 4
 6022 0174 6C06      		.2byte	.LCFI14-.Ltext0
 6023 0176 6E06      		.2byte	.LCFI15-.Ltext0
 6024 0178 0200      		.2byte	0x2
 6025 017a 71        		.byte	0x71
GAS LISTING /tmp/ccvQL2RB.s 			page 108


 6026 017b 06        		.sleb128 6
 6027 017c 6E06      		.2byte	.LCFI15-.Ltext0
 6028 017e 7006      		.2byte	.LCFI16-.Ltext0
 6029 0180 0200      		.2byte	0x2
 6030 0182 71        		.byte	0x71
 6031 0183 08        		.sleb128 8
 6032 0184 7006      		.2byte	.LCFI16-.Ltext0
 6033 0186 7206      		.2byte	.LCFI17-.Ltext0
 6034 0188 0200      		.2byte	0x2
 6035 018a 71        		.byte	0x71
 6036 018b 0A        		.sleb128 10
 6037 018c 7206      		.2byte	.LCFI17-.Ltext0
 6038 018e 4E07      		.2byte	.LFE18-.Ltext0
 6039 0190 0200      		.2byte	0x2
 6040 0192 71        		.byte	0x71
 6041 0193 0C        		.sleb128 12
 6042 0194 0000      		.2byte	0x0
 6043 0196 0000      		.2byte	0x0
 6044               	.LLST28:
 6045 0198 6806      		.2byte	.LVL39-.Ltext0
 6046 019a C806      		.2byte	.LVL49-.Ltext0
 6047 019c 0100      		.2byte	0x1
 6048 019e 5F        		.byte	0x5f
 6049 019f D406      		.2byte	.LVL53-.Ltext0
 6050 01a1 4E07      		.2byte	.LFE18-.Ltext0
 6051 01a3 0100      		.2byte	0x1
 6052 01a5 5F        		.byte	0x5f
 6053 01a6 0000      		.2byte	0x0
 6054 01a8 0000      		.2byte	0x0
 6055               	.LLST29:
 6056 01aa 7A06      		.2byte	.LVL40-.Ltext0
 6057 01ac A406      		.2byte	.LVL44-.Ltext0
 6058 01ae 0100      		.2byte	0x1
 6059 01b0 5C        		.byte	0x5c
 6060 01b1 A406      		.2byte	.LVL44-.Ltext0
 6061 01b3 AA06      		.2byte	.LVL45-.Ltext0
 6062 01b5 0100      		.2byte	0x1
 6063 01b7 5D        		.byte	0x5d
 6064 01b8 AA06      		.2byte	.LVL45-.Ltext0
 6065 01ba AC06      		.2byte	.LVL46-.Ltext0
 6066 01bc 0100      		.2byte	0x1
 6067 01be 5C        		.byte	0x5c
 6068 01bf AC06      		.2byte	.LVL46-.Ltext0
 6069 01c1 B606      		.2byte	.LVL48-.Ltext0
 6070 01c3 0100      		.2byte	0x1
 6071 01c5 5D        		.byte	0x5d
 6072 01c6 B606      		.2byte	.LVL48-.Ltext0
 6073 01c8 E806      		.2byte	.LVL54-.Ltext0
 6074 01ca 0100      		.2byte	0x1
 6075 01cc 5C        		.byte	0x5c
 6076 01cd E806      		.2byte	.LVL54-.Ltext0
 6077 01cf EE06      		.2byte	.LVL55-.Ltext0
 6078 01d1 0100      		.2byte	0x1
 6079 01d3 5D        		.byte	0x5d
 6080 01d4 EE06      		.2byte	.LVL55-.Ltext0
 6081 01d6 F006      		.2byte	.LVL56-.Ltext0
 6082 01d8 0100      		.2byte	0x1
GAS LISTING /tmp/ccvQL2RB.s 			page 109


 6083 01da 5C        		.byte	0x5c
 6084 01db F006      		.2byte	.LVL56-.Ltext0
 6085 01dd FA06      		.2byte	.LVL58-.Ltext0
 6086 01df 0100      		.2byte	0x1
 6087 01e1 5D        		.byte	0x5d
 6088 01e2 FA06      		.2byte	.LVL58-.Ltext0
 6089 01e4 0C07      		.2byte	.LVL60-.Ltext0
 6090 01e6 0100      		.2byte	0x1
 6091 01e8 5C        		.byte	0x5c
 6092 01e9 0C07      		.2byte	.LVL60-.Ltext0
 6093 01eb 1207      		.2byte	.LVL61-.Ltext0
 6094 01ed 0100      		.2byte	0x1
 6095 01ef 5D        		.byte	0x5d
 6096 01f0 1207      		.2byte	.LVL61-.Ltext0
 6097 01f2 1407      		.2byte	.LVL62-.Ltext0
 6098 01f4 0100      		.2byte	0x1
 6099 01f6 5C        		.byte	0x5c
 6100 01f7 1407      		.2byte	.LVL62-.Ltext0
 6101 01f9 1E07      		.2byte	.LVL64-.Ltext0
 6102 01fb 0100      		.2byte	0x1
 6103 01fd 5D        		.byte	0x5d
 6104 01fe 1E07      		.2byte	.LVL64-.Ltext0
 6105 0200 3007      		.2byte	.LVL66-.Ltext0
 6106 0202 0100      		.2byte	0x1
 6107 0204 5C        		.byte	0x5c
 6108 0205 3007      		.2byte	.LVL66-.Ltext0
 6109 0207 3607      		.2byte	.LVL67-.Ltext0
 6110 0209 0100      		.2byte	0x1
 6111 020b 5D        		.byte	0x5d
 6112 020c 3607      		.2byte	.LVL67-.Ltext0
 6113 020e 3807      		.2byte	.LVL68-.Ltext0
 6114 0210 0100      		.2byte	0x1
 6115 0212 5C        		.byte	0x5c
 6116 0213 3807      		.2byte	.LVL68-.Ltext0
 6117 0215 4207      		.2byte	.LVL70-.Ltext0
 6118 0217 0100      		.2byte	0x1
 6119 0219 5D        		.byte	0x5d
 6120 021a 4207      		.2byte	.LVL70-.Ltext0
 6121 021c 4A07      		.2byte	.LVL73-.Ltext0
 6122 021e 0100      		.2byte	0x1
 6123 0220 5C        		.byte	0x5c
 6124 0221 0000      		.2byte	0x0
 6125 0223 0000      		.2byte	0x0
 6126               	.LLST30:
 6127 0225 8006      		.2byte	.LVL43-.Ltext0
 6128 0227 AA06      		.2byte	.LVL45-.Ltext0
 6129 0229 0100      		.2byte	0x1
 6130 022b 59        		.byte	0x59
 6131 022c AC06      		.2byte	.LVL46-.Ltext0
 6132 022e B006      		.2byte	.LVL47-.Ltext0
 6133 0230 0100      		.2byte	0x1
 6134 0232 59        		.byte	0x59
 6135 0233 B606      		.2byte	.LVL48-.Ltext0
 6136 0235 CE06      		.2byte	.LVL52-.Ltext0
 6137 0237 0100      		.2byte	0x1
 6138 0239 59        		.byte	0x59
 6139 023a D406      		.2byte	.LVL53-.Ltext0
GAS LISTING /tmp/ccvQL2RB.s 			page 110


 6140 023c EE06      		.2byte	.LVL55-.Ltext0
 6141 023e 0100      		.2byte	0x1
 6142 0240 59        		.byte	0x59
 6143 0241 F006      		.2byte	.LVL56-.Ltext0
 6144 0243 F406      		.2byte	.LVL57-.Ltext0
 6145 0245 0100      		.2byte	0x1
 6146 0247 59        		.byte	0x59
 6147 0248 FA06      		.2byte	.LVL58-.Ltext0
 6148 024a 3607      		.2byte	.LVL67-.Ltext0
 6149 024c 0100      		.2byte	0x1
 6150 024e 59        		.byte	0x59
 6151 024f 3807      		.2byte	.LVL68-.Ltext0
 6152 0251 3C07      		.2byte	.LVL69-.Ltext0
 6153 0253 0100      		.2byte	0x1
 6154 0255 59        		.byte	0x59
 6155 0256 4407      		.2byte	.LVL71-.Ltext0
 6156 0258 4A07      		.2byte	.LVL73-.Ltext0
 6157 025a 0100      		.2byte	0x1
 6158 025c 59        		.byte	0x59
 6159 025d 0000      		.2byte	0x0
 6160 025f 0000      		.2byte	0x0
 6161               	.LLST31:
 6162 0261 7E06      		.2byte	.LVL42-.Ltext0
 6163 0263 CA06      		.2byte	.LVL50-.Ltext0
 6164 0265 0100      		.2byte	0x1
 6165 0267 57        		.byte	0x57
 6166 0268 D406      		.2byte	.LVL53-.Ltext0
 6167 026a 1207      		.2byte	.LVL61-.Ltext0
 6168 026c 0100      		.2byte	0x1
 6169 026e 57        		.byte	0x57
 6170 026f 1407      		.2byte	.LVL62-.Ltext0
 6171 0271 1807      		.2byte	.LVL63-.Ltext0
 6172 0273 0100      		.2byte	0x1
 6173 0275 57        		.byte	0x57
 6174 0276 1E07      		.2byte	.LVL64-.Ltext0
 6175 0278 4A07      		.2byte	.LVL73-.Ltext0
 6176 027a 0100      		.2byte	0x1
 6177 027c 57        		.byte	0x57
 6178 027d 4C07      		.2byte	.LVL74-.Ltext0
 6179 027f 4E07      		.2byte	.LFE18-.Ltext0
 6180 0281 0100      		.2byte	0x1
 6181 0283 57        		.byte	0x57
 6182 0284 0000      		.2byte	0x0
 6183 0286 0000      		.2byte	0x0
 6184               	.LLST32:
 6185 0288 7C06      		.2byte	.LVL41-.Ltext0
 6186 028a CC06      		.2byte	.LVL51-.Ltext0
 6187 028c 0100      		.2byte	0x1
 6188 028e 58        		.byte	0x58
 6189 028f D406      		.2byte	.LVL53-.Ltext0
 6190 0291 4A07      		.2byte	.LVL73-.Ltext0
 6191 0293 0100      		.2byte	0x1
 6192 0295 58        		.byte	0x58
 6193 0296 0000      		.2byte	0x0
 6194 0298 0000      		.2byte	0x0
 6195               	.LLST33:
 6196 029a 4E07      		.2byte	.LFB19-.Ltext0
GAS LISTING /tmp/ccvQL2RB.s 			page 111


 6197 029c 5007      		.2byte	.LCFI18-.Ltext0
 6198 029e 0200      		.2byte	0x2
 6199 02a0 71        		.byte	0x71
 6200 02a1 02        		.sleb128 2
 6201 02a2 5007      		.2byte	.LCFI18-.Ltext0
 6202 02a4 5207      		.2byte	.LCFI19-.Ltext0
 6203 02a6 0200      		.2byte	0x2
 6204 02a8 71        		.byte	0x71
 6205 02a9 04        		.sleb128 4
 6206 02aa 5207      		.2byte	.LCFI19-.Ltext0
 6207 02ac 2008      		.2byte	.LFE19-.Ltext0
 6208 02ae 0200      		.2byte	0x2
 6209 02b0 71        		.byte	0x71
 6210 02b1 06        		.sleb128 6
 6211 02b2 0000      		.2byte	0x0
 6212 02b4 0000      		.2byte	0x0
 6213               	.LLST34:
 6214 02b6 6007      		.2byte	.LVL75-.Ltext0
 6215 02b8 6407      		.2byte	.LVL76-.Ltext0
 6216 02ba 0100      		.2byte	0x1
 6217 02bc 5B        		.byte	0x5b
 6218 02bd 6407      		.2byte	.LVL76-.Ltext0
 6219 02bf 8007      		.2byte	.LVL77-.Ltext0
 6220 02c1 0100      		.2byte	0x1
 6221 02c3 5F        		.byte	0x5f
 6222 02c4 8007      		.2byte	.LVL77-.Ltext0
 6223 02c6 8E07      		.2byte	.LVL78-.Ltext0
 6224 02c8 0100      		.2byte	0x1
 6225 02ca 5B        		.byte	0x5b
 6226 02cb 8E07      		.2byte	.LVL78-.Ltext0
 6227 02cd 9407      		.2byte	.LVL79-.Ltext0
 6228 02cf 0100      		.2byte	0x1
 6229 02d1 5A        		.byte	0x5a
 6230 02d2 9407      		.2byte	.LVL79-.Ltext0
 6231 02d4 9607      		.2byte	.LVL80-.Ltext0
 6232 02d6 0100      		.2byte	0x1
 6233 02d8 5B        		.byte	0x5b
 6234 02d9 9607      		.2byte	.LVL80-.Ltext0
 6235 02db A007      		.2byte	.LVL82-.Ltext0
 6236 02dd 0100      		.2byte	0x1
 6237 02df 5F        		.byte	0x5f
 6238 02e0 A007      		.2byte	.LVL82-.Ltext0
 6239 02e2 A607      		.2byte	.LVL83-.Ltext0
 6240 02e4 0100      		.2byte	0x1
 6241 02e6 5B        		.byte	0x5b
 6242 02e7 A607      		.2byte	.LVL83-.Ltext0
 6243 02e9 AA07      		.2byte	.LVL84-.Ltext0
 6244 02eb 0100      		.2byte	0x1
 6245 02ed 5A        		.byte	0x5a
 6246 02ee AA07      		.2byte	.LVL84-.Ltext0
 6247 02f0 C007      		.2byte	.LVL85-.Ltext0
 6248 02f2 0100      		.2byte	0x1
 6249 02f4 5B        		.byte	0x5b
 6250 02f5 C007      		.2byte	.LVL85-.Ltext0
 6251 02f7 D207      		.2byte	.LVL86-.Ltext0
 6252 02f9 0100      		.2byte	0x1
 6253 02fb 5A        		.byte	0x5a
GAS LISTING /tmp/ccvQL2RB.s 			page 112


 6254 02fc D207      		.2byte	.LVL86-.Ltext0
 6255 02fe E207      		.2byte	.LVL87-.Ltext0
 6256 0300 0100      		.2byte	0x1
 6257 0302 5B        		.byte	0x5b
 6258 0303 E207      		.2byte	.LVL87-.Ltext0
 6259 0305 FE07      		.2byte	.LVL88-.Ltext0
 6260 0307 0100      		.2byte	0x1
 6261 0309 5A        		.byte	0x5a
 6262 030a FE07      		.2byte	.LVL88-.Ltext0
 6263 030c 0A08      		.2byte	.LVL89-.Ltext0
 6264 030e 0100      		.2byte	0x1
 6265 0310 5F        		.byte	0x5f
 6266 0311 0A08      		.2byte	.LVL89-.Ltext0
 6267 0313 2008      		.2byte	.LFE19-.Ltext0
 6268 0315 0100      		.2byte	0x1
 6269 0317 5A        		.byte	0x5a
 6270 0318 0000      		.2byte	0x0
 6271 031a 0000      		.2byte	0x0
 6272               	.LLST35:
 6273 031c 2008      		.2byte	.LFB20-.Ltext0
 6274 031e 2208      		.2byte	.LCFI20-.Ltext0
 6275 0320 0200      		.2byte	0x2
 6276 0322 71        		.byte	0x71
 6277 0323 02        		.sleb128 2
 6278 0324 2208      		.2byte	.LCFI20-.Ltext0
 6279 0326 F208      		.2byte	.LFE20-.Ltext0
 6280 0328 0200      		.2byte	0x2
 6281 032a 71        		.byte	0x71
 6282 032b 04        		.sleb128 4
 6283 032c 0000      		.2byte	0x0
 6284 032e 0000      		.2byte	0x0
 6285               	.LLST36:
 6286 0330 3008      		.2byte	.LVL90-.Ltext0
 6287 0332 4A08      		.2byte	.LVL93-.Ltext0
 6288 0334 0100      		.2byte	0x1
 6289 0336 5D        		.byte	0x5d
 6290 0337 6E08      		.2byte	.LVL94-.Ltext0
 6291 0339 7608      		.2byte	.LVL95-.Ltext0
 6292 033b 0100      		.2byte	0x1
 6293 033d 5D        		.byte	0x5d
 6294 033e A208      		.2byte	.LVL99-.Ltext0
 6295 0340 B608      		.2byte	.LVL100-.Ltext0
 6296 0342 0100      		.2byte	0x1
 6297 0344 5D        		.byte	0x5d
 6298 0345 EC08      		.2byte	.LVL107-.Ltext0
 6299 0347 F208      		.2byte	.LFE20-.Ltext0
 6300 0349 0100      		.2byte	0x1
 6301 034b 5D        		.byte	0x5d
 6302 034c 0000      		.2byte	0x0
 6303 034e 0000      		.2byte	0x0
 6304               	.LLST37:
 6305 0350 4408      		.2byte	.LVL92-.Ltext0
 6306 0352 6E08      		.2byte	.LVL94-.Ltext0
 6307 0354 0100      		.2byte	0x1
 6308 0356 5C        		.byte	0x5c
 6309 0357 9C08      		.2byte	.LVL97-.Ltext0
 6310 0359 9E08      		.2byte	.LVL98-.Ltext0
GAS LISTING /tmp/ccvQL2RB.s 			page 113


 6311 035b 0100      		.2byte	0x1
 6312 035d 5C        		.byte	0x5c
 6313 035e E208      		.2byte	.LVL104-.Ltext0
 6314 0360 E408      		.2byte	.LVL105-.Ltext0
 6315 0362 0100      		.2byte	0x1
 6316 0364 5C        		.byte	0x5c
 6317 0365 EA08      		.2byte	.LVL106-.Ltext0
 6318 0367 EC08      		.2byte	.LVL107-.Ltext0
 6319 0369 0100      		.2byte	0x1
 6320 036b 5C        		.byte	0x5c
 6321 036c F008      		.2byte	.LVL109-.Ltext0
 6322 036e F208      		.2byte	.LFE20-.Ltext0
 6323 0370 0100      		.2byte	0x1
 6324 0372 5C        		.byte	0x5c
 6325 0373 0000      		.2byte	0x0
 6326 0375 0000      		.2byte	0x0
 6327               	.LLST38:
 6328 0377 4208      		.2byte	.LVL91-.Ltext0
 6329 0379 6E08      		.2byte	.LVL94-.Ltext0
 6330 037b 0100      		.2byte	0x1
 6331 037d 5F        		.byte	0x5f
 6332 037e 7C08      		.2byte	.LVL96-.Ltext0
 6333 0380 9E08      		.2byte	.LVL98-.Ltext0
 6334 0382 0100      		.2byte	0x1
 6335 0384 5F        		.byte	0x5f
 6336 0385 B808      		.2byte	.LVL101-.Ltext0
 6337 0387 C808      		.2byte	.LVL102-.Ltext0
 6338 0389 0100      		.2byte	0x1
 6339 038b 5F        		.byte	0x5f
 6340 038c CC08      		.2byte	.LVL103-.Ltext0
 6341 038e EC08      		.2byte	.LVL107-.Ltext0
 6342 0390 0100      		.2byte	0x1
 6343 0392 5F        		.byte	0x5f
 6344 0393 EE08      		.2byte	.LVL108-.Ltext0
 6345 0395 F208      		.2byte	.LFE20-.Ltext0
 6346 0397 0100      		.2byte	0x1
 6347 0399 5F        		.byte	0x5f
 6348 039a 0000      		.2byte	0x0
 6349 039c 0000      		.2byte	0x0
 6350               	.LLST40:
 6351 039e F208      		.2byte	.LVL110-.Ltext0
 6352 03a0 1809      		.2byte	.LVL113-.Ltext0
 6353 03a2 0100      		.2byte	0x1
 6354 03a4 5F        		.byte	0x5f
 6355 03a5 2E09      		.2byte	.LVL114-.Ltext0
 6356 03a7 4609      		.2byte	.LFE21-.Ltext0
 6357 03a9 0100      		.2byte	0x1
 6358 03ab 5F        		.byte	0x5f
 6359 03ac 0000      		.2byte	0x0
 6360 03ae 0000      		.2byte	0x0
 6361               	.LLST41:
 6362 03b0 0609      		.2byte	.LVL111-.Ltext0
 6363 03b2 2E09      		.2byte	.LVL114-.Ltext0
 6364 03b4 0100      		.2byte	0x1
 6365 03b6 5D        		.byte	0x5d
 6366 03b7 3609      		.2byte	.LVL115-.Ltext0
 6367 03b9 4609      		.2byte	.LFE21-.Ltext0
GAS LISTING /tmp/ccvQL2RB.s 			page 114


 6368 03bb 0100      		.2byte	0x1
 6369 03bd 5D        		.byte	0x5d
 6370 03be 0000      		.2byte	0x0
 6371 03c0 0000      		.2byte	0x0
 6372               	.LLST42:
 6373 03c2 1409      		.2byte	.LVL112-.Ltext0
 6374 03c4 2E09      		.2byte	.LVL114-.Ltext0
 6375 03c6 0100      		.2byte	0x1
 6376 03c8 5E        		.byte	0x5e
 6377 03c9 0000      		.2byte	0x0
 6378 03cb 0000      		.2byte	0x0
 6379               	.LLST44:
 6380 03cd 5A09      		.2byte	.LVL116-.Ltext0
 6381 03cf 7609      		.2byte	.LVL117-.Ltext0
 6382 03d1 0100      		.2byte	0x1
 6383 03d3 5E        		.byte	0x5e
 6384 03d4 7E09      		.2byte	.LVL118-.Ltext0
 6385 03d6 8009      		.2byte	.LFE22-.Ltext0
 6386 03d8 0100      		.2byte	0x1
 6387 03da 5E        		.byte	0x5e
 6388 03db 0000      		.2byte	0x0
 6389 03dd 0000      		.2byte	0x0
 6390               	.LLST46:
 6391 03df 9A09      		.2byte	.LFB24-.Ltext0
 6392 03e1 9C09      		.2byte	.LCFI21-.Ltext0
 6393 03e3 0200      		.2byte	0x2
 6394 03e5 71        		.byte	0x71
 6395 03e6 02        		.sleb128 2
 6396 03e7 9C09      		.2byte	.LCFI21-.Ltext0
 6397 03e9 F609      		.2byte	.LFE24-.Ltext0
 6398 03eb 0200      		.2byte	0x2
 6399 03ed 71        		.byte	0x71
 6400 03ee 04        		.sleb128 4
 6401 03ef 0000      		.2byte	0x0
 6402 03f1 0000      		.2byte	0x0
 6403               	.LLST47:
 6404 03f3 AE09      		.2byte	.LVL120-.Ltext0
 6405 03f5 E009      		.2byte	.LVL121-.Ltext0
 6406 03f7 0100      		.2byte	0x1
 6407 03f9 5F        		.byte	0x5f
 6408 03fa 0000      		.2byte	0x0
 6409 03fc 0000      		.2byte	0x0
 6410               	.LLST48:
 6411 03fe F609      		.2byte	.LFB25-.Ltext0
 6412 0400 F809      		.2byte	.LCFI22-.Ltext0
 6413 0402 0200      		.2byte	0x2
 6414 0404 71        		.byte	0x71
 6415 0405 02        		.sleb128 2
 6416 0406 F809      		.2byte	.LCFI22-.Ltext0
 6417 0408 FA09      		.2byte	.LCFI23-.Ltext0
 6418 040a 0200      		.2byte	0x2
 6419 040c 71        		.byte	0x71
 6420 040d 04        		.sleb128 4
 6421 040e FA09      		.2byte	.LCFI23-.Ltext0
 6422 0410 FC09      		.2byte	.LCFI24-.Ltext0
 6423 0412 0200      		.2byte	0x2
 6424 0414 71        		.byte	0x71
GAS LISTING /tmp/ccvQL2RB.s 			page 115


 6425 0415 06        		.sleb128 6
 6426 0416 FC09      		.2byte	.LCFI24-.Ltext0
 6427 0418 FE09      		.2byte	.LCFI25-.Ltext0
 6428 041a 0200      		.2byte	0x2
 6429 041c 71        		.byte	0x71
 6430 041d 08        		.sleb128 8
 6431 041e FE09      		.2byte	.LCFI25-.Ltext0
 6432 0420 000A      		.2byte	.LCFI26-.Ltext0
 6433 0422 0200      		.2byte	0x2
 6434 0424 71        		.byte	0x71
 6435 0425 0A        		.sleb128 10
 6436 0426 000A      		.2byte	.LCFI26-.Ltext0
 6437 0428 020A      		.2byte	.LCFI27-.Ltext0
 6438 042a 0200      		.2byte	0x2
 6439 042c 71        		.byte	0x71
 6440 042d 0C        		.sleb128 12
 6441 042e 020A      		.2byte	.LCFI27-.Ltext0
 6442 0430 060A      		.2byte	.LCFI28-.Ltext0
 6443 0432 0200      		.2byte	0x2
 6444 0434 71        		.byte	0x71
 6445 0435 0E        		.sleb128 14
 6446 0436 060A      		.2byte	.LCFI28-.Ltext0
 6447 0438 D20A      		.2byte	.LCFI29-.Ltext0
 6448 043a 0200      		.2byte	0x2
 6449 043c 71        		.byte	0x71
 6450 043d 1C        		.sleb128 28
 6451 043e D20A      		.2byte	.LCFI29-.Ltext0
 6452 0440 1A0B      		.2byte	.LFE25-.Ltext0
 6453 0442 0200      		.2byte	0x2
 6454 0444 71        		.byte	0x71
 6455 0445 0E        		.sleb128 14
 6456 0446 0000      		.2byte	0x0
 6457 0448 0000      		.2byte	0x0
 6458               	.LLST49:
 6459 044a F609      		.2byte	.LVL122-.Ltext0
 6460 044c 5C0A      		.2byte	.LVL132-.Ltext0
 6461 044e 0100      		.2byte	0x1
 6462 0450 5F        		.byte	0x5f
 6463 0451 E00A      		.2byte	.LVL133-.Ltext0
 6464 0453 EC0A      		.2byte	.LVL135-.Ltext0
 6465 0455 0100      		.2byte	0x1
 6466 0457 5F        		.byte	0x5f
 6467 0458 0000      		.2byte	0x0
 6468 045a 0000      		.2byte	0x0
 6469               	.LLST50:
 6470 045c 080A      		.2byte	.LVL123-.Ltext0
 6471 045e 160A      		.2byte	.LVL125-.Ltext0
 6472 0460 0100      		.2byte	0x1
 6473 0462 58        		.byte	0x58
 6474 0463 160A      		.2byte	.LVL125-.Ltext0
 6475 0465 180A      		.2byte	.LVL126-.Ltext0
 6476 0467 0100      		.2byte	0x1
 6477 0469 5C        		.byte	0x5c
 6478 046a 180A      		.2byte	.LVL126-.Ltext0
 6479 046c 420A      		.2byte	.LVL128-.Ltext0
 6480 046e 0100      		.2byte	0x1
 6481 0470 58        		.byte	0x58
GAS LISTING /tmp/ccvQL2RB.s 			page 116


 6482 0471 420A      		.2byte	.LVL128-.Ltext0
 6483 0473 480A      		.2byte	.LVL129-.Ltext0
 6484 0475 0100      		.2byte	0x1
 6485 0477 5C        		.byte	0x5c
 6486 0478 480A      		.2byte	.LVL129-.Ltext0
 6487 047a 540A      		.2byte	.LVL131-.Ltext0
 6488 047c 0100      		.2byte	0x1
 6489 047e 58        		.byte	0x58
 6490 047f E00A      		.2byte	.LVL133-.Ltext0
 6491 0481 1A0B      		.2byte	.LFE25-.Ltext0
 6492 0483 0100      		.2byte	0x1
 6493 0485 5C        		.byte	0x5c
 6494 0486 0000      		.2byte	0x0
 6495 0488 0000      		.2byte	0x0
 6496               	.LLST51:
 6497 048a 140A      		.2byte	.LVL124-.Ltext0
 6498 048c 160A      		.2byte	.LVL125-.Ltext0
 6499 048e 0100      		.2byte	0x1
 6500 0490 57        		.byte	0x57
 6501 0491 160A      		.2byte	.LVL125-.Ltext0
 6502 0493 180A      		.2byte	.LVL126-.Ltext0
 6503 0495 0100      		.2byte	0x1
 6504 0497 5E        		.byte	0x5e
 6505 0498 180A      		.2byte	.LVL126-.Ltext0
 6506 049a 3C0A      		.2byte	.LVL127-.Ltext0
 6507 049c 0100      		.2byte	0x1
 6508 049e 57        		.byte	0x57
 6509 049f 3C0A      		.2byte	.LVL127-.Ltext0
 6510 04a1 4A0A      		.2byte	.LVL130-.Ltext0
 6511 04a3 0100      		.2byte	0x1
 6512 04a5 5E        		.byte	0x5e
 6513 04a6 4A0A      		.2byte	.LVL130-.Ltext0
 6514 04a8 E00A      		.2byte	.LVL133-.Ltext0
 6515 04aa 0100      		.2byte	0x1
 6516 04ac 5C        		.byte	0x5c
 6517 04ad E00A      		.2byte	.LVL133-.Ltext0
 6518 04af E80A      		.2byte	.LVL134-.Ltext0
 6519 04b1 0100      		.2byte	0x1
 6520 04b3 5E        		.byte	0x5e
 6521 04b4 0000      		.2byte	0x0
 6522 04b6 0000      		.2byte	0x0
 6523               	.LLST53:
 6524 04b8 1A0B      		.2byte	.LVL136-.Ltext0
 6525 04ba 560B      		.2byte	.LVL138-.Ltext0
 6526 04bc 0100      		.2byte	0x1
 6527 04be 5F        		.byte	0x5f
 6528 04bf 0000      		.2byte	0x0
 6529 04c1 0000      		.2byte	0x0
 6530               	.LLST54:
 6531 04c3 640B      		.2byte	.LFB27-.Ltext0
 6532 04c5 660B      		.2byte	.LCFI30-.Ltext0
 6533 04c7 0200      		.2byte	0x2
 6534 04c9 71        		.byte	0x71
 6535 04ca 02        		.sleb128 2
 6536 04cb 660B      		.2byte	.LCFI30-.Ltext0
 6537 04cd 080C      		.2byte	.LFE27-.Ltext0
 6538 04cf 0200      		.2byte	0x2
GAS LISTING /tmp/ccvQL2RB.s 			page 117


 6539 04d1 71        		.byte	0x71
 6540 04d2 04        		.sleb128 4
 6541 04d3 0000      		.2byte	0x0
 6542 04d5 0000      		.2byte	0x0
 6543               	.LLST55:
 6544 04d7 640B      		.2byte	.LVL139-.Ltext0
 6545 04d9 D60B      		.2byte	.LVL144-.Ltext0
 6546 04db 0100      		.2byte	0x1
 6547 04dd 5F        		.byte	0x5f
 6548 04de 0000      		.2byte	0x0
 6549 04e0 0000      		.2byte	0x0
 6550               	.LLST56:
 6551 04e2 6A0B      		.2byte	.LVL141-.Ltext0
 6552 04e4 AE0B      		.2byte	.LVL142-.Ltext0
 6553 04e6 0100      		.2byte	0x1
 6554 04e8 5E        		.byte	0x5e
 6555 04e9 0000      		.2byte	0x0
 6556 04eb 0000      		.2byte	0x0
 6557               	.LLST57:
 6558 04ed 080C      		.2byte	.LFB28-.Ltext0
 6559 04ef 0A0C      		.2byte	.LCFI31-.Ltext0
 6560 04f1 0200      		.2byte	0x2
 6561 04f3 71        		.byte	0x71
 6562 04f4 02        		.sleb128 2
 6563 04f5 0A0C      		.2byte	.LCFI31-.Ltext0
 6564 04f7 1E0C      		.2byte	.LFE28-.Ltext0
 6565 04f9 0200      		.2byte	0x2
 6566 04fb 71        		.byte	0x71
 6567 04fc 04        		.sleb128 4
 6568 04fd 0000      		.2byte	0x0
 6569 04ff 0000      		.2byte	0x0
 6570               	.LLST58:
 6571 0501 080C      		.2byte	.LVL145-.Ltext0
 6572 0503 100C      		.2byte	.LVL146-.Ltext0
 6573 0505 0100      		.2byte	0x1
 6574 0507 5F        		.byte	0x5f
 6575 0508 160C      		.2byte	.LVL147-.Ltext0
 6576 050a 1C0C      		.2byte	.LVL148-.Ltext0
 6577 050c 0100      		.2byte	0x1
 6578 050e 5B        		.byte	0x5b
 6579 050f 0000      		.2byte	0x0
 6580 0511 0000      		.2byte	0x0
 6581               	.LLST59:
 6582 0513 300C      		.2byte	.LFB30-.Ltext0
 6583 0515 320C      		.2byte	.LCFI32-.Ltext0
 6584 0517 0200      		.2byte	0x2
 6585 0519 71        		.byte	0x71
 6586 051a 02        		.sleb128 2
 6587 051b 320C      		.2byte	.LCFI32-.Ltext0
 6588 051d 340C      		.2byte	.LCFI33-.Ltext0
 6589 051f 0200      		.2byte	0x2
 6590 0521 71        		.byte	0x71
 6591 0522 04        		.sleb128 4
 6592 0523 340C      		.2byte	.LCFI33-.Ltext0
 6593 0525 360C      		.2byte	.LCFI34-.Ltext0
 6594 0527 0200      		.2byte	0x2
 6595 0529 71        		.byte	0x71
GAS LISTING /tmp/ccvQL2RB.s 			page 118


 6596 052a 06        		.sleb128 6
 6597 052b 360C      		.2byte	.LCFI34-.Ltext0
 6598 052d 380C      		.2byte	.LCFI35-.Ltext0
 6599 052f 0200      		.2byte	0x2
 6600 0531 71        		.byte	0x71
 6601 0532 08        		.sleb128 8
 6602 0533 380C      		.2byte	.LCFI35-.Ltext0
 6603 0535 3617      		.2byte	.LFE30-.Ltext0
 6604 0537 0200      		.2byte	0x2
 6605 0539 71        		.byte	0x71
 6606 053a 0A        		.sleb128 10
 6607 053b 0000      		.2byte	0x0
 6608 053d 0000      		.2byte	0x0
 6609               	.LLST60:
 6610 053f 300C      		.2byte	.LVL149-.Ltext0
 6611 0541 560C      		.2byte	.LVL151-.Ltext0
 6612 0543 0100      		.2byte	0x1
 6613 0545 5F        		.byte	0x5f
 6614 0546 8C0C      		.2byte	.LVL152-.Ltext0
 6615 0548 1C0D      		.2byte	.LVL156-.Ltext0
 6616 054a 0100      		.2byte	0x1
 6617 054c 5F        		.byte	0x5f
 6618 054d 1E0D      		.2byte	.LVL157-.Ltext0
 6619 054f 260D      		.2byte	.LVL158-.Ltext0
 6620 0551 0100      		.2byte	0x1
 6621 0553 5F        		.byte	0x5f
 6622 0554 580D      		.2byte	.LVL160-.Ltext0
 6623 0556 5C0D      		.2byte	.LVL161-.Ltext0
 6624 0558 0100      		.2byte	0x1
 6625 055a 5F        		.byte	0x5f
 6626 055b 660D      		.2byte	.LVL162-.Ltext0
 6627 055d 6A0D      		.2byte	.LVL163-.Ltext0
 6628 055f 0100      		.2byte	0x1
 6629 0561 5F        		.byte	0x5f
 6630 0562 9A0D      		.2byte	.LVL166-.Ltext0
 6631 0564 9E0D      		.2byte	.LVL167-.Ltext0
 6632 0566 0100      		.2byte	0x1
 6633 0568 5F        		.byte	0x5f
 6634 0569 A00D      		.2byte	.LVL168-.Ltext0
 6635 056b A40D      		.2byte	.LVL169-.Ltext0
 6636 056d 0100      		.2byte	0x1
 6637 056f 5F        		.byte	0x5f
 6638 0570 A60D      		.2byte	.LVL170-.Ltext0
 6639 0572 A80D      		.2byte	.LVL171-.Ltext0
 6640 0574 0100      		.2byte	0x1
 6641 0576 5F        		.byte	0x5f
 6642 0577 AE0D      		.2byte	.LVL172-.Ltext0
 6643 0579 B20D      		.2byte	.LVL173-.Ltext0
 6644 057b 0100      		.2byte	0x1
 6645 057d 5F        		.byte	0x5f
 6646 057e C40D      		.2byte	.LVL175-.Ltext0
 6647 0580 C80D      		.2byte	.LVL176-.Ltext0
 6648 0582 0100      		.2byte	0x1
 6649 0584 5F        		.byte	0x5f
 6650 0585 CA0D      		.2byte	.LVL177-.Ltext0
 6651 0587 CE0D      		.2byte	.LVL178-.Ltext0
 6652 0589 0100      		.2byte	0x1
GAS LISTING /tmp/ccvQL2RB.s 			page 119


 6653 058b 5F        		.byte	0x5f
 6654 058c E40D      		.2byte	.LVL180-.Ltext0
 6655 058e E80D      		.2byte	.LVL181-.Ltext0
 6656 0590 0100      		.2byte	0x1
 6657 0592 5F        		.byte	0x5f
 6658 0593 F60D      		.2byte	.LVL182-.Ltext0
 6659 0595 FC0D      		.2byte	.LVL183-.Ltext0
 6660 0597 0100      		.2byte	0x1
 6661 0599 5F        		.byte	0x5f
 6662 059a 2C0E      		.2byte	.LVL186-.Ltext0
 6663 059c 300E      		.2byte	.LVL187-.Ltext0
 6664 059e 0100      		.2byte	0x1
 6665 05a0 5F        		.byte	0x5f
 6666 05a1 400E      		.2byte	.LVL188-.Ltext0
 6667 05a3 500E      		.2byte	.LVL189-.Ltext0
 6668 05a5 0100      		.2byte	0x1
 6669 05a7 5F        		.byte	0x5f
 6670 05a8 640E      		.2byte	.LVL190-.Ltext0
 6671 05aa 700E      		.2byte	.LVL191-.Ltext0
 6672 05ac 0100      		.2byte	0x1
 6673 05ae 5F        		.byte	0x5f
 6674 05af D60E      		.2byte	.LVL193-.Ltext0
 6675 05b1 DA0E      		.2byte	.LVL194-.Ltext0
 6676 05b3 0100      		.2byte	0x1
 6677 05b5 5F        		.byte	0x5f
 6678 05b6 F20E      		.2byte	.LVL195-.Ltext0
 6679 05b8 F60E      		.2byte	.LVL196-.Ltext0
 6680 05ba 0100      		.2byte	0x1
 6681 05bc 5F        		.byte	0x5f
 6682 05bd 040F      		.2byte	.LVL197-.Ltext0
 6683 05bf 080F      		.2byte	.LVL198-.Ltext0
 6684 05c1 0100      		.2byte	0x1
 6685 05c3 5F        		.byte	0x5f
 6686 05c4 8E0F      		.2byte	.LVL199-.Ltext0
 6687 05c6 A80F      		.2byte	.LVL201-.Ltext0
 6688 05c8 0100      		.2byte	0x1
 6689 05ca 5F        		.byte	0x5f
 6690 05cb 5610      		.2byte	.LVL202-.Ltext0
 6691 05cd 5E10      		.2byte	.LVL203-.Ltext0
 6692 05cf 0100      		.2byte	0x1
 6693 05d1 5F        		.byte	0x5f
 6694 05d2 7210      		.2byte	.LVL205-.Ltext0
 6695 05d4 7A10      		.2byte	.LVL207-.Ltext0
 6696 05d6 0100      		.2byte	0x1
 6697 05d8 5F        		.byte	0x5f
 6698 05d9 AC10      		.2byte	.LVL211-.Ltext0
 6699 05db B410      		.2byte	.LVL213-.Ltext0
 6700 05dd 0100      		.2byte	0x1
 6701 05df 5F        		.byte	0x5f
 6702 05e0 E010      		.2byte	.LVL217-.Ltext0
 6703 05e2 E610      		.2byte	.LVL218-.Ltext0
 6704 05e4 0100      		.2byte	0x1
 6705 05e6 5F        		.byte	0x5f
 6706 05e7 F810      		.2byte	.LVL219-.Ltext0
 6707 05e9 0011      		.2byte	.LVL221-.Ltext0
 6708 05eb 0100      		.2byte	0x1
 6709 05ed 5F        		.byte	0x5f
GAS LISTING /tmp/ccvQL2RB.s 			page 120


 6710 05ee 3A11      		.2byte	.LVL222-.Ltext0
 6711 05f0 5611      		.2byte	.LVL224-.Ltext0
 6712 05f2 0100      		.2byte	0x1
 6713 05f4 5F        		.byte	0x5f
 6714 05f5 9011      		.2byte	.LVL225-.Ltext0
 6715 05f7 9411      		.2byte	.LVL226-.Ltext0
 6716 05f9 0100      		.2byte	0x1
 6717 05fb 5F        		.byte	0x5f
 6718 05fc A011      		.2byte	.LVL227-.Ltext0
 6719 05fe B011      		.2byte	.LVL230-.Ltext0
 6720 0600 0100      		.2byte	0x1
 6721 0602 5F        		.byte	0x5f
 6722 0603 C411      		.2byte	.LVL232-.Ltext0
 6723 0605 CC11      		.2byte	.LVL234-.Ltext0
 6724 0607 0100      		.2byte	0x1
 6725 0609 5F        		.byte	0x5f
 6726 060a 0412      		.2byte	.LVL238-.Ltext0
 6727 060c 0812      		.2byte	.LVL239-.Ltext0
 6728 060e 0100      		.2byte	0x1
 6729 0610 5F        		.byte	0x5f
 6730 0611 2812      		.2byte	.LVL241-.Ltext0
 6731 0613 2E12      		.2byte	.LVL242-.Ltext0
 6732 0615 0100      		.2byte	0x1
 6733 0617 5F        		.byte	0x5f
 6734 0618 7412      		.2byte	.LVL246-.Ltext0
 6735 061a 7C12      		.2byte	.LVL248-.Ltext0
 6736 061c 0100      		.2byte	0x1
 6737 061e 5F        		.byte	0x5f
 6738 061f C612      		.2byte	.LVL250-.Ltext0
 6739 0621 D612      		.2byte	.LVL251-.Ltext0
 6740 0623 0100      		.2byte	0x1
 6741 0625 5F        		.byte	0x5f
 6742 0626 EC12      		.2byte	.LVL252-.Ltext0
 6743 0628 F012      		.2byte	.LVL253-.Ltext0
 6744 062a 0100      		.2byte	0x1
 6745 062c 5F        		.byte	0x5f
 6746 062d 2013      		.2byte	.LVL254-.Ltext0
 6747 062f 2413      		.2byte	.LVL255-.Ltext0
 6748 0631 0100      		.2byte	0x1
 6749 0633 5F        		.byte	0x5f
 6750 0634 3413      		.2byte	.LVL256-.Ltext0
 6751 0636 3C13      		.2byte	.LVL257-.Ltext0
 6752 0638 0100      		.2byte	0x1
 6753 063a 5F        		.byte	0x5f
 6754 063b 5013      		.2byte	.LVL259-.Ltext0
 6755 063d 5613      		.2byte	.LVL260-.Ltext0
 6756 063f 0100      		.2byte	0x1
 6757 0641 5F        		.byte	0x5f
 6758 0642 9E13      		.2byte	.LVL261-.Ltext0
 6759 0644 A213      		.2byte	.LVL262-.Ltext0
 6760 0646 0100      		.2byte	0x1
 6761 0648 5F        		.byte	0x5f
 6762 0649 BC13      		.2byte	.LVL263-.Ltext0
 6763 064b C413      		.2byte	.LVL265-.Ltext0
 6764 064d 0100      		.2byte	0x1
 6765 064f 5F        		.byte	0x5f
 6766 0650 1814      		.2byte	.LVL269-.Ltext0
GAS LISTING /tmp/ccvQL2RB.s 			page 121


 6767 0652 2814      		.2byte	.LVL270-.Ltext0
 6768 0654 0100      		.2byte	0x1
 6769 0656 5F        		.byte	0x5f
 6770 0657 3E14      		.2byte	.LVL271-.Ltext0
 6771 0659 4614      		.2byte	.LVL273-.Ltext0
 6772 065b 0100      		.2byte	0x1
 6773 065d 5F        		.byte	0x5f
 6774 065e 7E14      		.2byte	.LVL277-.Ltext0
 6775 0660 8614      		.2byte	.LVL279-.Ltext0
 6776 0662 0100      		.2byte	0x1
 6777 0664 5F        		.byte	0x5f
 6778 0665 CC14      		.2byte	.LVL282-.Ltext0
 6779 0667 D014      		.2byte	.LVL283-.Ltext0
 6780 0669 0100      		.2byte	0x1
 6781 066b 5F        		.byte	0x5f
 6782 066c E814      		.2byte	.LVL285-.Ltext0
 6783 066e FC14      		.2byte	.LVL286-.Ltext0
 6784 0670 0100      		.2byte	0x1
 6785 0672 5F        		.byte	0x5f
 6786 0673 1215      		.2byte	.LVL287-.Ltext0
 6787 0675 2615      		.2byte	.LVL288-.Ltext0
 6788 0677 0100      		.2byte	0x1
 6789 0679 5F        		.byte	0x5f
 6790 067a 3C15      		.2byte	.LVL289-.Ltext0
 6791 067c 4C15      		.2byte	.LVL290-.Ltext0
 6792 067e 0100      		.2byte	0x1
 6793 0680 5F        		.byte	0x5f
 6794 0681 6215      		.2byte	.LVL291-.Ltext0
 6795 0683 6415      		.2byte	.LVL292-.Ltext0
 6796 0685 0100      		.2byte	0x1
 6797 0687 5F        		.byte	0x5f
 6798 0688 6C15      		.2byte	.LVL293-.Ltext0
 6799 068a 7015      		.2byte	.LVL294-.Ltext0
 6800 068c 0100      		.2byte	0x1
 6801 068e 5F        		.byte	0x5f
 6802 068f 7415      		.2byte	.LVL295-.Ltext0
 6803 0691 8E15      		.2byte	.LVL297-.Ltext0
 6804 0693 0100      		.2byte	0x1
 6805 0695 5F        		.byte	0x5f
 6806 0696 BC15      		.2byte	.LVL300-.Ltext0
 6807 0698 C015      		.2byte	.LVL301-.Ltext0
 6808 069a 0100      		.2byte	0x1
 6809 069c 5F        		.byte	0x5f
 6810 069d CC15      		.2byte	.LVL302-.Ltext0
 6811 069f D815      		.2byte	.LVL304-.Ltext0
 6812 06a1 0100      		.2byte	0x1
 6813 06a3 5F        		.byte	0x5f
 6814 06a4 5216      		.2byte	.LVL306-.Ltext0
 6815 06a6 5E16      		.2byte	.LVL307-.Ltext0
 6816 06a8 0100      		.2byte	0x1
 6817 06aa 5F        		.byte	0x5f
 6818 06ab 7A16      		.2byte	.LVL308-.Ltext0
 6819 06ad 7E16      		.2byte	.LVL309-.Ltext0
 6820 06af 0100      		.2byte	0x1
 6821 06b1 5F        		.byte	0x5f
 6822 06b2 8216      		.2byte	.LVL310-.Ltext0
 6823 06b4 8616      		.2byte	.LVL311-.Ltext0
GAS LISTING /tmp/ccvQL2RB.s 			page 122


 6824 06b6 0100      		.2byte	0x1
 6825 06b8 5F        		.byte	0x5f
 6826 06b9 8A16      		.2byte	.LVL312-.Ltext0
 6827 06bb 8E16      		.2byte	.LVL313-.Ltext0
 6828 06bd 0100      		.2byte	0x1
 6829 06bf 5F        		.byte	0x5f
 6830 06c0 A616      		.2byte	.LVL315-.Ltext0
 6831 06c2 AE16      		.2byte	.LVL317-.Ltext0
 6832 06c4 0100      		.2byte	0x1
 6833 06c6 5F        		.byte	0x5f
 6834 06c7 CC16      		.2byte	.LVL318-.Ltext0
 6835 06c9 D416      		.2byte	.LVL320-.Ltext0
 6836 06cb 0100      		.2byte	0x1
 6837 06cd 5F        		.byte	0x5f
 6838 06ce F216      		.2byte	.LVL321-.Ltext0
 6839 06d0 FA16      		.2byte	.LVL323-.Ltext0
 6840 06d2 0100      		.2byte	0x1
 6841 06d4 5F        		.byte	0x5f
 6842 06d5 1817      		.2byte	.LVL324-.Ltext0
 6843 06d7 1C17      		.2byte	.LVL325-.Ltext0
 6844 06d9 0100      		.2byte	0x1
 6845 06db 5F        		.byte	0x5f
 6846 06dc 0000      		.2byte	0x0
 6847 06de 0000      		.2byte	0x0
 6848               	.LLST61:
 6849 06e0 8C0C      		.2byte	.LVL152-.Ltext0
 6850 06e2 960C      		.2byte	.LVL154-.Ltext0
 6851 06e4 0100      		.2byte	0x1
 6852 06e6 5F        		.byte	0x5f
 6853 06e7 BE0D      		.2byte	.LVL174-.Ltext0
 6854 06e9 C40D      		.2byte	.LVL175-.Ltext0
 6855 06eb 0100      		.2byte	0x1
 6856 06ed 5E        		.byte	0x5e
 6857 06ee 020E      		.2byte	.LVL184-.Ltext0
 6858 06f0 2C0E      		.2byte	.LVL186-.Ltext0
 6859 06f2 0100      		.2byte	0x1
 6860 06f4 5C        		.byte	0x5c
 6861 06f5 940F      		.2byte	.LVL200-.Ltext0
 6862 06f7 5610      		.2byte	.LVL202-.Ltext0
 6863 06f9 0100      		.2byte	0x1
 6864 06fb 5A        		.byte	0x5a
 6865 06fc 7610      		.2byte	.LVL206-.Ltext0
 6866 06fe A010      		.2byte	.LVL209-.Ltext0
 6867 0700 0100      		.2byte	0x1
 6868 0702 5C        		.byte	0x5c
 6869 0703 A010      		.2byte	.LVL209-.Ltext0
 6870 0705 A410      		.2byte	.LVL210-.Ltext0
 6871 0707 0100      		.2byte	0x1
 6872 0709 5F        		.byte	0x5f
 6873 070a B010      		.2byte	.LVL212-.Ltext0
 6874 070c C610      		.2byte	.LVL215-.Ltext0
 6875 070e 0100      		.2byte	0x1
 6876 0710 5E        		.byte	0x5e
 6877 0711 A011      		.2byte	.LVL227-.Ltext0
 6878 0713 A811      		.2byte	.LVL228-.Ltext0
 6879 0715 0100      		.2byte	0x1
 6880 0717 5E        		.byte	0x5e
GAS LISTING /tmp/ccvQL2RB.s 			page 123


 6881 0718 C811      		.2byte	.LVL233-.Ltext0
 6882 071a FC11      		.2byte	.LVL237-.Ltext0
 6883 071c 0100      		.2byte	0x1
 6884 071e 5E        		.byte	0x5e
 6885 071f 7812      		.2byte	.LVL247-.Ltext0
 6886 0721 C612      		.2byte	.LVL250-.Ltext0
 6887 0723 0100      		.2byte	0x1
 6888 0725 5C        		.byte	0x5c
 6889 0726 4214      		.2byte	.LVL272-.Ltext0
 6890 0728 7614      		.2byte	.LVL276-.Ltext0
 6891 072a 0100      		.2byte	0x1
 6892 072c 5E        		.byte	0x5e
 6893 072d 8A15      		.2byte	.LVL296-.Ltext0
 6894 072f B415      		.2byte	.LVL299-.Ltext0
 6895 0731 0100      		.2byte	0x1
 6896 0733 5C        		.byte	0x5c
 6897 0734 B415      		.2byte	.LVL299-.Ltext0
 6898 0736 BC15      		.2byte	.LVL300-.Ltext0
 6899 0738 0100      		.2byte	0x1
 6900 073a 5F        		.byte	0x5f
 6901 073b AA16      		.2byte	.LVL316-.Ltext0
 6902 073d CC16      		.2byte	.LVL318-.Ltext0
 6903 073f 0100      		.2byte	0x1
 6904 0741 5E        		.byte	0x5e
 6905 0742 D016      		.2byte	.LVL319-.Ltext0
 6906 0744 F216      		.2byte	.LVL321-.Ltext0
 6907 0746 0100      		.2byte	0x1
 6908 0748 5E        		.byte	0x5e
 6909 0749 F616      		.2byte	.LVL322-.Ltext0
 6910 074b 1817      		.2byte	.LVL324-.Ltext0
 6911 074d 0100      		.2byte	0x1
 6912 074f 5E        		.byte	0x5e
 6913 0750 1C17      		.2byte	.LVL325-.Ltext0
 6914 0752 2A17      		.2byte	.LVL326-.Ltext0
 6915 0754 0100      		.2byte	0x1
 6916 0756 5F        		.byte	0x5f
 6917 0757 0000      		.2byte	0x0
 6918 0759 0000      		.2byte	0x0
 6919               	.LLST62:
 6920 075b 8C0C      		.2byte	.LVL152-.Ltext0
 6921 075d 960C      		.2byte	.LVL154-.Ltext0
 6922 075f 0100      		.2byte	0x1
 6923 0761 5E        		.byte	0x5e
 6924 0762 980D      		.2byte	.LVL165-.Ltext0
 6925 0764 9A0D      		.2byte	.LVL166-.Ltext0
 6926 0766 0100      		.2byte	0x1
 6927 0768 5E        		.byte	0x5e
 6928 0769 0E0E      		.2byte	.LVL185-.Ltext0
 6929 076b 2C0E      		.2byte	.LVL186-.Ltext0
 6930 076d 0100      		.2byte	0x1
 6931 076f 5D        		.byte	0x5d
 6932 0770 6E10      		.2byte	.LVL204-.Ltext0
 6933 0772 7210      		.2byte	.LVL205-.Ltext0
 6934 0774 0100      		.2byte	0x1
 6935 0776 5E        		.byte	0x5e
 6936 0777 9210      		.2byte	.LVL208-.Ltext0
 6937 0779 AC10      		.2byte	.LVL211-.Ltext0
GAS LISTING /tmp/ccvQL2RB.s 			page 124


 6938 077b 0100      		.2byte	0x1
 6939 077d 5E        		.byte	0x5e
 6940 077e C810      		.2byte	.LVL216-.Ltext0
 6941 0780 E010      		.2byte	.LVL217-.Ltext0
 6942 0782 0100      		.2byte	0x1
 6943 0784 5E        		.byte	0x5e
 6944 0785 C011      		.2byte	.LVL231-.Ltext0
 6945 0787 C411      		.2byte	.LVL232-.Ltext0
 6946 0789 0100      		.2byte	0x1
 6947 078b 5E        		.byte	0x5e
 6948 078c E411      		.2byte	.LVL235-.Ltext0
 6949 078e 0412      		.2byte	.LVL238-.Ltext0
 6950 0790 0100      		.2byte	0x1
 6951 0792 5F        		.byte	0x5f
 6952 0793 1012      		.2byte	.LVL240-.Ltext0
 6953 0795 2812      		.2byte	.LVL241-.Ltext0
 6954 0797 0100      		.2byte	0x1
 6955 0799 5E        		.byte	0x5e
 6956 079a 3612      		.2byte	.LVL243-.Ltext0
 6957 079c 7412      		.2byte	.LVL246-.Ltext0
 6958 079e 0100      		.2byte	0x1
 6959 07a0 58        		.byte	0x58
 6960 07a1 9412      		.2byte	.LVL249-.Ltext0
 6961 07a3 C612      		.2byte	.LVL250-.Ltext0
 6962 07a5 0100      		.2byte	0x1
 6963 07a7 5B        		.byte	0x5b
 6964 07a8 4C13      		.2byte	.LVL258-.Ltext0
 6965 07aa 5013      		.2byte	.LVL259-.Ltext0
 6966 07ac 0100      		.2byte	0x1
 6967 07ae 5E        		.byte	0x5e
 6968 07af 5E14      		.2byte	.LVL274-.Ltext0
 6969 07b1 7E14      		.2byte	.LVL277-.Ltext0
 6970 07b3 0100      		.2byte	0x1
 6971 07b5 5F        		.byte	0x5f
 6972 07b6 A615      		.2byte	.LVL298-.Ltext0
 6973 07b8 BC15      		.2byte	.LVL300-.Ltext0
 6974 07ba 0100      		.2byte	0x1
 6975 07bc 5E        		.byte	0x5e
 6976 07bd 0000      		.2byte	0x0
 6977 07bf 0000      		.2byte	0x0
 6978               	.LLST63:
 6979 07c1 8C0C      		.2byte	.LVL152-.Ltext0
 6980 07c3 960C      		.2byte	.LVL154-.Ltext0
 6981 07c5 0100      		.2byte	0x1
 6982 07c7 5C        		.byte	0x5c
 6983 07c8 4412      		.2byte	.LVL244-.Ltext0
 6984 07ca 7412      		.2byte	.LVL246-.Ltext0
 6985 07cc 0100      		.2byte	0x1
 6986 07ce 5C        		.byte	0x5c
 6987 07cf 0000      		.2byte	0x0
 6988 07d1 0000      		.2byte	0x0
 6989               	.LLST64:
 6990 07d3 8C0C      		.2byte	.LVL152-.Ltext0
 6991 07d5 900C      		.2byte	.LVL153-.Ltext0
 6992 07d7 0100      		.2byte	0x1
 6993 07d9 59        		.byte	0x59
 6994 07da 5012      		.2byte	.LVL245-.Ltext0
GAS LISTING /tmp/ccvQL2RB.s 			page 125


 6995 07dc 7412      		.2byte	.LVL246-.Ltext0
 6996 07de 0100      		.2byte	0x1
 6997 07e0 59        		.byte	0x59
 6998 07e1 0000      		.2byte	0x0
 6999 07e3 0000      		.2byte	0x0
 7000               	.LLST65:
 7001 07e5 420C      		.2byte	.LVL150-.Ltext0
 7002 07e7 960C      		.2byte	.LVL154-.Ltext0
 7003 07e9 0100      		.2byte	0x1
 7004 07eb 5D        		.byte	0x5d
 7005 07ec 0000      		.2byte	0x0
 7006 07ee 0000      		.2byte	0x0
 7007               	.LLST66:
 7008 07f0 8C0C      		.2byte	.LVL152-.Ltext0
 7009 07f2 960C      		.2byte	.LVL154-.Ltext0
 7010 07f4 0100      		.2byte	0x1
 7011 07f6 5E        		.byte	0x5e
 7012 07f7 320D      		.2byte	.LVL159-.Ltext0
 7013 07f9 580D      		.2byte	.LVL160-.Ltext0
 7014 07fb 0100      		.2byte	0x1
 7015 07fd 5E        		.byte	0x5e
 7016 07fe 0000      		.2byte	0x0
 7017 0800 0000      		.2byte	0x0
 7018               	.LLST67:
 7019 0802 8C0C      		.2byte	.LVL152-.Ltext0
 7020 0804 960C      		.2byte	.LVL154-.Ltext0
 7021 0806 0100      		.2byte	0x1
 7022 0808 5E        		.byte	0x5e
 7023 0809 7E0D      		.2byte	.LVL164-.Ltext0
 7024 080b 9A0D      		.2byte	.LVL166-.Ltext0
 7025 080d 0100      		.2byte	0x1
 7026 080f 5E        		.byte	0x5e
 7027 0810 3217      		.2byte	.LVL327-.Ltext0
 7028 0812 3617      		.2byte	.LFE30-.Ltext0
 7029 0814 0100      		.2byte	0x1
 7030 0816 5E        		.byte	0x5e
 7031 0817 0000      		.2byte	0x0
 7032 0819 0000      		.2byte	0x0
 7033               	.LLST68:
 7034 081b CE0D      		.2byte	.LVL178-.Ltext0
 7035 081d E20D      		.2byte	.LVL179-.Ltext0
 7036 081f 0100      		.2byte	0x1
 7037 0821 5F        		.byte	0x5f
 7038 0822 0000      		.2byte	0x0
 7039 0824 0000      		.2byte	0x0
 7040               	.LLST69:
 7041 0826 8C0C      		.2byte	.LVL152-.Ltext0
 7042 0828 960C      		.2byte	.LVL154-.Ltext0
 7043 082a 0100      		.2byte	0x1
 7044 082c 5C        		.byte	0x5c
 7045 082d C60E      		.2byte	.LVL192-.Ltext0
 7046 082f D60E      		.2byte	.LVL193-.Ltext0
 7047 0831 0100      		.2byte	0x1
 7048 0833 5C        		.byte	0x5c
 7049 0834 FC10      		.2byte	.LVL220-.Ltext0
 7050 0836 3A11      		.2byte	.LVL222-.Ltext0
 7051 0838 0100      		.2byte	0x1
GAS LISTING /tmp/ccvQL2RB.s 			page 126


 7052 083a 5C        		.byte	0x5c
 7053 083b 0000      		.2byte	0x0
 7054 083d 0000      		.2byte	0x0
 7055               	.LLST70:
 7056 083f 8C0C      		.2byte	.LVL152-.Ltext0
 7057 0841 960C      		.2byte	.LVL154-.Ltext0
 7058 0843 0100      		.2byte	0x1
 7059 0845 5D        		.byte	0x5d
 7060 0846 4A11      		.2byte	.LVL223-.Ltext0
 7061 0848 9011      		.2byte	.LVL225-.Ltext0
 7062 084a 0100      		.2byte	0x1
 7063 084c 5D        		.byte	0x5d
 7064 084d 0000      		.2byte	0x0
 7065 084f 0000      		.2byte	0x0
 7066               	.LLST71:
 7067 0851 8C0C      		.2byte	.LVL152-.Ltext0
 7068 0853 960C      		.2byte	.LVL154-.Ltext0
 7069 0855 0100      		.2byte	0x1
 7070 0857 5E        		.byte	0x5e
 7071 0858 AC11      		.2byte	.LVL229-.Ltext0
 7072 085a C411      		.2byte	.LVL232-.Ltext0
 7073 085c 0100      		.2byte	0x1
 7074 085e 5E        		.byte	0x5e
 7075 085f 0000      		.2byte	0x0
 7076 0861 0000      		.2byte	0x0
 7077               	.LLST72:
 7078 0863 C013      		.2byte	.LVL264-.Ltext0
 7079 0865 1014      		.2byte	.LVL268-.Ltext0
 7080 0867 0100      		.2byte	0x1
 7081 0869 59        		.byte	0x59
 7082 086a 0000      		.2byte	0x0
 7083 086c 0000      		.2byte	0x0
 7084               	.LLST73:
 7085 086e DC13      		.2byte	.LVL266-.Ltext0
 7086 0870 FE13      		.2byte	.LVL267-.Ltext0
 7087 0872 0100      		.2byte	0x1
 7088 0874 5A        		.byte	0x5a
 7089 0875 0000      		.2byte	0x0
 7090 0877 0000      		.2byte	0x0
 7091               	.LLST74:
 7092 0879 8214      		.2byte	.LVL278-.Ltext0
 7093 087b A214      		.2byte	.LVL280-.Ltext0
 7094 087d 0100      		.2byte	0x1
 7095 087f 5C        		.byte	0x5c
 7096 0880 0000      		.2byte	0x0
 7097 0882 0000      		.2byte	0x0
 7098               	.LLST75:
 7099 0884 8C0C      		.2byte	.LVL152-.Ltext0
 7100 0886 960C      		.2byte	.LVL154-.Ltext0
 7101 0888 0100      		.2byte	0x1
 7102 088a 5C        		.byte	0x5c
 7103 088b A214      		.2byte	.LVL280-.Ltext0
 7104 088d CC14      		.2byte	.LVL282-.Ltext0
 7105 088f 0100      		.2byte	0x1
 7106 0891 5C        		.byte	0x5c
 7107 0892 0000      		.2byte	0x0
 7108 0894 0000      		.2byte	0x0
GAS LISTING /tmp/ccvQL2RB.s 			page 127


 7109               	.LLST76:
 7110 0896 8C0C      		.2byte	.LVL152-.Ltext0
 7111 0898 960C      		.2byte	.LVL154-.Ltext0
 7112 089a 0100      		.2byte	0x1
 7113 089c 5E        		.byte	0x5e
 7114 089d B814      		.2byte	.LVL281-.Ltext0
 7115 089f CC14      		.2byte	.LVL282-.Ltext0
 7116 08a1 0100      		.2byte	0x1
 7117 08a3 5E        		.byte	0x5e
 7118 08a4 0000      		.2byte	0x0
 7119 08a6 0000      		.2byte	0x0
 7120               	.LLST77:
 7121 08a8 D014      		.2byte	.LVL283-.Ltext0
 7122 08aa E414      		.2byte	.LVL284-.Ltext0
 7123 08ac 0100      		.2byte	0x1
 7124 08ae 5F        		.byte	0x5f
 7125 08af 0000      		.2byte	0x0
 7126 08b1 0000      		.2byte	0x0
 7127               	.LLST78:
 7128 08b3 8C0C      		.2byte	.LVL152-.Ltext0
 7129 08b5 960C      		.2byte	.LVL154-.Ltext0
 7130 08b7 0100      		.2byte	0x1
 7131 08b9 5D        		.byte	0x5d
 7132 08ba D415      		.2byte	.LVL303-.Ltext0
 7133 08bc 0016      		.2byte	.LVL305-.Ltext0
 7134 08be 0100      		.2byte	0x1
 7135 08c0 5D        		.byte	0x5d
 7136 08c1 0000      		.2byte	0x0
 7137 08c3 0000      		.2byte	0x0
 7138               	.LLST79:
 7139 08c5 8C0C      		.2byte	.LVL152-.Ltext0
 7140 08c7 960C      		.2byte	.LVL154-.Ltext0
 7141 08c9 0100      		.2byte	0x1
 7142 08cb 5D        		.byte	0x5d
 7143 08cc 0016      		.2byte	.LVL305-.Ltext0
 7144 08ce 5216      		.2byte	.LVL306-.Ltext0
 7145 08d0 0100      		.2byte	0x1
 7146 08d2 5D        		.byte	0x5d
 7147 08d3 0000      		.2byte	0x0
 7148 08d5 0000      		.2byte	0x0
 7149               	.LLST80:
 7150 08d7 8E16      		.2byte	.LVL313-.Ltext0
 7151 08d9 A216      		.2byte	.LVL314-.Ltext0
 7152 08db 0100      		.2byte	0x1
 7153 08dd 5F        		.byte	0x5f
 7154 08de 0000      		.2byte	0x0
 7155 08e0 0000      		.2byte	0x0
 7156               	.LLST82:
 7157 08e2 3A17      		.2byte	.LVL328-.Ltext0
 7158 08e4 8617      		.2byte	.LVL330-.Ltext0
 7159 08e6 0100      		.2byte	0x1
 7160 08e8 5F        		.byte	0x5f
 7161 08e9 9017      		.2byte	.LVL331-.Ltext0
 7162 08eb 9417      		.2byte	.LVL332-.Ltext0
 7163 08ed 0100      		.2byte	0x1
 7164 08ef 5F        		.byte	0x5f
 7165 08f0 0000      		.2byte	0x0
GAS LISTING /tmp/ccvQL2RB.s 			page 128


 7166 08f2 0000      		.2byte	0x0
 7167               	.LLST83:
 7168 08f4 9A17      		.2byte	.LFB31-.Ltext0
 7169 08f6 9C17      		.2byte	.LCFI36-.Ltext0
 7170 08f8 0200      		.2byte	0x2
 7171 08fa 71        		.byte	0x71
 7172 08fb 02        		.sleb128 2
 7173 08fc 9C17      		.2byte	.LCFI36-.Ltext0
 7174 08fe 9E17      		.2byte	.LCFI37-.Ltext0
 7175 0900 0200      		.2byte	0x2
 7176 0902 71        		.byte	0x71
 7177 0903 04        		.sleb128 4
 7178 0904 9E17      		.2byte	.LCFI37-.Ltext0
 7179 0906 FC17      		.2byte	.LFE31-.Ltext0
 7180 0908 0200      		.2byte	0x2
 7181 090a 71        		.byte	0x71
 7182 090b 06        		.sleb128 6
 7183 090c 0000      		.2byte	0x0
 7184 090e 0000      		.2byte	0x0
 7185               	.LLST84:
 7186 0910 AE17      		.2byte	.LVL333-.Ltext0
 7187 0912 B017      		.2byte	.LVL334-.Ltext0
 7188 0914 0100      		.2byte	0x1
 7189 0916 5F        		.byte	0x5f
 7190 0917 B817      		.2byte	.LVL335-.Ltext0
 7191 0919 DE17      		.2byte	.LVL337-.Ltext0
 7192 091b 0100      		.2byte	0x1
 7193 091d 5F        		.byte	0x5f
 7194 091e E417      		.2byte	.LVL338-.Ltext0
 7195 0920 F217      		.2byte	.LVL339-.Ltext0
 7196 0922 0100      		.2byte	0x1
 7197 0924 5F        		.byte	0x5f
 7198 0925 0000      		.2byte	0x0
 7199 0927 0000      		.2byte	0x0
 7200               		.section	.debug_info
 7201 0000 F922 0000 		.4byte	0x22f9
 7202 0004 0200      		.2byte	0x2
 7203 0006 0000 0000 		.4byte	.Ldebug_abbrev0
 7204 000a 02        		.byte	0x2
 7205 000b 01        		.uleb128 0x1
 7206 000c 0000 0000 		.4byte	.LASF277
 7207 0010 01        		.byte	0x1
 7208 0011 782E 6300 		.string	"x.c"
 7209 0015 0000 0000 		.4byte	.LASF278
 7210 0019 0000      		.2byte	.Ltext0
 7211 001b 0000      		.2byte	.Letext0
 7212 001d 0000 0000 		.4byte	.Ldebug_line0
 7213 0021 02        		.uleb128 0x2
 7214 0022 01        		.byte	0x1
 7215 0023 06        		.byte	0x6
 7216 0024 0000 0000 		.4byte	.LASF0
 7217 0028 03        		.uleb128 0x3
 7218 0029 0000 0000 		.4byte	.LASF2
 7219 002d 02        		.byte	0x2
 7220 002e 27        		.byte	0x27
 7221 002f 3300 0000 		.4byte	0x33
 7222 0033 02        		.uleb128 0x2
GAS LISTING /tmp/ccvQL2RB.s 			page 129


 7223 0034 01        		.byte	0x1
 7224 0035 08        		.byte	0x8
 7225 0036 0000 0000 		.4byte	.LASF1
 7226 003a 03        		.uleb128 0x3
 7227 003b 0000 0000 		.4byte	.LASF3
 7228 003f 02        		.byte	0x2
 7229 0040 29        		.byte	0x29
 7230 0041 4500 0000 		.4byte	0x45
 7231 0045 04        		.uleb128 0x4
 7232 0046 02        		.byte	0x2
 7233 0047 05        		.byte	0x5
 7234 0048 696E 7400 		.string	"int"
 7235 004c 03        		.uleb128 0x3
 7236 004d 0000 0000 		.4byte	.LASF4
 7237 0051 02        		.byte	0x2
 7238 0052 2A        		.byte	0x2a
 7239 0053 5700 0000 		.4byte	0x57
 7240 0057 02        		.uleb128 0x2
 7241 0058 02        		.byte	0x2
 7242 0059 07        		.byte	0x7
 7243 005a 0000 0000 		.4byte	.LASF5
 7244 005e 03        		.uleb128 0x3
 7245 005f 0000 0000 		.4byte	.LASF6
 7246 0063 02        		.byte	0x2
 7247 0064 2C        		.byte	0x2c
 7248 0065 6900 0000 		.4byte	0x69
 7249 0069 02        		.uleb128 0x2
 7250 006a 04        		.byte	0x4
 7251 006b 05        		.byte	0x5
 7252 006c 0000 0000 		.4byte	.LASF7
 7253 0070 02        		.uleb128 0x2
 7254 0071 04        		.byte	0x4
 7255 0072 07        		.byte	0x7
 7256 0073 0000 0000 		.4byte	.LASF8
 7257 0077 02        		.uleb128 0x2
 7258 0078 08        		.byte	0x8
 7259 0079 05        		.byte	0x5
 7260 007a 0000 0000 		.4byte	.LASF9
 7261 007e 02        		.uleb128 0x2
 7262 007f 08        		.byte	0x8
 7263 0080 07        		.byte	0x7
 7264 0081 0000 0000 		.4byte	.LASF10
 7265 0085 05        		.uleb128 0x5
 7266 0086 02        		.byte	0x2
 7267 0087 03        		.byte	0x3
 7268 0088 1701      		.2byte	0x117
 7269 008a 0D01 0000 		.4byte	0x10d
 7270 008e 06        		.uleb128 0x6
 7271 008f 0000 0000 		.4byte	.LASF11
 7272 0093 03        		.byte	0x3
 7273 0094 1901      		.2byte	0x119
 7274 0096 0D01 0000 		.4byte	0x10d
 7275 009a 02        		.byte	0x2
 7276 009b 01        		.byte	0x1
 7277 009c 0F        		.byte	0xf
 7278 009d 02        		.byte	0x2
 7279 009e 23        		.byte	0x23
GAS LISTING /tmp/ccvQL2RB.s 			page 130


 7280 009f 00        		.uleb128 0x0
 7281 00a0 06        		.uleb128 0x6
 7282 00a1 0000 0000 		.4byte	.LASF12
 7283 00a5 03        		.byte	0x3
 7284 00a6 1A01      		.2byte	0x11a
 7285 00a8 0D01 0000 		.4byte	0x10d
 7286 00ac 02        		.byte	0x2
 7287 00ad 01        		.byte	0x1
 7288 00ae 0E        		.byte	0xe
 7289 00af 02        		.byte	0x2
 7290 00b0 23        		.byte	0x23
 7291 00b1 00        		.uleb128 0x0
 7292 00b2 06        		.uleb128 0x6
 7293 00b3 0000 0000 		.4byte	.LASF13
 7294 00b7 03        		.byte	0x3
 7295 00b8 1B01      		.2byte	0x11b
 7296 00ba 0D01 0000 		.4byte	0x10d
 7297 00be 02        		.byte	0x2
 7298 00bf 01        		.byte	0x1
 7299 00c0 0D        		.byte	0xd
 7300 00c1 02        		.byte	0x2
 7301 00c2 23        		.byte	0x23
 7302 00c3 00        		.uleb128 0x0
 7303 00c4 06        		.uleb128 0x6
 7304 00c5 0000 0000 		.4byte	.LASF14
 7305 00c9 03        		.byte	0x3
 7306 00ca 1C01      		.2byte	0x11c
 7307 00cc 0D01 0000 		.4byte	0x10d
 7308 00d0 02        		.byte	0x2
 7309 00d1 01        		.byte	0x1
 7310 00d2 0C        		.byte	0xc
 7311 00d3 02        		.byte	0x2
 7312 00d4 23        		.byte	0x23
 7313 00d5 00        		.uleb128 0x0
 7314 00d6 06        		.uleb128 0x6
 7315 00d7 0000 0000 		.4byte	.LASF15
 7316 00db 03        		.byte	0x3
 7317 00dc 1D01      		.2byte	0x11d
 7318 00de 0D01 0000 		.4byte	0x10d
 7319 00e2 02        		.byte	0x2
 7320 00e3 02        		.byte	0x2
 7321 00e4 0A        		.byte	0xa
 7322 00e5 02        		.byte	0x2
 7323 00e6 23        		.byte	0x23
 7324 00e7 00        		.uleb128 0x0
 7325 00e8 06        		.uleb128 0x6
 7326 00e9 0000 0000 		.4byte	.LASF16
 7327 00ed 03        		.byte	0x3
 7328 00ee 1E01      		.2byte	0x11e
 7329 00f0 0D01 0000 		.4byte	0x10d
 7330 00f4 02        		.byte	0x2
 7331 00f5 02        		.byte	0x2
 7332 00f6 08        		.byte	0x8
 7333 00f7 02        		.byte	0x2
 7334 00f8 23        		.byte	0x23
 7335 00f9 00        		.uleb128 0x0
 7336 00fa 06        		.uleb128 0x6
GAS LISTING /tmp/ccvQL2RB.s 			page 131


 7337 00fb 0000 0000 		.4byte	.LASF17
 7338 00ff 03        		.byte	0x3
 7339 0100 1F01      		.2byte	0x11f
 7340 0102 0D01 0000 		.4byte	0x10d
 7341 0106 02        		.byte	0x2
 7342 0107 02        		.byte	0x2
 7343 0108 0E        		.byte	0xe
 7344 0109 02        		.byte	0x2
 7345 010a 23        		.byte	0x23
 7346 010b 01        		.uleb128 0x1
 7347 010c 00        		.byte	0x0
 7348 010d 07        		.uleb128 0x7
 7349 010e 5700 0000 		.4byte	0x57
 7350 0112 08        		.uleb128 0x8
 7351 0113 0000 0000 		.4byte	.LASF18
 7352 0117 03        		.byte	0x3
 7353 0118 2001      		.2byte	0x120
 7354 011a 8500 0000 		.4byte	0x85
 7355 011e 05        		.uleb128 0x5
 7356 011f 02        		.byte	0x2
 7357 0120 03        		.byte	0x3
 7358 0121 2201      		.2byte	0x122
 7359 0123 FF01 0000 		.4byte	0x1ff
 7360 0127 06        		.uleb128 0x6
 7361 0128 0000 0000 		.4byte	.LASF19
 7362 012c 03        		.byte	0x3
 7363 012d 2401      		.2byte	0x124
 7364 012f 0D01 0000 		.4byte	0x10d
 7365 0133 02        		.byte	0x2
 7366 0134 01        		.byte	0x1
 7367 0135 0F        		.byte	0xf
 7368 0136 02        		.byte	0x2
 7369 0137 23        		.byte	0x23
 7370 0138 00        		.uleb128 0x0
 7371 0139 09        		.uleb128 0x9
 7372 013a 636F 7600 		.string	"cov"
 7373 013e 03        		.byte	0x3
 7374 013f 2501      		.2byte	0x125
 7375 0141 0D01 0000 		.4byte	0x10d
 7376 0145 02        		.byte	0x2
 7377 0146 01        		.byte	0x1
 7378 0147 0E        		.byte	0xe
 7379 0148 02        		.byte	0x2
 7380 0149 23        		.byte	0x23
 7381 014a 00        		.uleb128 0x0
 7382 014b 09        		.uleb128 0x9
 7383 014c 6F75 7400 		.string	"out"
 7384 0150 03        		.byte	0x3
 7385 0151 2601      		.2byte	0x126
 7386 0153 0D01 0000 		.4byte	0x10d
 7387 0157 02        		.byte	0x2
 7388 0158 01        		.byte	0x1
 7389 0159 0D        		.byte	0xd
 7390 015a 02        		.byte	0x2
 7391 015b 23        		.byte	0x23
 7392 015c 00        		.uleb128 0x0
 7393 015d 09        		.uleb128 0x9
GAS LISTING /tmp/ccvQL2RB.s 			page 132


 7394 015e 6363 6900 		.string	"cci"
 7395 0162 03        		.byte	0x3
 7396 0163 2701      		.2byte	0x127
 7397 0165 0D01 0000 		.4byte	0x10d
 7398 0169 02        		.byte	0x2
 7399 016a 01        		.byte	0x1
 7400 016b 0C        		.byte	0xc
 7401 016c 02        		.byte	0x2
 7402 016d 23        		.byte	0x23
 7403 016e 00        		.uleb128 0x0
 7404 016f 06        		.uleb128 0x6
 7405 0170 0000 0000 		.4byte	.LASF20
 7406 0174 03        		.byte	0x3
 7407 0175 2801      		.2byte	0x128
 7408 0177 0D01 0000 		.4byte	0x10d
 7409 017b 02        		.byte	0x2
 7410 017c 01        		.byte	0x1
 7411 017d 0B        		.byte	0xb
 7412 017e 02        		.byte	0x2
 7413 017f 23        		.byte	0x23
 7414 0180 00        		.uleb128 0x0
 7415 0181 06        		.uleb128 0x6
 7416 0182 0000 0000 		.4byte	.LASF21
 7417 0186 03        		.byte	0x3
 7418 0187 2901      		.2byte	0x129
 7419 0189 0D01 0000 		.4byte	0x10d
 7420 018d 02        		.byte	0x2
 7421 018e 03        		.byte	0x3
 7422 018f 08        		.byte	0x8
 7423 0190 02        		.byte	0x2
 7424 0191 23        		.byte	0x23
 7425 0192 00        		.uleb128 0x0
 7426 0193 09        		.uleb128 0x9
 7427 0194 6361 7000 		.string	"cap"
 7428 0198 03        		.byte	0x3
 7429 0199 2A01      		.2byte	0x12a
 7430 019b 0D01 0000 		.4byte	0x10d
 7431 019f 02        		.byte	0x2
 7432 01a0 01        		.byte	0x1
 7433 01a1 0F        		.byte	0xf
 7434 01a2 02        		.byte	0x2
 7435 01a3 23        		.byte	0x23
 7436 01a4 01        		.uleb128 0x1
 7437 01a5 06        		.uleb128 0x6
 7438 01a6 0000 0000 		.4byte	.LASF14
 7439 01aa 03        		.byte	0x3
 7440 01ab 2B01      		.2byte	0x12b
 7441 01ad 0D01 0000 		.4byte	0x10d
 7442 01b1 02        		.byte	0x2
 7443 01b2 01        		.byte	0x1
 7444 01b3 0E        		.byte	0xe
 7445 01b4 02        		.byte	0x2
 7446 01b5 23        		.byte	0x23
 7447 01b6 01        		.uleb128 0x1
 7448 01b7 06        		.uleb128 0x6
 7449 01b8 0000 0000 		.4byte	.LASF22
 7450 01bc 03        		.byte	0x3
GAS LISTING /tmp/ccvQL2RB.s 			page 133


 7451 01bd 2C01      		.2byte	0x12c
 7452 01bf 0D01 0000 		.4byte	0x10d
 7453 01c3 02        		.byte	0x2
 7454 01c4 01        		.byte	0x1
 7455 01c5 0D        		.byte	0xd
 7456 01c6 02        		.byte	0x2
 7457 01c7 23        		.byte	0x23
 7458 01c8 01        		.uleb128 0x1
 7459 01c9 09        		.uleb128 0x9
 7460 01ca 7363 7300 		.string	"scs"
 7461 01ce 03        		.byte	0x3
 7462 01cf 2D01      		.2byte	0x12d
 7463 01d1 0D01 0000 		.4byte	0x10d
 7464 01d5 02        		.byte	0x2
 7465 01d6 01        		.byte	0x1
 7466 01d7 0C        		.byte	0xc
 7467 01d8 02        		.byte	0x2
 7468 01d9 23        		.byte	0x23
 7469 01da 01        		.uleb128 0x1
 7470 01db 06        		.uleb128 0x6
 7471 01dc 0000 0000 		.4byte	.LASF23
 7472 01e0 03        		.byte	0x3
 7473 01e1 2E01      		.2byte	0x12e
 7474 01e3 0D01 0000 		.4byte	0x10d
 7475 01e7 02        		.byte	0x2
 7476 01e8 02        		.byte	0x2
 7477 01e9 0A        		.byte	0xa
 7478 01ea 02        		.byte	0x2
 7479 01eb 23        		.byte	0x23
 7480 01ec 01        		.uleb128 0x1
 7481 01ed 09        		.uleb128 0x9
 7482 01ee 636D 00   		.string	"cm"
 7483 01f1 03        		.byte	0x3
 7484 01f2 2F01      		.2byte	0x12f
 7485 01f4 0D01 0000 		.4byte	0x10d
 7486 01f8 02        		.byte	0x2
 7487 01f9 02        		.byte	0x2
 7488 01fa 08        		.byte	0x8
 7489 01fb 02        		.byte	0x2
 7490 01fc 23        		.byte	0x23
 7491 01fd 01        		.uleb128 0x1
 7492 01fe 00        		.byte	0x0
 7493 01ff 08        		.uleb128 0x8
 7494 0200 0000 0000 		.4byte	.LASF24
 7495 0204 03        		.byte	0x3
 7496 0205 3001      		.2byte	0x130
 7497 0207 1E01 0000 		.4byte	0x11e
 7498 020b 0A        		.uleb128 0xa
 7499 020c 0000 0000 		.4byte	.LASF42
 7500 0210 16        		.byte	0x16
 7501 0211 03        		.byte	0x3
 7502 0212 3401      		.2byte	0x134
 7503 0214 9102 0000 		.4byte	0x291
 7504 0218 0B        		.uleb128 0xb
 7505 0219 6374 6C00 		.string	"ctl"
 7506 021d 03        		.byte	0x3
 7507 021e 3501      		.2byte	0x135
GAS LISTING /tmp/ccvQL2RB.s 			page 134


 7508 0220 1201 0000 		.4byte	0x112
 7509 0224 02        		.byte	0x2
 7510 0225 23        		.byte	0x23
 7511 0226 00        		.uleb128 0x0
 7512 0227 0C        		.uleb128 0xc
 7513 0228 0000 0000 		.4byte	.LASF25
 7514 022c 03        		.byte	0x3
 7515 022d 3601      		.2byte	0x136
 7516 022f FF01 0000 		.4byte	0x1ff
 7517 0233 02        		.byte	0x2
 7518 0234 23        		.byte	0x23
 7519 0235 02        		.uleb128 0x2
 7520 0236 0C        		.uleb128 0xc
 7521 0237 0000 0000 		.4byte	.LASF26
 7522 023b 03        		.byte	0x3
 7523 023c 3701      		.2byte	0x137
 7524 023e FF01 0000 		.4byte	0x1ff
 7525 0242 02        		.byte	0x2
 7526 0243 23        		.byte	0x23
 7527 0244 04        		.uleb128 0x4
 7528 0245 0C        		.uleb128 0xc
 7529 0246 0000 0000 		.4byte	.LASF27
 7530 024a 03        		.byte	0x3
 7531 024b 3B01      		.2byte	0x13b
 7532 024d A402 0000 		.4byte	0x2a4
 7533 0251 02        		.byte	0x2
 7534 0252 23        		.byte	0x23
 7535 0253 06        		.uleb128 0x6
 7536 0254 0C        		.uleb128 0xc
 7537 0255 0000 0000 		.4byte	.LASF28
 7538 0259 03        		.byte	0x3
 7539 025a 3D01      		.2byte	0x13d
 7540 025c B902 0000 		.4byte	0x2b9
 7541 0260 02        		.byte	0x2
 7542 0261 23        		.byte	0x23
 7543 0262 08        		.uleb128 0x8
 7544 0263 0B        		.uleb128 0xb
 7545 0264 7461 7200 		.string	"tar"
 7546 0268 03        		.byte	0x3
 7547 0269 3E01      		.2byte	0x13e
 7548 026b 0D01 0000 		.4byte	0x10d
 7549 026f 02        		.byte	0x2
 7550 0270 23        		.byte	0x23
 7551 0271 10        		.uleb128 0x10
 7552 0272 0C        		.uleb128 0xc
 7553 0273 0000 0000 		.4byte	.LASF29
 7554 0277 03        		.byte	0x3
 7555 0278 3F01      		.2byte	0x13f
 7556 027a 0D01 0000 		.4byte	0x10d
 7557 027e 02        		.byte	0x2
 7558 027f 23        		.byte	0x23
 7559 0280 12        		.uleb128 0x12
 7560 0281 0C        		.uleb128 0xc
 7561 0282 0000 0000 		.4byte	.LASF30
 7562 0286 03        		.byte	0x3
 7563 0287 4001      		.2byte	0x140
 7564 0289 0D01 0000 		.4byte	0x10d
GAS LISTING /tmp/ccvQL2RB.s 			page 135


 7565 028d 02        		.byte	0x2
 7566 028e 23        		.byte	0x23
 7567 028f 14        		.uleb128 0x14
 7568 0290 00        		.byte	0x0
 7569 0291 0D        		.uleb128 0xd
 7570 0292 5700 0000 		.4byte	0x57
 7571 0296 A102 0000 		.4byte	0x2a1
 7572 029a 0E        		.uleb128 0xe
 7573 029b A102 0000 		.4byte	0x2a1
 7574 029f 00        		.byte	0x0
 7575 02a0 00        		.byte	0x0
 7576 02a1 0F        		.uleb128 0xf
 7577 02a2 02        		.byte	0x2
 7578 02a3 07        		.byte	0x7
 7579 02a4 07        		.uleb128 0x7
 7580 02a5 9102 0000 		.4byte	0x291
 7581 02a9 0D        		.uleb128 0xd
 7582 02aa 5700 0000 		.4byte	0x57
 7583 02ae B902 0000 		.4byte	0x2b9
 7584 02b2 0E        		.uleb128 0xe
 7585 02b3 A102 0000 		.4byte	0x2a1
 7586 02b7 03        		.byte	0x3
 7587 02b8 00        		.byte	0x0
 7588 02b9 07        		.uleb128 0x7
 7589 02ba A902 0000 		.4byte	0x2a9
 7590 02be 10        		.uleb128 0x10
 7591 02bf 02        		.byte	0x2
 7592 02c0 04        		.byte	0x4
 7593 02c1 1D        		.byte	0x1d
 7594 02c2 4F03 0000 		.4byte	0x34f
 7595 02c6 11        		.uleb128 0x11
 7596 02c7 0000 0000 		.4byte	.LASF31
 7597 02cb 04        		.byte	0x4
 7598 02cc 1E        		.byte	0x1e
 7599 02cd 3300 0000 		.4byte	0x33
 7600 02d1 01        		.byte	0x1
 7601 02d2 01        		.byte	0x1
 7602 02d3 07        		.byte	0x7
 7603 02d4 02        		.byte	0x2
 7604 02d5 23        		.byte	0x23
 7605 02d6 00        		.uleb128 0x0
 7606 02d7 11        		.uleb128 0x11
 7607 02d8 0000 0000 		.4byte	.LASF32
 7608 02dc 04        		.byte	0x4
 7609 02dd 1F        		.byte	0x1f
 7610 02de 3300 0000 		.4byte	0x33
 7611 02e2 01        		.byte	0x1
 7612 02e3 01        		.byte	0x1
 7613 02e4 06        		.byte	0x6
 7614 02e5 02        		.byte	0x2
 7615 02e6 23        		.byte	0x23
 7616 02e7 00        		.uleb128 0x0
 7617 02e8 11        		.uleb128 0x11
 7618 02e9 0000 0000 		.4byte	.LASF33
 7619 02ed 04        		.byte	0x4
 7620 02ee 20        		.byte	0x20
 7621 02ef 3300 0000 		.4byte	0x33
GAS LISTING /tmp/ccvQL2RB.s 			page 136


 7622 02f3 01        		.byte	0x1
 7623 02f4 01        		.byte	0x1
 7624 02f5 05        		.byte	0x5
 7625 02f6 02        		.byte	0x2
 7626 02f7 23        		.byte	0x23
 7627 02f8 00        		.uleb128 0x0
 7628 02f9 11        		.uleb128 0x11
 7629 02fa 0000 0000 		.4byte	.LASF34
 7630 02fe 04        		.byte	0x4
 7631 02ff 21        		.byte	0x21
 7632 0300 3300 0000 		.4byte	0x33
 7633 0304 01        		.byte	0x1
 7634 0305 01        		.byte	0x1
 7635 0306 04        		.byte	0x4
 7636 0307 02        		.byte	0x2
 7637 0308 23        		.byte	0x23
 7638 0309 00        		.uleb128 0x0
 7639 030a 11        		.uleb128 0x11
 7640 030b 0000 0000 		.4byte	.LASF35
 7641 030f 04        		.byte	0x4
 7642 0310 22        		.byte	0x22
 7643 0311 3300 0000 		.4byte	0x33
 7644 0315 01        		.byte	0x1
 7645 0316 01        		.byte	0x1
 7646 0317 03        		.byte	0x3
 7647 0318 02        		.byte	0x2
 7648 0319 23        		.byte	0x23
 7649 031a 00        		.uleb128 0x0
 7650 031b 11        		.uleb128 0x11
 7651 031c 0000 0000 		.4byte	.LASF36
 7652 0320 04        		.byte	0x4
 7653 0321 23        		.byte	0x23
 7654 0322 3300 0000 		.4byte	0x33
 7655 0326 01        		.byte	0x1
 7656 0327 01        		.byte	0x1
 7657 0328 02        		.byte	0x2
 7658 0329 02        		.byte	0x2
 7659 032a 23        		.byte	0x23
 7660 032b 00        		.uleb128 0x0
 7661 032c 11        		.uleb128 0x11
 7662 032d 0000 0000 		.4byte	.LASF37
 7663 0331 04        		.byte	0x4
 7664 0332 24        		.byte	0x24
 7665 0333 3300 0000 		.4byte	0x33
 7666 0337 01        		.byte	0x1
 7667 0338 01        		.byte	0x1
 7668 0339 01        		.byte	0x1
 7669 033a 02        		.byte	0x2
 7670 033b 23        		.byte	0x23
 7671 033c 00        		.uleb128 0x0
 7672 033d 11        		.uleb128 0x11
 7673 033e 0000 0000 		.4byte	.LASF38
 7674 0342 04        		.byte	0x4
 7675 0343 25        		.byte	0x25
 7676 0344 3300 0000 		.4byte	0x33
 7677 0348 01        		.byte	0x1
 7678 0349 01        		.byte	0x1
GAS LISTING /tmp/ccvQL2RB.s 			page 137


 7679 034a 00        		.byte	0x0
 7680 034b 02        		.byte	0x2
 7681 034c 23        		.byte	0x23
 7682 034d 00        		.uleb128 0x0
 7683 034e 00        		.byte	0x0
 7684 034f 12        		.uleb128 0x12
 7685 0350 0000 0000 		.4byte	.LASF279
 7686 0354 02        		.byte	0x2
 7687 0355 04        		.byte	0x4
 7688 0356 1B        		.byte	0x1b
 7689 0357 7203 0000 		.4byte	0x372
 7690 035b 13        		.uleb128 0x13
 7691 035c 0000 0000 		.4byte	.LASF39
 7692 0360 04        		.byte	0x4
 7693 0361 1C        		.byte	0x1c
 7694 0362 7203 0000 		.4byte	0x372
 7695 0366 13        		.uleb128 0x13
 7696 0367 0000 0000 		.4byte	.LASF40
 7697 036b 04        		.byte	0x4
 7698 036c 26        		.byte	0x26
 7699 036d 7703 0000 		.4byte	0x377
 7700 0371 00        		.byte	0x0
 7701 0372 07        		.uleb128 0x7
 7702 0373 3300 0000 		.4byte	0x33
 7703 0377 07        		.uleb128 0x7
 7704 0378 BE02 0000 		.4byte	0x2be
 7705 037c 03        		.uleb128 0x3
 7706 037d 0000 0000 		.4byte	.LASF41
 7707 0381 04        		.byte	0x4
 7708 0382 27        		.byte	0x27
 7709 0383 4F03 0000 		.4byte	0x34f
 7710 0387 14        		.uleb128 0x14
 7711 0388 0000 0000 		.4byte	.LASF43
 7712 038c 10        		.byte	0x10
 7713 038d 04        		.byte	0x4
 7714 038e 6C        		.byte	0x6c
 7715 038f 0204 0000 		.4byte	0x402
 7716 0393 15        		.uleb128 0x15
 7717 0394 696E 00   		.string	"in"
 7718 0397 04        		.byte	0x4
 7719 0398 6D        		.byte	0x6d
 7720 0399 7C03 0000 		.4byte	0x37c
 7721 039d 02        		.byte	0x2
 7722 039e 23        		.byte	0x23
 7723 039f 00        		.uleb128 0x0
 7724 03a0 15        		.uleb128 0x15
 7725 03a1 6F75 7400 		.string	"out"
 7726 03a5 04        		.byte	0x4
 7727 03a6 6E        		.byte	0x6e
 7728 03a7 7C03 0000 		.4byte	0x37c
 7729 03ab 02        		.byte	0x2
 7730 03ac 23        		.byte	0x23
 7731 03ad 02        		.uleb128 0x2
 7732 03ae 15        		.uleb128 0x15
 7733 03af 6469 7200 		.string	"dir"
 7734 03b3 04        		.byte	0x4
 7735 03b4 6F        		.byte	0x6f
GAS LISTING /tmp/ccvQL2RB.s 			page 138


 7736 03b5 7C03 0000 		.4byte	0x37c
 7737 03b9 02        		.byte	0x2
 7738 03ba 23        		.byte	0x23
 7739 03bb 04        		.uleb128 0x4
 7740 03bc 15        		.uleb128 0x15
 7741 03bd 6966 6700 		.string	"ifg"
 7742 03c1 04        		.byte	0x4
 7743 03c2 70        		.byte	0x70
 7744 03c3 7C03 0000 		.4byte	0x37c
 7745 03c7 02        		.byte	0x2
 7746 03c8 23        		.byte	0x23
 7747 03c9 06        		.uleb128 0x6
 7748 03ca 15        		.uleb128 0x15
 7749 03cb 6965 7300 		.string	"ies"
 7750 03cf 04        		.byte	0x4
 7751 03d0 71        		.byte	0x71
 7752 03d1 7C03 0000 		.4byte	0x37c
 7753 03d5 02        		.byte	0x2
 7754 03d6 23        		.byte	0x23
 7755 03d7 08        		.uleb128 0x8
 7756 03d8 15        		.uleb128 0x15
 7757 03d9 6965 00   		.string	"ie"
 7758 03dc 04        		.byte	0x4
 7759 03dd 72        		.byte	0x72
 7760 03de 7C03 0000 		.4byte	0x37c
 7761 03e2 02        		.byte	0x2
 7762 03e3 23        		.byte	0x23
 7763 03e4 0A        		.uleb128 0xa
 7764 03e5 15        		.uleb128 0x15
 7765 03e6 7365 6C00 		.string	"sel"
 7766 03ea 04        		.byte	0x4
 7767 03eb 73        		.byte	0x73
 7768 03ec 7C03 0000 		.4byte	0x37c
 7769 03f0 02        		.byte	0x2
 7770 03f1 23        		.byte	0x23
 7771 03f2 0C        		.uleb128 0xc
 7772 03f3 15        		.uleb128 0x15
 7773 03f4 7265 6E00 		.string	"ren"
 7774 03f8 04        		.byte	0x4
 7775 03f9 75        		.byte	0x75
 7776 03fa 7C03 0000 		.4byte	0x37c
 7777 03fe 02        		.byte	0x2
 7778 03ff 23        		.byte	0x23
 7779 0400 0E        		.uleb128 0xe
 7780 0401 00        		.byte	0x0
 7781 0402 16        		.uleb128 0x16
 7782 0403 01        		.byte	0x1
 7783 0404 0000 0000 		.4byte	.LASF44
 7784 0408 01        		.byte	0x1
 7785 0409 EF01      		.2byte	0x1ef
 7786 040b 01        		.byte	0x1
 7787 040c 01        		.byte	0x1
 7788 040d 2604 0000 		.4byte	0x426
 7789 0411 17        		.uleb128 0x17
 7790 0412 6300      		.string	"c"
 7791 0414 01        		.byte	0x1
 7792 0415 EF01      		.2byte	0x1ef
GAS LISTING /tmp/ccvQL2RB.s 			page 139


 7793 0417 2800 0000 		.4byte	0x28
 7794 041b 18        		.uleb128 0x18
 7795 041c 6900      		.string	"i"
 7796 041e 01        		.byte	0x1
 7797 041f F001      		.2byte	0x1f0
 7798 0421 2800 0000 		.4byte	0x28
 7799 0425 00        		.byte	0x0
 7800 0426 19        		.uleb128 0x19
 7801 0427 01        		.byte	0x1
 7802 0428 0000 0000 		.4byte	.LASF45
 7803 042c 01        		.byte	0x1
 7804 042d FB01      		.2byte	0x1fb
 7805 042f 2800 0000 		.4byte	0x28
 7806 0433 01        		.byte	0x1
 7807 0434 4304 0000 		.4byte	0x443
 7808 0438 18        		.uleb128 0x18
 7809 0439 6900      		.string	"i"
 7810 043b 01        		.byte	0x1
 7811 043c FC01      		.2byte	0x1fc
 7812 043e 2800 0000 		.4byte	0x28
 7813 0442 00        		.byte	0x0
 7814 0443 19        		.uleb128 0x19
 7815 0444 01        		.byte	0x1
 7816 0445 0000 0000 		.4byte	.LASF46
 7817 0449 01        		.byte	0x1
 7818 044a 1F02      		.2byte	0x21f
 7819 044c 2800 0000 		.4byte	0x28
 7820 0450 01        		.byte	0x1
 7821 0451 6004 0000 		.4byte	0x460
 7822 0455 18        		.uleb128 0x18
 7823 0456 6900      		.string	"i"
 7824 0458 01        		.byte	0x1
 7825 0459 2002      		.2byte	0x220
 7826 045b 2800 0000 		.4byte	0x28
 7827 045f 00        		.byte	0x0
 7828 0460 16        		.uleb128 0x16
 7829 0461 01        		.byte	0x1
 7830 0462 0000 0000 		.4byte	.LASF47
 7831 0466 01        		.byte	0x1
 7832 0467 7202      		.2byte	0x272
 7833 0469 01        		.byte	0x1
 7834 046a 01        		.byte	0x1
 7835 046b 7A04 0000 		.4byte	0x47a
 7836 046f 17        		.uleb128 0x17
 7837 0470 6300      		.string	"c"
 7838 0472 01        		.byte	0x1
 7839 0473 7202      		.2byte	0x272
 7840 0475 7A04 0000 		.4byte	0x47a
 7841 0479 00        		.byte	0x0
 7842 047a 1A        		.uleb128 0x1a
 7843 047b 02        		.byte	0x2
 7844 047c 8004 0000 		.4byte	0x480
 7845 0480 1B        		.uleb128 0x1b
 7846 0481 2800 0000 		.4byte	0x28
 7847 0485 16        		.uleb128 0x16
 7848 0486 01        		.byte	0x1
 7849 0487 0000 0000 		.4byte	.LASF48
GAS LISTING /tmp/ccvQL2RB.s 			page 140


 7850 048b 01        		.byte	0x1
 7851 048c 9802      		.2byte	0x298
 7852 048e 01        		.byte	0x1
 7853 048f 01        		.byte	0x1
 7854 0490 A904 0000 		.4byte	0x4a9
 7855 0494 17        		.uleb128 0x17
 7856 0495 6E00      		.string	"n"
 7857 0497 01        		.byte	0x1
 7858 0498 9802      		.2byte	0x298
 7859 049a 3A00 0000 		.4byte	0x3a
 7860 049e 18        		.uleb128 0x18
 7861 049f 6900      		.string	"i"
 7862 04a1 01        		.byte	0x1
 7863 04a2 9902      		.2byte	0x299
 7864 04a4 4C00 0000 		.4byte	0x4c
 7865 04a8 00        		.byte	0x0
 7866 04a9 19        		.uleb128 0x19
 7867 04aa 01        		.byte	0x1
 7868 04ab 0000 0000 		.4byte	.LASF49
 7869 04af 01        		.byte	0x1
 7870 04b0 8D02      		.2byte	0x28d
 7871 04b2 3A00 0000 		.4byte	0x3a
 7872 04b6 01        		.byte	0x1
 7873 04b7 D004 0000 		.4byte	0x4d0
 7874 04bb 18        		.uleb128 0x18
 7875 04bc 6900      		.string	"i"
 7876 04be 01        		.byte	0x1
 7877 04bf 8E02      		.2byte	0x28e
 7878 04c1 3A00 0000 		.4byte	0x3a
 7879 04c5 18        		.uleb128 0x18
 7880 04c6 6A00      		.string	"j"
 7881 04c8 01        		.byte	0x1
 7882 04c9 8E02      		.2byte	0x28e
 7883 04cb 3A00 0000 		.4byte	0x3a
 7884 04cf 00        		.byte	0x0
 7885 04d0 16        		.uleb128 0x16
 7886 04d1 01        		.byte	0x1
 7887 04d2 0000 0000 		.4byte	.LASF50
 7888 04d6 01        		.byte	0x1
 7889 04d7 7003      		.2byte	0x370
 7890 04d9 01        		.byte	0x1
 7891 04da 01        		.byte	0x1
 7892 04db EA04 0000 		.4byte	0x4ea
 7893 04df 17        		.uleb128 0x17
 7894 04e0 6E00      		.string	"n"
 7895 04e2 01        		.byte	0x1
 7896 04e3 7003      		.2byte	0x370
 7897 04e5 3A00 0000 		.4byte	0x3a
 7898 04e9 00        		.byte	0x0
 7899 04ea 16        		.uleb128 0x16
 7900 04eb 01        		.byte	0x1
 7901 04ec 0000 0000 		.4byte	.LASF51
 7902 04f0 01        		.byte	0x1
 7903 04f1 A702      		.2byte	0x2a7
 7904 04f3 01        		.byte	0x1
 7905 04f4 01        		.byte	0x1
 7906 04f5 0405 0000 		.4byte	0x504
GAS LISTING /tmp/ccvQL2RB.s 			page 141


 7907 04f9 17        		.uleb128 0x17
 7908 04fa 6E00      		.string	"n"
 7909 04fc 01        		.byte	0x1
 7910 04fd A702      		.2byte	0x2a7
 7911 04ff 3A00 0000 		.4byte	0x3a
 7912 0503 00        		.byte	0x0
 7913 0504 19        		.uleb128 0x19
 7914 0505 01        		.byte	0x1
 7915 0506 0000 0000 		.4byte	.LASF52
 7916 050a 01        		.byte	0x1
 7917 050b A002      		.2byte	0x2a0
 7918 050d 3A00 0000 		.4byte	0x3a
 7919 0511 01        		.byte	0x1
 7920 0512 2105 0000 		.4byte	0x521
 7921 0516 18        		.uleb128 0x18
 7922 0517 6A00      		.string	"j"
 7923 0519 01        		.byte	0x1
 7924 051a A102      		.2byte	0x2a1
 7925 051c 3A00 0000 		.4byte	0x3a
 7926 0520 00        		.byte	0x0
 7927 0521 1C        		.uleb128 0x1c
 7928 0522 01        		.byte	0x1
 7929 0523 0000 0000 		.4byte	.LASF53
 7930 0527 01        		.byte	0x1
 7931 0528 3603      		.2byte	0x336
 7932 052a 01        		.byte	0x1
 7933 052b 3A05 0000 		.4byte	0x53a
 7934 052f 18        		.uleb128 0x18
 7935 0530 6900      		.string	"i"
 7936 0532 01        		.byte	0x1
 7937 0533 3703      		.2byte	0x337
 7938 0535 3A00 0000 		.4byte	0x3a
 7939 0539 00        		.byte	0x0
 7940 053a 1C        		.uleb128 0x1c
 7941 053b 01        		.byte	0x1
 7942 053c 0000 0000 		.4byte	.LASF54
 7943 0540 01        		.byte	0x1
 7944 0541 4103      		.2byte	0x341
 7945 0543 01        		.byte	0x1
 7946 0544 5305 0000 		.4byte	0x553
 7947 0548 18        		.uleb128 0x18
 7948 0549 6900      		.string	"i"
 7949 054b 01        		.byte	0x1
 7950 054c 4203      		.2byte	0x342
 7951 054e 3A00 0000 		.4byte	0x3a
 7952 0552 00        		.byte	0x0
 7953 0553 1D        		.uleb128 0x1d
 7954 0554 01        		.byte	0x1
 7955 0555 0000 0000 		.4byte	.LASF280
 7956 0559 01        		.byte	0x1
 7957 055a 0902      		.2byte	0x209
 7958 055c 01        		.byte	0x1
 7959 055d 1E        		.uleb128 0x1e
 7960 055e 01        		.byte	0x1
 7961 055f 0000 0000 		.4byte	.LASF55
 7962 0563 01        		.byte	0x1
 7963 0564 7F01      		.2byte	0x17f
GAS LISTING /tmp/ccvQL2RB.s 			page 142


 7964 0566 01        		.byte	0x1
 7965 0567 0000      		.2byte	.LFB0
 7966 0569 0000      		.2byte	.LFE0
 7967 056b 02        		.byte	0x2
 7968 056c 71        		.byte	0x71
 7969 056d 02        		.sleb128 2
 7970 056e 1E        		.uleb128 0x1e
 7971 056f 01        		.byte	0x1
 7972 0570 0000 0000 		.4byte	.LASF56
 7973 0574 01        		.byte	0x1
 7974 0575 8901      		.2byte	0x189
 7975 0577 01        		.byte	0x1
 7976 0578 0000      		.2byte	.LFB1
 7977 057a 0000      		.2byte	.LFE1
 7978 057c 02        		.byte	0x2
 7979 057d 71        		.byte	0x71
 7980 057e 02        		.sleb128 2
 7981 057f 1E        		.uleb128 0x1e
 7982 0580 01        		.byte	0x1
 7983 0581 0000 0000 		.4byte	.LASF57
 7984 0585 01        		.byte	0x1
 7985 0586 8E01      		.2byte	0x18e
 7986 0588 01        		.byte	0x1
 7987 0589 0000      		.2byte	.LFB2
 7988 058b 0000      		.2byte	.LFE2
 7989 058d 02        		.byte	0x2
 7990 058e 71        		.byte	0x71
 7991 058f 02        		.sleb128 2
 7992 0590 1F        		.uleb128 0x1f
 7993 0591 01        		.byte	0x1
 7994 0592 0000 0000 		.4byte	.LASF58
 7995 0596 01        		.byte	0x1
 7996 0597 9301      		.2byte	0x193
 7997 0599 01        		.byte	0x1
 7998 059a 0000      		.2byte	.LFB3
 7999 059c 0000      		.2byte	.LFE3
 8000 059e 0000 0000 		.4byte	.LLST3
 8001 05a2 20        		.uleb128 0x20
 8002 05a3 0204 0000 		.4byte	0x402
 8003 05a7 0000      		.2byte	.LFB5
 8004 05a9 0000      		.2byte	.LFE5
 8005 05ab 02        		.byte	0x2
 8006 05ac 71        		.byte	0x71
 8007 05ad 02        		.sleb128 2
 8008 05ae C105 0000 		.4byte	0x5c1
 8009 05b2 21        		.uleb128 0x21
 8010 05b3 1104 0000 		.4byte	0x411
 8011 05b7 0000 0000 		.4byte	.LLST5
 8012 05bb 22        		.uleb128 0x22
 8013 05bc 1B04 0000 		.4byte	0x41b
 8014 05c0 00        		.byte	0x0
 8015 05c1 20        		.uleb128 0x20
 8016 05c2 2604 0000 		.4byte	0x426
 8017 05c6 0000      		.2byte	.LFB6
 8018 05c8 0000      		.2byte	.LFE6
 8019 05ca 02        		.byte	0x2
 8020 05cb 71        		.byte	0x71
GAS LISTING /tmp/ccvQL2RB.s 			page 143


 8021 05cc 02        		.sleb128 2
 8022 05cd D705 0000 		.4byte	0x5d7
 8023 05d1 22        		.uleb128 0x22
 8024 05d2 3804 0000 		.4byte	0x438
 8025 05d6 00        		.byte	0x0
 8026 05d7 23        		.uleb128 0x23
 8027 05d8 5305 0000 		.4byte	0x553
 8028 05dc 0000      		.2byte	.LFB7
 8029 05de 0000      		.2byte	.LFE7
 8030 05e0 02        		.byte	0x2
 8031 05e1 71        		.byte	0x71
 8032 05e2 02        		.sleb128 2
 8033 05e3 20        		.uleb128 0x20
 8034 05e4 4304 0000 		.4byte	0x443
 8035 05e8 0000      		.2byte	.LFB8
 8036 05ea 0000      		.2byte	.LFE8
 8037 05ec 02        		.byte	0x2
 8038 05ed 71        		.byte	0x71
 8039 05ee 02        		.sleb128 2
 8040 05ef FD05 0000 		.4byte	0x5fd
 8041 05f3 24        		.uleb128 0x24
 8042 05f4 5504 0000 		.4byte	0x455
 8043 05f8 0000 0000 		.4byte	.LLST9
 8044 05fc 00        		.byte	0x0
 8045 05fd 25        		.uleb128 0x25
 8046 05fe 01        		.byte	0x1
 8047 05ff 0000 0000 		.4byte	.LASF59
 8048 0603 01        		.byte	0x1
 8049 0604 2D02      		.2byte	0x22d
 8050 0606 0000      		.2byte	.LFB9
 8051 0608 0000      		.2byte	.LFE9
 8052 060a 0000 0000 		.4byte	.LLST10
 8053 060e 4507 0000 		.4byte	0x745
 8054 0612 26        		.uleb128 0x26
 8055 0613 6900      		.string	"i"
 8056 0615 01        		.byte	0x1
 8057 0616 2E02      		.2byte	0x22e
 8058 0618 3A00 0000 		.4byte	0x3a
 8059 061c 0000 0000 		.4byte	.LLST11
 8060 0620 27        		.uleb128 0x27
 8061 0621 0204 0000 		.4byte	0x402
 8062 0625 0000      		.2byte	.LBB244
 8063 0627 0000      		.2byte	.LBE244
 8064 0629 01        		.byte	0x1
 8065 062a 3102      		.2byte	0x231
 8066 062c 4106 0000 		.4byte	0x641
 8067 0630 28        		.uleb128 0x28
 8068 0631 B205 0000 		.4byte	0x5b2
 8069 0635 29        		.uleb128 0x29
 8070 0636 0000      		.2byte	.LBB245
 8071 0638 0000      		.2byte	.LBE245
 8072 063a 22        		.uleb128 0x22
 8073 063b 1B04 0000 		.4byte	0x41b
 8074 063f 00        		.byte	0x0
 8075 0640 00        		.byte	0x0
 8076 0641 27        		.uleb128 0x27
 8077 0642 0204 0000 		.4byte	0x402
GAS LISTING /tmp/ccvQL2RB.s 			page 144


 8078 0646 0000      		.2byte	.LBB246
 8079 0648 0000      		.2byte	.LBE246
 8080 064a 01        		.byte	0x1
 8081 064b 3202      		.2byte	0x232
 8082 064d 6206 0000 		.4byte	0x662
 8083 0651 28        		.uleb128 0x28
 8084 0652 B205 0000 		.4byte	0x5b2
 8085 0656 29        		.uleb128 0x29
 8086 0657 0000      		.2byte	.LBB247
 8087 0659 0000      		.2byte	.LBE247
 8088 065b 22        		.uleb128 0x22
 8089 065c 1B04 0000 		.4byte	0x41b
 8090 0660 00        		.byte	0x0
 8091 0661 00        		.byte	0x0
 8092 0662 27        		.uleb128 0x27
 8093 0663 0204 0000 		.4byte	0x402
 8094 0667 0000      		.2byte	.LBB248
 8095 0669 0000      		.2byte	.LBE248
 8096 066b 01        		.byte	0x1
 8097 066c 3302      		.2byte	0x233
 8098 066e 8306 0000 		.4byte	0x683
 8099 0672 28        		.uleb128 0x28
 8100 0673 B205 0000 		.4byte	0x5b2
 8101 0677 29        		.uleb128 0x29
 8102 0678 0000      		.2byte	.LBB249
 8103 067a 0000      		.2byte	.LBE249
 8104 067c 22        		.uleb128 0x22
 8105 067d 1B04 0000 		.4byte	0x41b
 8106 0681 00        		.byte	0x0
 8107 0682 00        		.byte	0x0
 8108 0683 27        		.uleb128 0x27
 8109 0684 2604 0000 		.4byte	0x426
 8110 0688 0000      		.2byte	.LBB250
 8111 068a 0000      		.2byte	.LBE250
 8112 068c 01        		.byte	0x1
 8113 068d 3702      		.2byte	0x237
 8114 068f A306 0000 		.4byte	0x6a3
 8115 0693 29        		.uleb128 0x29
 8116 0694 0000      		.2byte	.LBB251
 8117 0696 0000      		.2byte	.LBE251
 8118 0698 24        		.uleb128 0x24
 8119 0699 3804 0000 		.4byte	0x438
 8120 069d 0000 0000 		.4byte	.LLST12
 8121 06a1 00        		.byte	0x0
 8122 06a2 00        		.byte	0x0
 8123 06a3 27        		.uleb128 0x27
 8124 06a4 0204 0000 		.4byte	0x402
 8125 06a8 0000      		.2byte	.LBB252
 8126 06aa 0000      		.2byte	.LBE252
 8127 06ac 01        		.byte	0x1
 8128 06ad 4002      		.2byte	0x240
 8129 06af C406 0000 		.4byte	0x6c4
 8130 06b3 28        		.uleb128 0x28
 8131 06b4 B205 0000 		.4byte	0x5b2
 8132 06b8 29        		.uleb128 0x29
 8133 06b9 0000      		.2byte	.LBB253
 8134 06bb 0000      		.2byte	.LBE253
GAS LISTING /tmp/ccvQL2RB.s 			page 145


 8135 06bd 22        		.uleb128 0x22
 8136 06be 1B04 0000 		.4byte	0x41b
 8137 06c2 00        		.byte	0x0
 8138 06c3 00        		.byte	0x0
 8139 06c4 27        		.uleb128 0x27
 8140 06c5 0204 0000 		.4byte	0x402
 8141 06c9 0000      		.2byte	.LBB254
 8142 06cb 0000      		.2byte	.LBE254
 8143 06cd 01        		.byte	0x1
 8144 06ce 5002      		.2byte	0x250
 8145 06d0 E506 0000 		.4byte	0x6e5
 8146 06d4 28        		.uleb128 0x28
 8147 06d5 B205 0000 		.4byte	0x5b2
 8148 06d9 29        		.uleb128 0x29
 8149 06da 0000      		.2byte	.LBB255
 8150 06dc 0000      		.2byte	.LBE255
 8151 06de 22        		.uleb128 0x22
 8152 06df 1B04 0000 		.4byte	0x41b
 8153 06e3 00        		.byte	0x0
 8154 06e4 00        		.byte	0x0
 8155 06e5 27        		.uleb128 0x27
 8156 06e6 0204 0000 		.4byte	0x402
 8157 06ea 0000      		.2byte	.LBB256
 8158 06ec 0000      		.2byte	.LBE256
 8159 06ee 01        		.byte	0x1
 8160 06ef 3A02      		.2byte	0x23a
 8161 06f1 0607 0000 		.4byte	0x706
 8162 06f5 28        		.uleb128 0x28
 8163 06f6 B205 0000 		.4byte	0x5b2
 8164 06fa 29        		.uleb128 0x29
 8165 06fb 0000      		.2byte	.LBB257
 8166 06fd 0000      		.2byte	.LBE257
 8167 06ff 22        		.uleb128 0x22
 8168 0700 1B04 0000 		.4byte	0x41b
 8169 0704 00        		.byte	0x0
 8170 0705 00        		.byte	0x0
 8171 0706 27        		.uleb128 0x27
 8172 0707 0204 0000 		.4byte	0x402
 8173 070b 0000      		.2byte	.LBB258
 8174 070d 0000      		.2byte	.LBE258
 8175 070f 01        		.byte	0x1
 8176 0710 3B02      		.2byte	0x23b
 8177 0712 2707 0000 		.4byte	0x727
 8178 0716 28        		.uleb128 0x28
 8179 0717 B205 0000 		.4byte	0x5b2
 8180 071b 29        		.uleb128 0x29
 8181 071c 0000      		.2byte	.LBB259
 8182 071e 0000      		.2byte	.LBE259
 8183 0720 22        		.uleb128 0x22
 8184 0721 1B04 0000 		.4byte	0x41b
 8185 0725 00        		.byte	0x0
 8186 0726 00        		.byte	0x0
 8187 0727 2A        		.uleb128 0x2a
 8188 0728 0204 0000 		.4byte	0x402
 8189 072c 0000      		.2byte	.LBB260
 8190 072e 0000      		.2byte	.LBE260
 8191 0730 01        		.byte	0x1
GAS LISTING /tmp/ccvQL2RB.s 			page 146


 8192 0731 3C02      		.2byte	0x23c
 8193 0733 28        		.uleb128 0x28
 8194 0734 B205 0000 		.4byte	0x5b2
 8195 0738 29        		.uleb128 0x29
 8196 0739 0000      		.2byte	.LBB261
 8197 073b 0000      		.2byte	.LBE261
 8198 073d 22        		.uleb128 0x22
 8199 073e 1B04 0000 		.4byte	0x41b
 8200 0742 00        		.byte	0x0
 8201 0743 00        		.byte	0x0
 8202 0744 00        		.byte	0x0
 8203 0745 25        		.uleb128 0x25
 8204 0746 01        		.byte	0x1
 8205 0747 0000 0000 		.4byte	.LASF60
 8206 074b 01        		.byte	0x1
 8207 074c 5502      		.2byte	0x255
 8208 074e 0000      		.2byte	.LFB10
 8209 0750 0000      		.2byte	.LFE10
 8210 0752 0000 0000 		.4byte	.LLST13
 8211 0756 0108 0000 		.4byte	0x801
 8212 075a 26        		.uleb128 0x26
 8213 075b 6B00      		.string	"k"
 8214 075d 01        		.byte	0x1
 8215 075e 5602      		.2byte	0x256
 8216 0760 3A00 0000 		.4byte	0x3a
 8217 0764 0000 0000 		.4byte	.LLST14
 8218 0768 26        		.uleb128 0x26
 8219 0769 6300      		.string	"c"
 8220 076b 01        		.byte	0x1
 8221 076c 5702      		.2byte	0x257
 8222 076e 2800 0000 		.4byte	0x28
 8223 0772 0000 0000 		.4byte	.LLST15
 8224 0776 27        		.uleb128 0x27
 8225 0777 4304 0000 		.4byte	0x443
 8226 077b 0000      		.2byte	.LBB262
 8227 077d 0000      		.2byte	.LBE262
 8228 077f 01        		.byte	0x1
 8229 0780 5B02      		.2byte	0x25b
 8230 0782 9207 0000 		.4byte	0x792
 8231 0786 29        		.uleb128 0x29
 8232 0787 0000      		.2byte	.LBB263
 8233 0789 0000      		.2byte	.LBE263
 8234 078b 22        		.uleb128 0x22
 8235 078c 5504 0000 		.4byte	0x455
 8236 0790 00        		.byte	0x0
 8237 0791 00        		.byte	0x0
 8238 0792 27        		.uleb128 0x27
 8239 0793 4304 0000 		.4byte	0x443
 8240 0797 0000      		.2byte	.LBB264
 8241 0799 0000      		.2byte	.LBE264
 8242 079b 01        		.byte	0x1
 8243 079c 5C02      		.2byte	0x25c
 8244 079e AE07 0000 		.4byte	0x7ae
 8245 07a2 29        		.uleb128 0x29
 8246 07a3 0000      		.2byte	.LBB265
 8247 07a5 0000      		.2byte	.LBE265
 8248 07a7 22        		.uleb128 0x22
GAS LISTING /tmp/ccvQL2RB.s 			page 147


 8249 07a8 5504 0000 		.4byte	0x455
 8250 07ac 00        		.byte	0x0
 8251 07ad 00        		.byte	0x0
 8252 07ae 27        		.uleb128 0x27
 8253 07af 4304 0000 		.4byte	0x443
 8254 07b3 0000      		.2byte	.LBB266
 8255 07b5 0000      		.2byte	.LBE266
 8256 07b7 01        		.byte	0x1
 8257 07b8 6702      		.2byte	0x267
 8258 07ba CA07 0000 		.4byte	0x7ca
 8259 07be 29        		.uleb128 0x29
 8260 07bf 0000      		.2byte	.LBB267
 8261 07c1 0000      		.2byte	.LBE267
 8262 07c3 22        		.uleb128 0x22
 8263 07c4 5504 0000 		.4byte	0x455
 8264 07c8 00        		.byte	0x0
 8265 07c9 00        		.byte	0x0
 8266 07ca 2B        		.uleb128 0x2b
 8267 07cb 4304 0000 		.4byte	0x443
 8268 07cf 0000      		.2byte	.LBB268
 8269 07d1 0000 0000 		.4byte	.Ldebug_ranges0+0x0
 8270 07d5 01        		.byte	0x1
 8271 07d6 5F02      		.2byte	0x25f
 8272 07d8 E807 0000 		.4byte	0x7e8
 8273 07dc 2C        		.uleb128 0x2c
 8274 07dd 0000 0000 		.4byte	.Ldebug_ranges0+0xc
 8275 07e1 22        		.uleb128 0x22
 8276 07e2 5504 0000 		.4byte	0x455
 8277 07e6 00        		.byte	0x0
 8278 07e7 00        		.byte	0x0
 8279 07e8 2A        		.uleb128 0x2a
 8280 07e9 4304 0000 		.4byte	0x443
 8281 07ed 0000      		.2byte	.LBB272
 8282 07ef 0000      		.2byte	.LBE272
 8283 07f1 01        		.byte	0x1
 8284 07f2 6202      		.2byte	0x262
 8285 07f4 29        		.uleb128 0x29
 8286 07f5 0000      		.2byte	.LBB273
 8287 07f7 0000      		.2byte	.LBE273
 8288 07f9 22        		.uleb128 0x22
 8289 07fa 5504 0000 		.4byte	0x455
 8290 07fe 00        		.byte	0x0
 8291 07ff 00        		.byte	0x0
 8292 0800 00        		.byte	0x0
 8293 0801 2D        		.uleb128 0x2d
 8294 0802 6004 0000 		.4byte	0x460
 8295 0806 0000      		.2byte	.LFB11
 8296 0808 0000      		.2byte	.LFE11
 8297 080a 0000 0000 		.4byte	.LLST16
 8298 080e 3708 0000 		.4byte	0x837
 8299 0812 2E        		.uleb128 0x2e
 8300 0813 6F04 0000 		.4byte	0x46f
 8301 0817 01        		.byte	0x1
 8302 0818 5F        		.byte	0x5f
 8303 0819 2A        		.uleb128 0x2a
 8304 081a 0204 0000 		.4byte	0x402
 8305 081e 0000      		.2byte	.LBB274
GAS LISTING /tmp/ccvQL2RB.s 			page 148


 8306 0820 0000      		.2byte	.LBE274
 8307 0822 01        		.byte	0x1
 8308 0823 7402      		.2byte	0x274
 8309 0825 28        		.uleb128 0x28
 8310 0826 B205 0000 		.4byte	0x5b2
 8311 082a 29        		.uleb128 0x29
 8312 082b 0000      		.2byte	.LBB275
 8313 082d 0000      		.2byte	.LBE275
 8314 082f 22        		.uleb128 0x22
 8315 0830 1B04 0000 		.4byte	0x41b
 8316 0834 00        		.byte	0x0
 8317 0835 00        		.byte	0x0
 8318 0836 00        		.byte	0x0
 8319 0837 2F        		.uleb128 0x2f
 8320 0838 01        		.byte	0x1
 8321 0839 7363 00   		.string	"sc"
 8322 083c 01        		.byte	0x1
 8323 083d 7A02      		.2byte	0x27a
 8324 083f 01        		.byte	0x1
 8325 0840 3A00 0000 		.4byte	0x3a
 8326 0844 0000      		.2byte	.LFB12
 8327 0846 0000      		.2byte	.LFE12
 8328 0848 0000 0000 		.4byte	.LLST17
 8329 084c 7908 0000 		.4byte	0x879
 8330 0850 30        		.uleb128 0x30
 8331 0851 7800      		.string	"x"
 8332 0853 01        		.byte	0x1
 8333 0854 7A02      		.2byte	0x27a
 8334 0856 7908 0000 		.4byte	0x879
 8335 085a 0000 0000 		.4byte	.LLST18
 8336 085e 31        		.uleb128 0x31
 8337 085f 7900      		.string	"y"
 8338 0861 01        		.byte	0x1
 8339 0862 7A02      		.2byte	0x27a
 8340 0864 7908 0000 		.4byte	0x879
 8341 0868 01        		.byte	0x1
 8342 0869 5E        		.byte	0x5e
 8343 086a 26        		.uleb128 0x26
 8344 086b 6900      		.string	"i"
 8345 086d 01        		.byte	0x1
 8346 086e 7B02      		.2byte	0x27b
 8347 0870 3A00 0000 		.4byte	0x3a
 8348 0874 0000 0000 		.4byte	.LLST19
 8349 0878 00        		.byte	0x0
 8350 0879 1A        		.uleb128 0x1a
 8351 087a 02        		.byte	0x2
 8352 087b 2800 0000 		.4byte	0x28
 8353 087f 25        		.uleb128 0x25
 8354 0880 01        		.byte	0x1
 8355 0881 0000 0000 		.4byte	.LASF61
 8356 0885 01        		.byte	0x1
 8357 0886 8702      		.2byte	0x287
 8358 0888 0000      		.2byte	.LFB13
 8359 088a 0000      		.2byte	.LFE13
 8360 088c 0000 0000 		.4byte	.LLST20
 8361 0890 3409 0000 		.4byte	0x934
 8362 0894 27        		.uleb128 0x27
GAS LISTING /tmp/ccvQL2RB.s 			page 149


 8363 0895 6004 0000 		.4byte	0x460
 8364 0899 0000      		.2byte	.LBB276
 8365 089b 0000      		.2byte	.LBE276
 8366 089d 01        		.byte	0x1
 8367 089e 8802      		.2byte	0x288
 8368 08a0 CB08 0000 		.4byte	0x8cb
 8369 08a4 21        		.uleb128 0x21
 8370 08a5 1208 0000 		.4byte	0x812
 8371 08a9 0000 0000 		.4byte	.LLST21
 8372 08ad 2A        		.uleb128 0x2a
 8373 08ae 0204 0000 		.4byte	0x402
 8374 08b2 0000      		.2byte	.LBB278
 8375 08b4 0000      		.2byte	.LBE278
 8376 08b6 01        		.byte	0x1
 8377 08b7 7402      		.2byte	0x274
 8378 08b9 28        		.uleb128 0x28
 8379 08ba B205 0000 		.4byte	0x5b2
 8380 08be 29        		.uleb128 0x29
 8381 08bf 0000      		.2byte	.LBB279
 8382 08c1 0000      		.2byte	.LBE279
 8383 08c3 22        		.uleb128 0x22
 8384 08c4 1B04 0000 		.4byte	0x41b
 8385 08c8 00        		.byte	0x0
 8386 08c9 00        		.byte	0x0
 8387 08ca 00        		.byte	0x0
 8388 08cb 27        		.uleb128 0x27
 8389 08cc 6004 0000 		.4byte	0x460
 8390 08d0 0000      		.2byte	.LBB280
 8391 08d2 0000      		.2byte	.LBE280
 8392 08d4 01        		.byte	0x1
 8393 08d5 8902      		.2byte	0x289
 8394 08d7 0209 0000 		.4byte	0x902
 8395 08db 21        		.uleb128 0x21
 8396 08dc 1208 0000 		.4byte	0x812
 8397 08e0 0000 0000 		.4byte	.LLST22
 8398 08e4 2A        		.uleb128 0x2a
 8399 08e5 0204 0000 		.4byte	0x402
 8400 08e9 0000      		.2byte	.LBB282
 8401 08eb 0000      		.2byte	.LBE282
 8402 08ed 01        		.byte	0x1
 8403 08ee 7402      		.2byte	0x274
 8404 08f0 28        		.uleb128 0x28
 8405 08f1 B205 0000 		.4byte	0x5b2
 8406 08f5 29        		.uleb128 0x29
 8407 08f6 0000      		.2byte	.LBB283
 8408 08f8 0000      		.2byte	.LBE283
 8409 08fa 22        		.uleb128 0x22
 8410 08fb 1B04 0000 		.4byte	0x41b
 8411 08ff 00        		.byte	0x0
 8412 0900 00        		.byte	0x0
 8413 0901 00        		.byte	0x0
 8414 0902 2A        		.uleb128 0x2a
 8415 0903 6004 0000 		.4byte	0x460
 8416 0907 0000      		.2byte	.LBB284
 8417 0909 0000      		.2byte	.LBE284
 8418 090b 01        		.byte	0x1
 8419 090c 8A02      		.2byte	0x28a
GAS LISTING /tmp/ccvQL2RB.s 			page 150


 8420 090e 2E        		.uleb128 0x2e
 8421 090f 1208 0000 		.4byte	0x812
 8422 0913 01        		.byte	0x1
 8423 0914 5D        		.byte	0x5d
 8424 0915 2A        		.uleb128 0x2a
 8425 0916 0204 0000 		.4byte	0x402
 8426 091a 0000      		.2byte	.LBB286
 8427 091c 0000      		.2byte	.LBE286
 8428 091e 01        		.byte	0x1
 8429 091f 7402      		.2byte	0x274
 8430 0921 28        		.uleb128 0x28
 8431 0922 B205 0000 		.4byte	0x5b2
 8432 0926 29        		.uleb128 0x29
 8433 0927 0000      		.2byte	.LBB287
 8434 0929 0000      		.2byte	.LBE287
 8435 092b 22        		.uleb128 0x22
 8436 092c 1B04 0000 		.4byte	0x41b
 8437 0930 00        		.byte	0x0
 8438 0931 00        		.byte	0x0
 8439 0932 00        		.byte	0x0
 8440 0933 00        		.byte	0x0
 8441 0934 20        		.uleb128 0x20
 8442 0935 A904 0000 		.4byte	0x4a9
 8443 0939 0000      		.2byte	.LFB14
 8444 093b 0000      		.2byte	.LFE14
 8445 093d 02        		.byte	0x2
 8446 093e 71        		.byte	0x71
 8447 093f 02        		.sleb128 2
 8448 0940 5109 0000 		.4byte	0x951
 8449 0944 22        		.uleb128 0x22
 8450 0945 BB04 0000 		.4byte	0x4bb
 8451 0949 32        		.uleb128 0x32
 8452 094a C504 0000 		.4byte	0x4c5
 8453 094e 01        		.byte	0x1
 8454 094f 5F        		.byte	0x5f
 8455 0950 00        		.byte	0x0
 8456 0951 20        		.uleb128 0x20
 8457 0952 8504 0000 		.4byte	0x485
 8458 0956 0000      		.2byte	.LFB15
 8459 0958 0000      		.2byte	.LFE15
 8460 095a 02        		.byte	0x2
 8461 095b 71        		.byte	0x71
 8462 095c 02        		.sleb128 2
 8463 095d 6E09 0000 		.4byte	0x96e
 8464 0961 2E        		.uleb128 0x2e
 8465 0962 9404 0000 		.4byte	0x494
 8466 0966 01        		.byte	0x1
 8467 0967 5F        		.byte	0x5f
 8468 0968 22        		.uleb128 0x22
 8469 0969 9E04 0000 		.4byte	0x49e
 8470 096d 00        		.byte	0x0
 8471 096e 20        		.uleb128 0x20
 8472 096f 0405 0000 		.4byte	0x504
 8473 0973 0000      		.2byte	.LFB16
 8474 0975 0000      		.2byte	.LFE16
 8475 0977 02        		.byte	0x2
 8476 0978 71        		.byte	0x71
GAS LISTING /tmp/ccvQL2RB.s 			page 151


 8477 0979 02        		.sleb128 2
 8478 097a 8409 0000 		.4byte	0x984
 8479 097e 22        		.uleb128 0x22
 8480 097f 1605 0000 		.4byte	0x516
 8481 0983 00        		.byte	0x0
 8482 0984 20        		.uleb128 0x20
 8483 0985 EA04 0000 		.4byte	0x4ea
 8484 0989 0000      		.2byte	.LFB17
 8485 098b 0000      		.2byte	.LFE17
 8486 098d 02        		.byte	0x2
 8487 098e 71        		.byte	0x71
 8488 098f 02        		.sleb128 2
 8489 0990 9C09 0000 		.4byte	0x99c
 8490 0994 2E        		.uleb128 0x2e
 8491 0995 F904 0000 		.4byte	0x4f9
 8492 0999 01        		.byte	0x1
 8493 099a 5F        		.byte	0x5f
 8494 099b 00        		.byte	0x0
 8495 099c 33        		.uleb128 0x33
 8496 099d 01        		.byte	0x1
 8497 099e 0000 0000 		.4byte	.LASF62
 8498 09a2 01        		.byte	0x1
 8499 09a3 AC02      		.2byte	0x2ac
 8500 09a5 01        		.byte	0x1
 8501 09a6 3A00 0000 		.4byte	0x3a
 8502 09aa 0000      		.2byte	.LFB18
 8503 09ac 0000      		.2byte	.LFE18
 8504 09ae 0000 0000 		.4byte	.LLST27
 8505 09b2 090A 0000 		.4byte	0xa09
 8506 09b6 30        		.uleb128 0x30
 8507 09b7 7800      		.string	"x"
 8508 09b9 01        		.byte	0x1
 8509 09ba AC02      		.2byte	0x2ac
 8510 09bc 7908 0000 		.4byte	0x879
 8511 09c0 0000 0000 		.4byte	.LLST28
 8512 09c4 31        		.uleb128 0x31
 8513 09c5 6C00      		.string	"l"
 8514 09c7 01        		.byte	0x1
 8515 09c8 AC02      		.2byte	0x2ac
 8516 09ca 7908 0000 		.4byte	0x879
 8517 09ce 01        		.byte	0x1
 8518 09cf 5E        		.byte	0x5e
 8519 09d0 26        		.uleb128 0x26
 8520 09d1 6900      		.string	"i"
 8521 09d3 01        		.byte	0x1
 8522 09d4 AD02      		.2byte	0x2ad
 8523 09d6 3A00 0000 		.4byte	0x3a
 8524 09da 0000 0000 		.4byte	.LLST29
 8525 09de 26        		.uleb128 0x26
 8526 09df 6A00      		.string	"j"
 8527 09e1 01        		.byte	0x1
 8528 09e2 AD02      		.2byte	0x2ad
 8529 09e4 3A00 0000 		.4byte	0x3a
 8530 09e8 0000 0000 		.4byte	.LLST30
 8531 09ec 26        		.uleb128 0x26
 8532 09ed 6B00      		.string	"k"
 8533 09ef 01        		.byte	0x1
GAS LISTING /tmp/ccvQL2RB.s 			page 152


 8534 09f0 AD02      		.2byte	0x2ad
 8535 09f2 3A00 0000 		.4byte	0x3a
 8536 09f6 0000 0000 		.4byte	.LLST31
 8537 09fa 26        		.uleb128 0x26
 8538 09fb 6E00      		.string	"n"
 8539 09fd 01        		.byte	0x1
 8540 09fe AD02      		.2byte	0x2ad
 8541 0a00 3A00 0000 		.4byte	0x3a
 8542 0a04 0000 0000 		.4byte	.LLST32
 8543 0a08 00        		.byte	0x0
 8544 0a09 25        		.uleb128 0x25
 8545 0a0a 01        		.byte	0x1
 8546 0a0b 0000 0000 		.4byte	.LASF63
 8547 0a0f 01        		.byte	0x1
 8548 0a10 D902      		.2byte	0x2d9
 8549 0a12 0000      		.2byte	.LFB19
 8550 0a14 0000      		.2byte	.LFE19
 8551 0a16 0000 0000 		.4byte	.LLST33
 8552 0a1a 120B 0000 		.4byte	0xb12
 8553 0a1e 26        		.uleb128 0x26
 8554 0a1f 6900      		.string	"i"
 8555 0a21 01        		.byte	0x1
 8556 0a22 DA02      		.2byte	0x2da
 8557 0a24 3A00 0000 		.4byte	0x3a
 8558 0a28 0000 0000 		.4byte	.LLST34
 8559 0a2c 27        		.uleb128 0x27
 8560 0a2d 8504 0000 		.4byte	0x485
 8561 0a31 0000      		.2byte	.LBB288
 8562 0a33 0000      		.2byte	.LBE288
 8563 0a35 01        		.byte	0x1
 8564 0a36 E002      		.2byte	0x2e0
 8565 0a38 4D0A 0000 		.4byte	0xa4d
 8566 0a3c 28        		.uleb128 0x28
 8567 0a3d 6109 0000 		.4byte	0x961
 8568 0a41 29        		.uleb128 0x29
 8569 0a42 0000      		.2byte	.LBB289
 8570 0a44 0000      		.2byte	.LBE289
 8571 0a46 22        		.uleb128 0x22
 8572 0a47 9E04 0000 		.4byte	0x49e
 8573 0a4b 00        		.byte	0x0
 8574 0a4c 00        		.byte	0x0
 8575 0a4d 27        		.uleb128 0x27
 8576 0a4e 8504 0000 		.4byte	0x485
 8577 0a52 0000      		.2byte	.LBB290
 8578 0a54 0000      		.2byte	.LBE290
 8579 0a56 01        		.byte	0x1
 8580 0a57 E102      		.2byte	0x2e1
 8581 0a59 6E0A 0000 		.4byte	0xa6e
 8582 0a5d 28        		.uleb128 0x28
 8583 0a5e 6109 0000 		.4byte	0x961
 8584 0a62 29        		.uleb128 0x29
 8585 0a63 0000      		.2byte	.LBB291
 8586 0a65 0000      		.2byte	.LBE291
 8587 0a67 22        		.uleb128 0x22
 8588 0a68 9E04 0000 		.4byte	0x49e
 8589 0a6c 00        		.byte	0x0
 8590 0a6d 00        		.byte	0x0
GAS LISTING /tmp/ccvQL2RB.s 			page 153


 8591 0a6e 2B        		.uleb128 0x2b
 8592 0a6f 8504 0000 		.4byte	0x485
 8593 0a73 0000      		.2byte	.LBB292
 8594 0a75 0000 0000 		.4byte	.Ldebug_ranges0+0x18
 8595 0a79 01        		.byte	0x1
 8596 0a7a ED02      		.2byte	0x2ed
 8597 0a7c 910A 0000 		.4byte	0xa91
 8598 0a80 28        		.uleb128 0x28
 8599 0a81 6109 0000 		.4byte	0x961
 8600 0a85 2C        		.uleb128 0x2c
 8601 0a86 0000 0000 		.4byte	.Ldebug_ranges0+0x24
 8602 0a8a 22        		.uleb128 0x22
 8603 0a8b 9E04 0000 		.4byte	0x49e
 8604 0a8f 00        		.byte	0x0
 8605 0a90 00        		.byte	0x0
 8606 0a91 27        		.uleb128 0x27
 8607 0a92 8504 0000 		.4byte	0x485
 8608 0a96 0000      		.2byte	.LBB295
 8609 0a98 0000      		.2byte	.LBE295
 8610 0a9a 01        		.byte	0x1
 8611 0a9b E702      		.2byte	0x2e7
 8612 0a9d B20A 0000 		.4byte	0xab2
 8613 0aa1 28        		.uleb128 0x28
 8614 0aa2 6109 0000 		.4byte	0x961
 8615 0aa6 29        		.uleb128 0x29
 8616 0aa7 0000      		.2byte	.LBB296
 8617 0aa9 0000      		.2byte	.LBE296
 8618 0aab 22        		.uleb128 0x22
 8619 0aac 9E04 0000 		.4byte	0x49e
 8620 0ab0 00        		.byte	0x0
 8621 0ab1 00        		.byte	0x0
 8622 0ab2 27        		.uleb128 0x27
 8623 0ab3 8504 0000 		.4byte	0x485
 8624 0ab7 0000      		.2byte	.LBB297
 8625 0ab9 0000      		.2byte	.LBE297
 8626 0abb 01        		.byte	0x1
 8627 0abc E802      		.2byte	0x2e8
 8628 0abe D30A 0000 		.4byte	0xad3
 8629 0ac2 28        		.uleb128 0x28
 8630 0ac3 6109 0000 		.4byte	0x961
 8631 0ac7 29        		.uleb128 0x29
 8632 0ac8 0000      		.2byte	.LBB298
 8633 0aca 0000      		.2byte	.LBE298
 8634 0acc 22        		.uleb128 0x22
 8635 0acd 9E04 0000 		.4byte	0x49e
 8636 0ad1 00        		.byte	0x0
 8637 0ad2 00        		.byte	0x0
 8638 0ad3 27        		.uleb128 0x27
 8639 0ad4 8504 0000 		.4byte	0x485
 8640 0ad8 0000      		.2byte	.LBB299
 8641 0ada 0000      		.2byte	.LBE299
 8642 0adc 01        		.byte	0x1
 8643 0add EC02      		.2byte	0x2ec
 8644 0adf F40A 0000 		.4byte	0xaf4
 8645 0ae3 28        		.uleb128 0x28
 8646 0ae4 6109 0000 		.4byte	0x961
 8647 0ae8 29        		.uleb128 0x29
GAS LISTING /tmp/ccvQL2RB.s 			page 154


 8648 0ae9 0000      		.2byte	.LBB300
 8649 0aeb 0000      		.2byte	.LBE300
 8650 0aed 22        		.uleb128 0x22
 8651 0aee 9E04 0000 		.4byte	0x49e
 8652 0af2 00        		.byte	0x0
 8653 0af3 00        		.byte	0x0
 8654 0af4 2A        		.uleb128 0x2a
 8655 0af5 8504 0000 		.4byte	0x485
 8656 0af9 0000      		.2byte	.LBB302
 8657 0afb 0000      		.2byte	.LBE302
 8658 0afd 01        		.byte	0x1
 8659 0afe EF02      		.2byte	0x2ef
 8660 0b00 28        		.uleb128 0x28
 8661 0b01 6109 0000 		.4byte	0x961
 8662 0b05 29        		.uleb128 0x29
 8663 0b06 0000      		.2byte	.LBB303
 8664 0b08 0000      		.2byte	.LBE303
 8665 0b0a 22        		.uleb128 0x22
 8666 0b0b 9E04 0000 		.4byte	0x49e
 8667 0b0f 00        		.byte	0x0
 8668 0b10 00        		.byte	0x0
 8669 0b11 00        		.byte	0x0
 8670 0b12 25        		.uleb128 0x25
 8671 0b13 01        		.byte	0x1
 8672 0b14 0000 0000 		.4byte	.LASF64
 8673 0b18 01        		.byte	0x1
 8674 0b19 F502      		.2byte	0x2f5
 8675 0b1b 0000      		.2byte	.LFB20
 8676 0b1d 0000      		.2byte	.LFE20
 8677 0b1f 0000 0000 		.4byte	.LLST35
 8678 0b23 900B 0000 		.4byte	0xb90
 8679 0b27 26        		.uleb128 0x26
 8680 0b28 6900      		.string	"i"
 8681 0b2a 01        		.byte	0x1
 8682 0b2b F602      		.2byte	0x2f6
 8683 0b2d 3A00 0000 		.4byte	0x3a
 8684 0b31 0000 0000 		.4byte	.LLST36
 8685 0b35 26        		.uleb128 0x26
 8686 0b36 6A00      		.string	"j"
 8687 0b38 01        		.byte	0x1
 8688 0b39 F602      		.2byte	0x2f6
 8689 0b3b 3A00 0000 		.4byte	0x3a
 8690 0b3f 0000 0000 		.4byte	.LLST37
 8691 0b43 26        		.uleb128 0x26
 8692 0b44 6E00      		.string	"n"
 8693 0b46 01        		.byte	0x1
 8694 0b47 F602      		.2byte	0x2f6
 8695 0b49 3A00 0000 		.4byte	0x3a
 8696 0b4d 0000 0000 		.4byte	.LLST38
 8697 0b51 27        		.uleb128 0x27
 8698 0b52 8504 0000 		.4byte	0x485
 8699 0b56 0000      		.2byte	.LBB304
 8700 0b58 0000      		.2byte	.LBE304
 8701 0b5a 01        		.byte	0x1
 8702 0b5b 1C03      		.2byte	0x31c
 8703 0b5d 720B 0000 		.4byte	0xb72
 8704 0b61 28        		.uleb128 0x28
GAS LISTING /tmp/ccvQL2RB.s 			page 155


 8705 0b62 6109 0000 		.4byte	0x961
 8706 0b66 29        		.uleb128 0x29
 8707 0b67 0000      		.2byte	.LBB305
 8708 0b69 0000      		.2byte	.LBE305
 8709 0b6b 22        		.uleb128 0x22
 8710 0b6c 9E04 0000 		.4byte	0x49e
 8711 0b70 00        		.byte	0x0
 8712 0b71 00        		.byte	0x0
 8713 0b72 2A        		.uleb128 0x2a
 8714 0b73 8504 0000 		.4byte	0x485
 8715 0b77 0000      		.2byte	.LBB306
 8716 0b79 0000      		.2byte	.LBE306
 8717 0b7b 01        		.byte	0x1
 8718 0b7c 1D03      		.2byte	0x31d
 8719 0b7e 28        		.uleb128 0x28
 8720 0b7f 6109 0000 		.4byte	0x961
 8721 0b83 29        		.uleb128 0x29
 8722 0b84 0000      		.2byte	.LBB307
 8723 0b86 0000      		.2byte	.LBE307
 8724 0b88 22        		.uleb128 0x22
 8725 0b89 9E04 0000 		.4byte	0x49e
 8726 0b8d 00        		.byte	0x0
 8727 0b8e 00        		.byte	0x0
 8728 0b8f 00        		.byte	0x0
 8729 0b90 34        		.uleb128 0x34
 8730 0b91 01        		.byte	0x1
 8731 0b92 0000 0000 		.4byte	.LASF67
 8732 0b96 01        		.byte	0x1
 8733 0b97 2003      		.2byte	0x320
 8734 0b99 01        		.byte	0x1
 8735 0b9a 0000      		.2byte	.LFB21
 8736 0b9c 0000      		.2byte	.LFE21
 8737 0b9e 02        		.byte	0x2
 8738 0b9f 71        		.byte	0x71
 8739 0ba0 02        		.sleb128 2
 8740 0ba1 EF0B 0000 		.4byte	0xbef
 8741 0ba5 30        		.uleb128 0x30
 8742 0ba6 7800      		.string	"x"
 8743 0ba8 01        		.byte	0x1
 8744 0ba9 2003      		.2byte	0x320
 8745 0bab 2800 0000 		.4byte	0x28
 8746 0baf 0000 0000 		.4byte	.LLST40
 8747 0bb3 35        		.uleb128 0x35
 8748 0bb4 0000 0000 		.4byte	.LASF65
 8749 0bb8 01        		.byte	0x1
 8750 0bb9 2103      		.2byte	0x321
 8751 0bbb 3A00 0000 		.4byte	0x3a
 8752 0bbf 0000 0000 		.4byte	.LLST41
 8753 0bc3 26        		.uleb128 0x26
 8754 0bc4 6900      		.string	"i"
 8755 0bc6 01        		.byte	0x1
 8756 0bc7 2203      		.2byte	0x322
 8757 0bc9 3A00 0000 		.4byte	0x3a
 8758 0bcd 0000 0000 		.4byte	.LLST42
 8759 0bd1 2A        		.uleb128 0x2a
 8760 0bd2 A904 0000 		.4byte	0x4a9
 8761 0bd6 0000      		.2byte	.LBB308
GAS LISTING /tmp/ccvQL2RB.s 			page 156


 8762 0bd8 0000      		.2byte	.LBE308
 8763 0bda 01        		.byte	0x1
 8764 0bdb 2F03      		.2byte	0x32f
 8765 0bdd 29        		.uleb128 0x29
 8766 0bde 0000      		.2byte	.LBB309
 8767 0be0 0000      		.2byte	.LBE309
 8768 0be2 22        		.uleb128 0x22
 8769 0be3 BB04 0000 		.4byte	0x4bb
 8770 0be7 22        		.uleb128 0x22
 8771 0be8 C504 0000 		.4byte	0x4c5
 8772 0bec 00        		.byte	0x0
 8773 0bed 00        		.byte	0x0
 8774 0bee 00        		.byte	0x0
 8775 0bef 20        		.uleb128 0x20
 8776 0bf0 2105 0000 		.4byte	0x521
 8777 0bf4 0000      		.2byte	.LFB22
 8778 0bf6 0000      		.2byte	.LFE22
 8779 0bf8 02        		.byte	0x2
 8780 0bf9 71        		.byte	0x71
 8781 0bfa 02        		.sleb128 2
 8782 0bfb 260C 0000 		.4byte	0xc26
 8783 0bff 24        		.uleb128 0x24
 8784 0c00 2F05 0000 		.4byte	0x52f
 8785 0c04 0000 0000 		.4byte	.LLST44
 8786 0c08 2A        		.uleb128 0x2a
 8787 0c09 8504 0000 		.4byte	0x485
 8788 0c0d 0000      		.2byte	.LBB310
 8789 0c0f 0000      		.2byte	.LBE310
 8790 0c11 01        		.byte	0x1
 8791 0c12 3E03      		.2byte	0x33e
 8792 0c14 28        		.uleb128 0x28
 8793 0c15 6109 0000 		.4byte	0x961
 8794 0c19 29        		.uleb128 0x29
 8795 0c1a 0000      		.2byte	.LBB311
 8796 0c1c 0000      		.2byte	.LBE311
 8797 0c1e 22        		.uleb128 0x22
 8798 0c1f 9E04 0000 		.4byte	0x49e
 8799 0c23 00        		.byte	0x0
 8800 0c24 00        		.byte	0x0
 8801 0c25 00        		.byte	0x0
 8802 0c26 20        		.uleb128 0x20
 8803 0c27 3A05 0000 		.4byte	0x53a
 8804 0c2b 0000      		.2byte	.LFB23
 8805 0c2d 0000      		.2byte	.LFE23
 8806 0c2f 02        		.byte	0x2
 8807 0c30 71        		.byte	0x71
 8808 0c31 02        		.sleb128 2
 8809 0c32 5B0C 0000 		.4byte	0xc5b
 8810 0c36 32        		.uleb128 0x32
 8811 0c37 4805 0000 		.4byte	0x548
 8812 0c3b 01        		.byte	0x1
 8813 0c3c 5E        		.byte	0x5e
 8814 0c3d 2A        		.uleb128 0x2a
 8815 0c3e 8504 0000 		.4byte	0x485
 8816 0c42 0000      		.2byte	.LBB312
 8817 0c44 0000      		.2byte	.LBE312
 8818 0c46 01        		.byte	0x1
GAS LISTING /tmp/ccvQL2RB.s 			page 157


 8819 0c47 4403      		.2byte	0x344
 8820 0c49 28        		.uleb128 0x28
 8821 0c4a 6109 0000 		.4byte	0x961
 8822 0c4e 29        		.uleb128 0x29
 8823 0c4f 0000      		.2byte	.LBB313
 8824 0c51 0000      		.2byte	.LBE313
 8825 0c53 22        		.uleb128 0x22
 8826 0c54 9E04 0000 		.4byte	0x49e
 8827 0c58 00        		.byte	0x0
 8828 0c59 00        		.byte	0x0
 8829 0c5a 00        		.byte	0x0
 8830 0c5b 25        		.uleb128 0x25
 8831 0c5c 01        		.byte	0x1
 8832 0c5d 0000 0000 		.4byte	.LASF66
 8833 0c61 01        		.byte	0x1
 8834 0c62 4703      		.2byte	0x347
 8835 0c64 0000      		.2byte	.LFB24
 8836 0c66 0000      		.2byte	.LFE24
 8837 0c68 0000 0000 		.4byte	.LLST46
 8838 0c6c 7F0C 0000 		.4byte	0xc7f
 8839 0c70 26        		.uleb128 0x26
 8840 0c71 6900      		.string	"i"
 8841 0c73 01        		.byte	0x1
 8842 0c74 4803      		.2byte	0x348
 8843 0c76 4C00 0000 		.4byte	0x4c
 8844 0c7a 0000 0000 		.4byte	.LLST47
 8845 0c7e 00        		.byte	0x0
 8846 0c7f 36        		.uleb128 0x36
 8847 0c80 01        		.byte	0x1
 8848 0c81 0000 0000 		.4byte	.LASF68
 8849 0c85 01        		.byte	0x1
 8850 0c86 5603      		.2byte	0x356
 8851 0c88 01        		.byte	0x1
 8852 0c89 0000      		.2byte	.LFB25
 8853 0c8b 0000      		.2byte	.LFE25
 8854 0c8d 0000 0000 		.4byte	.LLST48
 8855 0c91 380D 0000 		.4byte	0xd38
 8856 0c95 30        		.uleb128 0x30
 8857 0c96 6E00      		.string	"n"
 8858 0c98 01        		.byte	0x1
 8859 0c99 5603      		.2byte	0x356
 8860 0c9b 3A00 0000 		.4byte	0x3a
 8861 0c9f 0000 0000 		.4byte	.LLST49
 8862 0ca3 26        		.uleb128 0x26
 8863 0ca4 6B00      		.string	"k"
 8864 0ca6 01        		.byte	0x1
 8865 0ca7 5703      		.2byte	0x357
 8866 0ca9 3A00 0000 		.4byte	0x3a
 8867 0cad 0000 0000 		.4byte	.LLST50
 8868 0cb1 37        		.uleb128 0x37
 8869 0cb2 7800      		.string	"x"
 8870 0cb4 01        		.byte	0x1
 8871 0cb5 5703      		.2byte	0x357
 8872 0cb7 380D 0000 		.4byte	0xd38
 8873 0cbb 02        		.byte	0x2
 8874 0cbc 91        		.byte	0x91
 8875 0cbd 00        		.sleb128 0
GAS LISTING /tmp/ccvQL2RB.s 			page 158


 8876 0cbe 26        		.uleb128 0x26
 8877 0cbf 6900      		.string	"i"
 8878 0cc1 01        		.byte	0x1
 8879 0cc2 5803      		.2byte	0x358
 8880 0cc4 3A00 0000 		.4byte	0x3a
 8881 0cc8 0000 0000 		.4byte	.LLST51
 8882 0ccc 18        		.uleb128 0x18
 8883 0ccd 6A00      		.string	"j"
 8884 0ccf 01        		.byte	0x1
 8885 0cd0 5803      		.2byte	0x358
 8886 0cd2 3A00 0000 		.4byte	0x3a
 8887 0cd6 2B        		.uleb128 0x2b
 8888 0cd7 0204 0000 		.4byte	0x402
 8889 0cdb 0000      		.2byte	.LBB314
 8890 0cdd 0000 0000 		.4byte	.Ldebug_ranges0+0x30
 8891 0ce1 01        		.byte	0x1
 8892 0ce2 6803      		.2byte	0x368
 8893 0ce4 F90C 0000 		.4byte	0xcf9
 8894 0ce8 28        		.uleb128 0x28
 8895 0ce9 B205 0000 		.4byte	0x5b2
 8896 0ced 2C        		.uleb128 0x2c
 8897 0cee 0000 0000 		.4byte	.Ldebug_ranges0+0x3c
 8898 0cf2 22        		.uleb128 0x22
 8899 0cf3 1B04 0000 		.4byte	0x41b
 8900 0cf7 00        		.byte	0x0
 8901 0cf8 00        		.byte	0x0
 8902 0cf9 27        		.uleb128 0x27
 8903 0cfa 0204 0000 		.4byte	0x402
 8904 0cfe 0000      		.2byte	.LBB317
 8905 0d00 0000      		.2byte	.LBE317
 8906 0d02 01        		.byte	0x1
 8907 0d03 6B03      		.2byte	0x36b
 8908 0d05 1A0D 0000 		.4byte	0xd1a
 8909 0d09 28        		.uleb128 0x28
 8910 0d0a B205 0000 		.4byte	0x5b2
 8911 0d0e 29        		.uleb128 0x29
 8912 0d0f 0000      		.2byte	.LBB318
 8913 0d11 0000      		.2byte	.LBE318
 8914 0d13 22        		.uleb128 0x22
 8915 0d14 1B04 0000 		.4byte	0x41b
 8916 0d18 00        		.byte	0x0
 8917 0d19 00        		.byte	0x0
 8918 0d1a 2A        		.uleb128 0x2a
 8919 0d1b 0204 0000 		.4byte	0x402
 8920 0d1f 0000      		.2byte	.LBB319
 8921 0d21 0000      		.2byte	.LBE319
 8922 0d23 01        		.byte	0x1
 8923 0d24 6D03      		.2byte	0x36d
 8924 0d26 28        		.uleb128 0x28
 8925 0d27 B205 0000 		.4byte	0x5b2
 8926 0d2b 29        		.uleb128 0x29
 8927 0d2c 0000      		.2byte	.LBB320
 8928 0d2e 0000      		.2byte	.LBE320
 8929 0d30 22        		.uleb128 0x22
 8930 0d31 1B04 0000 		.4byte	0x41b
 8931 0d35 00        		.byte	0x0
 8932 0d36 00        		.byte	0x0
GAS LISTING /tmp/ccvQL2RB.s 			page 159


 8933 0d37 00        		.byte	0x0
 8934 0d38 0D        		.uleb128 0xd
 8935 0d39 3A00 0000 		.4byte	0x3a
 8936 0d3d 480D 0000 		.4byte	0xd48
 8937 0d41 0E        		.uleb128 0xe
 8938 0d42 A102 0000 		.4byte	0x2a1
 8939 0d46 06        		.byte	0x6
 8940 0d47 00        		.byte	0x0
 8941 0d48 20        		.uleb128 0x20
 8942 0d49 D004 0000 		.4byte	0x4d0
 8943 0d4d 0000      		.2byte	.LFB26
 8944 0d4f 0000      		.2byte	.LFE26
 8945 0d51 02        		.byte	0x2
 8946 0d52 71        		.byte	0x71
 8947 0d53 02        		.sleb128 2
 8948 0d54 7F0D 0000 		.4byte	0xd7f
 8949 0d58 21        		.uleb128 0x21
 8950 0d59 DF04 0000 		.4byte	0x4df
 8951 0d5d 0000 0000 		.4byte	.LLST53
 8952 0d61 2A        		.uleb128 0x2a
 8953 0d62 0204 0000 		.4byte	0x402
 8954 0d66 0000      		.2byte	.LBB322
 8955 0d68 0000      		.2byte	.LBE322
 8956 0d6a 01        		.byte	0x1
 8957 0d6b 7603      		.2byte	0x376
 8958 0d6d 28        		.uleb128 0x28
 8959 0d6e B205 0000 		.4byte	0x5b2
 8960 0d72 29        		.uleb128 0x29
 8961 0d73 0000      		.2byte	.LBB323
 8962 0d75 0000      		.2byte	.LBE323
 8963 0d77 22        		.uleb128 0x22
 8964 0d78 1B04 0000 		.4byte	0x41b
 8965 0d7c 00        		.byte	0x0
 8966 0d7d 00        		.byte	0x0
 8967 0d7e 00        		.byte	0x0
 8968 0d7f 36        		.uleb128 0x36
 8969 0d80 01        		.byte	0x1
 8970 0d81 0000 0000 		.4byte	.LASF69
 8971 0d85 01        		.byte	0x1
 8972 0d86 7903      		.2byte	0x379
 8973 0d88 01        		.byte	0x1
 8974 0d89 0000      		.2byte	.LFB27
 8975 0d8b 0000      		.2byte	.LFE27
 8976 0d8d 0000 0000 		.4byte	.LLST54
 8977 0d91 0C0E 0000 		.4byte	0xe0c
 8978 0d95 30        		.uleb128 0x30
 8979 0d96 6E00      		.string	"n"
 8980 0d98 01        		.byte	0x1
 8981 0d99 7903      		.2byte	0x379
 8982 0d9b 3A00 0000 		.4byte	0x3a
 8983 0d9f 0000 0000 		.4byte	.LLST55
 8984 0da3 27        		.uleb128 0x27
 8985 0da4 D004 0000 		.4byte	0x4d0
 8986 0da8 0000      		.2byte	.LBB324
 8987 0daa 0000      		.2byte	.LBE324
 8988 0dac 01        		.byte	0x1
 8989 0dad 7B03      		.2byte	0x37b
GAS LISTING /tmp/ccvQL2RB.s 			page 160


 8990 0daf DA0D 0000 		.4byte	0xdda
 8991 0db3 21        		.uleb128 0x21
 8992 0db4 580D 0000 		.4byte	0xd58
 8993 0db8 0000 0000 		.4byte	.LLST56
 8994 0dbc 2A        		.uleb128 0x2a
 8995 0dbd 0204 0000 		.4byte	0x402
 8996 0dc1 0000      		.2byte	.LBB326
 8997 0dc3 0000      		.2byte	.LBE326
 8998 0dc5 01        		.byte	0x1
 8999 0dc6 7603      		.2byte	0x376
 9000 0dc8 28        		.uleb128 0x28
 9001 0dc9 B205 0000 		.4byte	0x5b2
 9002 0dcd 29        		.uleb128 0x29
 9003 0dce 0000      		.2byte	.LBB327
 9004 0dd0 0000      		.2byte	.LBE327
 9005 0dd2 22        		.uleb128 0x22
 9006 0dd3 1B04 0000 		.4byte	0x41b
 9007 0dd7 00        		.byte	0x0
 9008 0dd8 00        		.byte	0x0
 9009 0dd9 00        		.byte	0x0
 9010 0dda 2A        		.uleb128 0x2a
 9011 0ddb D004 0000 		.4byte	0x4d0
 9012 0ddf 0000      		.2byte	.LBB328
 9013 0de1 0000      		.2byte	.LBE328
 9014 0de3 01        		.byte	0x1
 9015 0de4 7C03      		.2byte	0x37c
 9016 0de6 2E        		.uleb128 0x2e
 9017 0de7 580D 0000 		.4byte	0xd58
 9018 0deb 01        		.byte	0x1
 9019 0dec 5D        		.byte	0x5d
 9020 0ded 2A        		.uleb128 0x2a
 9021 0dee 0204 0000 		.4byte	0x402
 9022 0df2 0000      		.2byte	.LBB330
 9023 0df4 0000      		.2byte	.LBE330
 9024 0df6 01        		.byte	0x1
 9025 0df7 7603      		.2byte	0x376
 9026 0df9 28        		.uleb128 0x28
 9027 0dfa B205 0000 		.4byte	0x5b2
 9028 0dfe 29        		.uleb128 0x29
 9029 0dff 0000      		.2byte	.LBB331
 9030 0e01 0000      		.2byte	.LBE331
 9031 0e03 22        		.uleb128 0x22
 9032 0e04 1B04 0000 		.4byte	0x41b
 9033 0e08 00        		.byte	0x0
 9034 0e09 00        		.byte	0x0
 9035 0e0a 00        		.byte	0x0
 9036 0e0b 00        		.byte	0x0
 9037 0e0c 36        		.uleb128 0x36
 9038 0e0d 01        		.byte	0x1
 9039 0e0e 0000 0000 		.4byte	.LASF70
 9040 0e12 01        		.byte	0x1
 9041 0e13 7F03      		.2byte	0x37f
 9042 0e15 01        		.byte	0x1
 9043 0e16 0000      		.2byte	.LFB28
 9044 0e18 0000      		.2byte	.LFE28
 9045 0e1a 0000 0000 		.4byte	.LLST57
 9046 0e1e 310E 0000 		.4byte	0xe31
GAS LISTING /tmp/ccvQL2RB.s 			page 161


 9047 0e22 30        		.uleb128 0x30
 9048 0e23 6E00      		.string	"n"
 9049 0e25 01        		.byte	0x1
 9050 0e26 7F03      		.2byte	0x37f
 9051 0e28 3A00 0000 		.4byte	0x3a
 9052 0e2c 0000 0000 		.4byte	.LLST58
 9053 0e30 00        		.byte	0x0
 9054 0e31 36        		.uleb128 0x36
 9055 0e32 01        		.byte	0x1
 9056 0e33 0000 0000 		.4byte	.LASF71
 9057 0e37 01        		.byte	0x1
 9058 0e38 9E03      		.2byte	0x39e
 9059 0e3a 01        		.byte	0x1
 9060 0e3b 0000      		.2byte	.LFB30
 9061 0e3d 0000      		.2byte	.LFE30
 9062 0e3f 0000 0000 		.4byte	.LLST59
 9063 0e43 C017 0000 		.4byte	0x17c0
 9064 0e47 30        		.uleb128 0x30
 9065 0e48 6E00      		.string	"n"
 9066 0e4a 01        		.byte	0x1
 9067 0e4b 9E03      		.2byte	0x39e
 9068 0e4d 3A00 0000 		.4byte	0x3a
 9069 0e51 0000 0000 		.4byte	.LLST60
 9070 0e55 26        		.uleb128 0x26
 9071 0e56 6900      		.string	"i"
 9072 0e58 01        		.byte	0x1
 9073 0e59 9F03      		.2byte	0x39f
 9074 0e5b 3A00 0000 		.4byte	0x3a
 9075 0e5f 0000 0000 		.4byte	.LLST61
 9076 0e63 26        		.uleb128 0x26
 9077 0e64 6A00      		.string	"j"
 9078 0e66 01        		.byte	0x1
 9079 0e67 9F03      		.2byte	0x39f
 9080 0e69 3A00 0000 		.4byte	0x3a
 9081 0e6d 0000 0000 		.4byte	.LLST62
 9082 0e71 26        		.uleb128 0x26
 9083 0e72 6B00      		.string	"k"
 9084 0e74 01        		.byte	0x1
 9085 0e75 9F03      		.2byte	0x39f
 9086 0e77 3A00 0000 		.4byte	0x3a
 9087 0e7b 0000 0000 		.4byte	.LLST63
 9088 0e7f 26        		.uleb128 0x26
 9089 0e80 6D00      		.string	"m"
 9090 0e82 01        		.byte	0x1
 9091 0e83 9F03      		.2byte	0x39f
 9092 0e85 3A00 0000 		.4byte	0x3a
 9093 0e89 0000 0000 		.4byte	.LLST64
 9094 0e8d 18        		.uleb128 0x18
 9095 0e8e 7800      		.string	"x"
 9096 0e90 01        		.byte	0x1
 9097 0e91 A003      		.2byte	0x3a0
 9098 0e93 5E00 0000 		.4byte	0x5e
 9099 0e97 18        		.uleb128 0x18
 9100 0e98 7900      		.string	"y"
 9101 0e9a 01        		.byte	0x1
 9102 0e9b A003      		.2byte	0x3a0
 9103 0e9d 5E00 0000 		.4byte	0x5e
GAS LISTING /tmp/ccvQL2RB.s 			page 162


 9104 0ea1 18        		.uleb128 0x18
 9105 0ea2 7A00      		.string	"z"
 9106 0ea4 01        		.byte	0x1
 9107 0ea5 A003      		.2byte	0x3a0
 9108 0ea7 5E00 0000 		.4byte	0x5e
 9109 0eab 27        		.uleb128 0x27
 9110 0eac 6004 0000 		.4byte	0x460
 9111 0eb0 0000      		.2byte	.LBB332
 9112 0eb2 0000      		.2byte	.LBE332
 9113 0eb4 01        		.byte	0x1
 9114 0eb5 0D05      		.2byte	0x50d
 9115 0eb7 E20E 0000 		.4byte	0xee2
 9116 0ebb 21        		.uleb128 0x21
 9117 0ebc 1208 0000 		.4byte	0x812
 9118 0ec0 0000 0000 		.4byte	.LLST65
 9119 0ec4 2A        		.uleb128 0x2a
 9120 0ec5 0204 0000 		.4byte	0x402
 9121 0ec9 0000      		.2byte	.LBB334
 9122 0ecb 0000      		.2byte	.LBE334
 9123 0ecd 01        		.byte	0x1
 9124 0ece 7402      		.2byte	0x274
 9125 0ed0 28        		.uleb128 0x28
 9126 0ed1 B205 0000 		.4byte	0x5b2
 9127 0ed5 29        		.uleb128 0x29
 9128 0ed6 0000      		.2byte	.LBB335
 9129 0ed8 0000      		.2byte	.LBE335
 9130 0eda 22        		.uleb128 0x22
 9131 0edb 1B04 0000 		.4byte	0x41b
 9132 0edf 00        		.byte	0x0
 9133 0ee0 00        		.byte	0x0
 9134 0ee1 00        		.byte	0x0
 9135 0ee2 27        		.uleb128 0x27
 9136 0ee3 2604 0000 		.4byte	0x426
 9137 0ee7 0000      		.2byte	.LBB336
 9138 0ee9 0000      		.2byte	.LBE336
 9139 0eeb 01        		.byte	0x1
 9140 0eec B604      		.2byte	0x4b6
 9141 0eee 020F 0000 		.4byte	0xf02
 9142 0ef2 29        		.uleb128 0x29
 9143 0ef3 0000      		.2byte	.LBB337
 9144 0ef5 0000      		.2byte	.LBE337
 9145 0ef7 24        		.uleb128 0x24
 9146 0ef8 3804 0000 		.4byte	0x438
 9147 0efc 0000 0000 		.4byte	.LLST66
 9148 0f00 00        		.byte	0x0
 9149 0f01 00        		.byte	0x0
 9150 0f02 27        		.uleb128 0x27
 9151 0f03 8504 0000 		.4byte	0x485
 9152 0f07 0000      		.2byte	.LBB338
 9153 0f09 0000      		.2byte	.LBE338
 9154 0f0b 01        		.byte	0x1
 9155 0f0c B604      		.2byte	0x4b6
 9156 0f0e 230F 0000 		.4byte	0xf23
 9157 0f12 28        		.uleb128 0x28
 9158 0f13 6109 0000 		.4byte	0x961
 9159 0f17 29        		.uleb128 0x29
 9160 0f18 0000      		.2byte	.LBB339
GAS LISTING /tmp/ccvQL2RB.s 			page 163


 9161 0f1a 0000      		.2byte	.LBE339
 9162 0f1c 22        		.uleb128 0x22
 9163 0f1d 9E04 0000 		.4byte	0x49e
 9164 0f21 00        		.byte	0x0
 9165 0f22 00        		.byte	0x0
 9166 0f23 2B        		.uleb128 0x2b
 9167 0f24 2105 0000 		.4byte	0x521
 9168 0f28 0000      		.2byte	.LBB340
 9169 0f2a 0000 0000 		.4byte	.Ldebug_ranges0+0x48
 9170 0f2e 01        		.byte	0x1
 9171 0f2f 4E04      		.2byte	0x44e
 9172 0f31 640F 0000 		.4byte	0xf64
 9173 0f35 2C        		.uleb128 0x2c
 9174 0f36 0000 0000 		.4byte	.Ldebug_ranges0+0x54
 9175 0f3a 24        		.uleb128 0x24
 9176 0f3b 2F05 0000 		.4byte	0x52f
 9177 0f3f 0000 0000 		.4byte	.LLST67
 9178 0f43 2A        		.uleb128 0x2a
 9179 0f44 8504 0000 		.4byte	0x485
 9180 0f48 0000      		.2byte	.LBB342
 9181 0f4a 0000      		.2byte	.LBE342
 9182 0f4c 01        		.byte	0x1
 9183 0f4d 3E03      		.2byte	0x33e
 9184 0f4f 2E        		.uleb128 0x2e
 9185 0f50 6109 0000 		.4byte	0x961
 9186 0f54 01        		.byte	0x1
 9187 0f55 5F        		.byte	0x5f
 9188 0f56 29        		.uleb128 0x29
 9189 0f57 0000      		.2byte	.LBB343
 9190 0f59 0000      		.2byte	.LBE343
 9191 0f5b 22        		.uleb128 0x22
 9192 0f5c 9E04 0000 		.4byte	0x49e
 9193 0f60 00        		.byte	0x0
 9194 0f61 00        		.byte	0x0
 9195 0f62 00        		.byte	0x0
 9196 0f63 00        		.byte	0x0
 9197 0f64 2B        		.uleb128 0x2b
 9198 0f65 8504 0000 		.4byte	0x485
 9199 0f69 0000      		.2byte	.LBB345
 9200 0f6b 0000 0000 		.4byte	.Ldebug_ranges0+0x60
 9201 0f6f 01        		.byte	0x1
 9202 0f70 9504      		.2byte	0x495
 9203 0f72 870F 0000 		.4byte	0xf87
 9204 0f76 28        		.uleb128 0x28
 9205 0f77 6109 0000 		.4byte	0x961
 9206 0f7b 2C        		.uleb128 0x2c
 9207 0f7c 0000 0000 		.4byte	.Ldebug_ranges0+0x7c
 9208 0f80 22        		.uleb128 0x22
 9209 0f81 9E04 0000 		.4byte	0x49e
 9210 0f85 00        		.byte	0x0
 9211 0f86 00        		.byte	0x0
 9212 0f87 2B        		.uleb128 0x2b
 9213 0f88 8504 0000 		.4byte	0x485
 9214 0f8c 0000      		.2byte	.LBB352
 9215 0f8e 0000 0000 		.4byte	.Ldebug_ranges0+0x98
 9216 0f92 01        		.byte	0x1
 9217 0f93 3E04      		.2byte	0x43e
GAS LISTING /tmp/ccvQL2RB.s 			page 164


 9218 0f95 AA0F 0000 		.4byte	0xfaa
 9219 0f99 28        		.uleb128 0x28
 9220 0f9a 6109 0000 		.4byte	0x961
 9221 0f9e 2C        		.uleb128 0x2c
 9222 0f9f 0000 0000 		.4byte	.Ldebug_ranges0+0xa8
 9223 0fa3 22        		.uleb128 0x22
 9224 0fa4 9E04 0000 		.4byte	0x49e
 9225 0fa8 00        		.byte	0x0
 9226 0fa9 00        		.byte	0x0
 9227 0faa 27        		.uleb128 0x27
 9228 0fab A904 0000 		.4byte	0x4a9
 9229 0faf 0000      		.2byte	.LBB356
 9230 0fb1 0000      		.2byte	.LBE356
 9231 0fb3 01        		.byte	0x1
 9232 0fb4 3504      		.2byte	0x435
 9233 0fb6 CF0F 0000 		.4byte	0xfcf
 9234 0fba 29        		.uleb128 0x29
 9235 0fbb 0000      		.2byte	.LBB357
 9236 0fbd 0000      		.2byte	.LBE357
 9237 0fbf 22        		.uleb128 0x22
 9238 0fc0 BB04 0000 		.4byte	0x4bb
 9239 0fc4 24        		.uleb128 0x24
 9240 0fc5 C504 0000 		.4byte	0x4c5
 9241 0fc9 0000 0000 		.4byte	.LLST68
 9242 0fcd 00        		.byte	0x0
 9243 0fce 00        		.byte	0x0
 9244 0fcf 27        		.uleb128 0x27
 9245 0fd0 0405 0000 		.4byte	0x504
 9246 0fd4 0000      		.2byte	.LBB358
 9247 0fd6 0000      		.2byte	.LBE358
 9248 0fd8 01        		.byte	0x1
 9249 0fd9 2604      		.2byte	0x426
 9250 0fdb EB0F 0000 		.4byte	0xfeb
 9251 0fdf 29        		.uleb128 0x29
 9252 0fe0 0000      		.2byte	.LBB359
 9253 0fe2 0000      		.2byte	.LBE359
 9254 0fe4 22        		.uleb128 0x22
 9255 0fe5 1605 0000 		.4byte	0x516
 9256 0fe9 00        		.byte	0x0
 9257 0fea 00        		.byte	0x0
 9258 0feb 27        		.uleb128 0x27
 9259 0fec A904 0000 		.4byte	0x4a9
 9260 0ff0 0000      		.2byte	.LBB360
 9261 0ff2 0000      		.2byte	.LBE360
 9262 0ff4 01        		.byte	0x1
 9263 0ff5 2704      		.2byte	0x427
 9264 0ff7 0C10 0000 		.4byte	0x100c
 9265 0ffb 29        		.uleb128 0x29
 9266 0ffc 0000      		.2byte	.LBB361
 9267 0ffe 0000      		.2byte	.LBE361
 9268 1000 22        		.uleb128 0x22
 9269 1001 BB04 0000 		.4byte	0x4bb
 9270 1005 22        		.uleb128 0x22
 9271 1006 C504 0000 		.4byte	0x4c5
 9272 100a 00        		.byte	0x0
 9273 100b 00        		.byte	0x0
 9274 100c 27        		.uleb128 0x27
GAS LISTING /tmp/ccvQL2RB.s 			page 165


 9275 100d EA04 0000 		.4byte	0x4ea
 9276 1011 0000      		.2byte	.LBB362
 9277 1013 0000      		.2byte	.LBE362
 9278 1015 01        		.byte	0x1
 9279 1016 2204      		.2byte	0x422
 9280 1018 2210 0000 		.4byte	0x1022
 9281 101c 28        		.uleb128 0x28
 9282 101d 9409 0000 		.4byte	0x994
 9283 1021 00        		.byte	0x0
 9284 1022 27        		.uleb128 0x27
 9285 1023 A904 0000 		.4byte	0x4a9
 9286 1027 0000      		.2byte	.LBB364
 9287 1029 0000      		.2byte	.LBE364
 9288 102b 01        		.byte	0x1
 9289 102c A803      		.2byte	0x3a8
 9290 102e 4310 0000 		.4byte	0x1043
 9291 1032 29        		.uleb128 0x29
 9292 1033 0000      		.2byte	.LBB365
 9293 1035 0000      		.2byte	.LBE365
 9294 1037 22        		.uleb128 0x22
 9295 1038 BB04 0000 		.4byte	0x4bb
 9296 103c 22        		.uleb128 0x22
 9297 103d C504 0000 		.4byte	0x4c5
 9298 1041 00        		.byte	0x0
 9299 1042 00        		.byte	0x0
 9300 1043 27        		.uleb128 0x27
 9301 1044 0204 0000 		.4byte	0x402
 9302 1048 0000      		.2byte	.LBB366
 9303 104a 0000      		.2byte	.LBE366
 9304 104c 01        		.byte	0x1
 9305 104d BA04      		.2byte	0x4ba
 9306 104f 6410 0000 		.4byte	0x1064
 9307 1053 28        		.uleb128 0x28
 9308 1054 B205 0000 		.4byte	0x5b2
 9309 1058 29        		.uleb128 0x29
 9310 1059 0000      		.2byte	.LBB367
 9311 105b 0000      		.2byte	.LBE367
 9312 105d 22        		.uleb128 0x22
 9313 105e 1B04 0000 		.4byte	0x41b
 9314 1062 00        		.byte	0x0
 9315 1063 00        		.byte	0x0
 9316 1064 27        		.uleb128 0x27
 9317 1065 0204 0000 		.4byte	0x402
 9318 1069 0000      		.2byte	.LBB368
 9319 106b 0000      		.2byte	.LBE368
 9320 106d 01        		.byte	0x1
 9321 106e BB04      		.2byte	0x4bb
 9322 1070 8510 0000 		.4byte	0x1085
 9323 1074 28        		.uleb128 0x28
 9324 1075 B205 0000 		.4byte	0x5b2
 9325 1079 29        		.uleb128 0x29
 9326 107a 0000      		.2byte	.LBB369
 9327 107c 0000      		.2byte	.LBE369
 9328 107e 22        		.uleb128 0x22
 9329 107f 1B04 0000 		.4byte	0x41b
 9330 1083 00        		.byte	0x0
 9331 1084 00        		.byte	0x0
GAS LISTING /tmp/ccvQL2RB.s 			page 166


 9332 1085 27        		.uleb128 0x27
 9333 1086 8504 0000 		.4byte	0x485
 9334 108a 0000      		.2byte	.LBB370
 9335 108c 0000      		.2byte	.LBE370
 9336 108e 01        		.byte	0x1
 9337 108f CC04      		.2byte	0x4cc
 9338 1091 A610 0000 		.4byte	0x10a6
 9339 1095 28        		.uleb128 0x28
 9340 1096 6109 0000 		.4byte	0x961
 9341 109a 29        		.uleb128 0x29
 9342 109b 0000      		.2byte	.LBB371
 9343 109d 0000      		.2byte	.LBE371
 9344 109f 22        		.uleb128 0x22
 9345 10a0 9E04 0000 		.4byte	0x49e
 9346 10a4 00        		.byte	0x0
 9347 10a5 00        		.byte	0x0
 9348 10a6 27        		.uleb128 0x27
 9349 10a7 0204 0000 		.4byte	0x402
 9350 10ab 0000      		.2byte	.LBB372
 9351 10ad 0000      		.2byte	.LBE372
 9352 10af 01        		.byte	0x1
 9353 10b0 EA04      		.2byte	0x4ea
 9354 10b2 C710 0000 		.4byte	0x10c7
 9355 10b6 28        		.uleb128 0x28
 9356 10b7 B205 0000 		.4byte	0x5b2
 9357 10bb 29        		.uleb128 0x29
 9358 10bc 0000      		.2byte	.LBB373
 9359 10be 0000      		.2byte	.LBE373
 9360 10c0 22        		.uleb128 0x22
 9361 10c1 1B04 0000 		.4byte	0x41b
 9362 10c5 00        		.byte	0x0
 9363 10c6 00        		.byte	0x0
 9364 10c7 27        		.uleb128 0x27
 9365 10c8 0204 0000 		.4byte	0x402
 9366 10cc 0000      		.2byte	.LBB374
 9367 10ce 0000      		.2byte	.LBE374
 9368 10d0 01        		.byte	0x1
 9369 10d1 EC04      		.2byte	0x4ec
 9370 10d3 E810 0000 		.4byte	0x10e8
 9371 10d7 28        		.uleb128 0x28
 9372 10d8 B205 0000 		.4byte	0x5b2
 9373 10dc 29        		.uleb128 0x29
 9374 10dd 0000      		.2byte	.LBB375
 9375 10df 0000      		.2byte	.LBE375
 9376 10e1 22        		.uleb128 0x22
 9377 10e2 1B04 0000 		.4byte	0x41b
 9378 10e6 00        		.byte	0x0
 9379 10e7 00        		.byte	0x0
 9380 10e8 27        		.uleb128 0x27
 9381 10e9 0204 0000 		.4byte	0x402
 9382 10ed 0000      		.2byte	.LBB376
 9383 10ef 0000      		.2byte	.LBE376
 9384 10f1 01        		.byte	0x1
 9385 10f2 E004      		.2byte	0x4e0
 9386 10f4 0911 0000 		.4byte	0x1109
 9387 10f8 28        		.uleb128 0x28
 9388 10f9 B205 0000 		.4byte	0x5b2
GAS LISTING /tmp/ccvQL2RB.s 			page 167


 9389 10fd 29        		.uleb128 0x29
 9390 10fe 0000      		.2byte	.LBB377
 9391 1100 0000      		.2byte	.LBE377
 9392 1102 22        		.uleb128 0x22
 9393 1103 1B04 0000 		.4byte	0x41b
 9394 1107 00        		.byte	0x0
 9395 1108 00        		.byte	0x0
 9396 1109 27        		.uleb128 0x27
 9397 110a 0204 0000 		.4byte	0x402
 9398 110e 0000      		.2byte	.LBB378
 9399 1110 0000      		.2byte	.LBE378
 9400 1112 01        		.byte	0x1
 9401 1113 E204      		.2byte	0x4e2
 9402 1115 2A11 0000 		.4byte	0x112a
 9403 1119 28        		.uleb128 0x28
 9404 111a B205 0000 		.4byte	0x5b2
 9405 111e 29        		.uleb128 0x29
 9406 111f 0000      		.2byte	.LBB379
 9407 1121 0000      		.2byte	.LBE379
 9408 1123 22        		.uleb128 0x22
 9409 1124 1B04 0000 		.4byte	0x41b
 9410 1128 00        		.byte	0x0
 9411 1129 00        		.byte	0x0
 9412 112a 27        		.uleb128 0x27
 9413 112b 0204 0000 		.4byte	0x402
 9414 112f 0000      		.2byte	.LBB380
 9415 1131 0000      		.2byte	.LBE380
 9416 1133 01        		.byte	0x1
 9417 1134 E304      		.2byte	0x4e3
 9418 1136 4B11 0000 		.4byte	0x114b
 9419 113a 28        		.uleb128 0x28
 9420 113b B205 0000 		.4byte	0x5b2
 9421 113f 29        		.uleb128 0x29
 9422 1140 0000      		.2byte	.LBB381
 9423 1142 0000      		.2byte	.LBE381
 9424 1144 22        		.uleb128 0x22
 9425 1145 1B04 0000 		.4byte	0x41b
 9426 1149 00        		.byte	0x0
 9427 114a 00        		.byte	0x0
 9428 114b 27        		.uleb128 0x27
 9429 114c 8504 0000 		.4byte	0x485
 9430 1150 0000      		.2byte	.LBB382
 9431 1152 0000      		.2byte	.LBE382
 9432 1154 01        		.byte	0x1
 9433 1155 7504      		.2byte	0x475
 9434 1157 6C11 0000 		.4byte	0x116c
 9435 115b 28        		.uleb128 0x28
 9436 115c 6109 0000 		.4byte	0x961
 9437 1160 29        		.uleb128 0x29
 9438 1161 0000      		.2byte	.LBB383
 9439 1163 0000      		.2byte	.LBE383
 9440 1165 22        		.uleb128 0x22
 9441 1166 9E04 0000 		.4byte	0x49e
 9442 116a 00        		.byte	0x0
 9443 116b 00        		.byte	0x0
 9444 116c 27        		.uleb128 0x27
 9445 116d A904 0000 		.4byte	0x4a9
GAS LISTING /tmp/ccvQL2RB.s 			page 168


 9446 1171 0000      		.2byte	.LBB385
 9447 1173 0000      		.2byte	.LBE385
 9448 1175 01        		.byte	0x1
 9449 1176 6E04      		.2byte	0x46e
 9450 1178 8D11 0000 		.4byte	0x118d
 9451 117c 29        		.uleb128 0x29
 9452 117d 0000      		.2byte	.LBB386
 9453 117f 0000      		.2byte	.LBE386
 9454 1181 22        		.uleb128 0x22
 9455 1182 BB04 0000 		.4byte	0x4bb
 9456 1186 22        		.uleb128 0x22
 9457 1187 C504 0000 		.4byte	0x4c5
 9458 118b 00        		.byte	0x0
 9459 118c 00        		.byte	0x0
 9460 118d 27        		.uleb128 0x27
 9461 118e A904 0000 		.4byte	0x4a9
 9462 1192 0000      		.2byte	.LBB387
 9463 1194 0000      		.2byte	.LBE387
 9464 1196 01        		.byte	0x1
 9465 1197 7004      		.2byte	0x470
 9466 1199 AE11 0000 		.4byte	0x11ae
 9467 119d 29        		.uleb128 0x29
 9468 119e 0000      		.2byte	.LBB388
 9469 11a0 0000      		.2byte	.LBE388
 9470 11a2 22        		.uleb128 0x22
 9471 11a3 BB04 0000 		.4byte	0x4bb
 9472 11a7 22        		.uleb128 0x22
 9473 11a8 C504 0000 		.4byte	0x4c5
 9474 11ac 00        		.byte	0x0
 9475 11ad 00        		.byte	0x0
 9476 11ae 27        		.uleb128 0x27
 9477 11af A904 0000 		.4byte	0x4a9
 9478 11b3 0000      		.2byte	.LBB389
 9479 11b5 0000      		.2byte	.LBE389
 9480 11b7 01        		.byte	0x1
 9481 11b8 6704      		.2byte	0x467
 9482 11ba CF11 0000 		.4byte	0x11cf
 9483 11be 29        		.uleb128 0x29
 9484 11bf 0000      		.2byte	.LBB390
 9485 11c1 0000      		.2byte	.LBE390
 9486 11c3 22        		.uleb128 0x22
 9487 11c4 BB04 0000 		.4byte	0x4bb
 9488 11c8 22        		.uleb128 0x22
 9489 11c9 C504 0000 		.4byte	0x4c5
 9490 11cd 00        		.byte	0x0
 9491 11ce 00        		.byte	0x0
 9492 11cf 27        		.uleb128 0x27
 9493 11d0 8504 0000 		.4byte	0x485
 9494 11d4 0000      		.2byte	.LBB391
 9495 11d6 0000      		.2byte	.LBE391
 9496 11d8 01        		.byte	0x1
 9497 11d9 6A04      		.2byte	0x46a
 9498 11db F011 0000 		.4byte	0x11f0
 9499 11df 28        		.uleb128 0x28
 9500 11e0 6109 0000 		.4byte	0x961
 9501 11e4 29        		.uleb128 0x29
 9502 11e5 0000      		.2byte	.LBB392
GAS LISTING /tmp/ccvQL2RB.s 			page 169


 9503 11e7 0000      		.2byte	.LBE392
 9504 11e9 22        		.uleb128 0x22
 9505 11ea 9E04 0000 		.4byte	0x49e
 9506 11ee 00        		.byte	0x0
 9507 11ef 00        		.byte	0x0
 9508 11f0 27        		.uleb128 0x27
 9509 11f1 0405 0000 		.4byte	0x504
 9510 11f5 0000      		.2byte	.LBB394
 9511 11f7 0000      		.2byte	.LBE394
 9512 11f9 01        		.byte	0x1
 9513 11fa 6304      		.2byte	0x463
 9514 11fc 0C12 0000 		.4byte	0x120c
 9515 1200 29        		.uleb128 0x29
 9516 1201 0000      		.2byte	.LBB395
 9517 1203 0000      		.2byte	.LBE395
 9518 1205 22        		.uleb128 0x22
 9519 1206 1605 0000 		.4byte	0x516
 9520 120a 00        		.byte	0x0
 9521 120b 00        		.byte	0x0
 9522 120c 27        		.uleb128 0x27
 9523 120d A904 0000 		.4byte	0x4a9
 9524 1211 0000      		.2byte	.LBB396
 9525 1213 0000      		.2byte	.LBE396
 9526 1215 01        		.byte	0x1
 9527 1216 5E04      		.2byte	0x45e
 9528 1218 3112 0000 		.4byte	0x1231
 9529 121c 29        		.uleb128 0x29
 9530 121d 0000      		.2byte	.LBB397
 9531 121f 0000      		.2byte	.LBE397
 9532 1221 22        		.uleb128 0x22
 9533 1222 BB04 0000 		.4byte	0x4bb
 9534 1226 24        		.uleb128 0x24
 9535 1227 C504 0000 		.4byte	0x4c5
 9536 122b 0000 0000 		.4byte	.LLST69
 9537 122f 00        		.byte	0x0
 9538 1230 00        		.byte	0x0
 9539 1231 27        		.uleb128 0x27
 9540 1232 0204 0000 		.4byte	0x402
 9541 1236 0000      		.2byte	.LBB398
 9542 1238 0000      		.2byte	.LBE398
 9543 123a 01        		.byte	0x1
 9544 123b 5E04      		.2byte	0x45e
 9545 123d 5212 0000 		.4byte	0x1252
 9546 1241 28        		.uleb128 0x28
 9547 1242 B205 0000 		.4byte	0x5b2
 9548 1246 29        		.uleb128 0x29
 9549 1247 0000      		.2byte	.LBB399
 9550 1249 0000      		.2byte	.LBE399
 9551 124b 22        		.uleb128 0x22
 9552 124c 1B04 0000 		.4byte	0x41b
 9553 1250 00        		.byte	0x0
 9554 1251 00        		.byte	0x0
 9555 1252 2B        		.uleb128 0x2b
 9556 1253 6004 0000 		.4byte	0x460
 9557 1257 0000      		.2byte	.LBB400
 9558 1259 0000 0000 		.4byte	.Ldebug_ranges0+0xb8
 9559 125d 01        		.byte	0x1
GAS LISTING /tmp/ccvQL2RB.s 			page 170


 9560 125e 5A04      		.2byte	0x45a
 9561 1260 8B12 0000 		.4byte	0x128b
 9562 1264 21        		.uleb128 0x21
 9563 1265 1208 0000 		.4byte	0x812
 9564 1269 0000 0000 		.4byte	.LLST70
 9565 126d 2A        		.uleb128 0x2a
 9566 126e 0204 0000 		.4byte	0x402
 9567 1272 0000      		.2byte	.LBB402
 9568 1274 0000      		.2byte	.LBE402
 9569 1276 01        		.byte	0x1
 9570 1277 7402      		.2byte	0x274
 9571 1279 28        		.uleb128 0x28
 9572 127a B205 0000 		.4byte	0x5b2
 9573 127e 29        		.uleb128 0x29
 9574 127f 0000      		.2byte	.LBB403
 9575 1281 0000      		.2byte	.LBE403
 9576 1283 22        		.uleb128 0x22
 9577 1284 1B04 0000 		.4byte	0x41b
 9578 1288 00        		.byte	0x0
 9579 1289 00        		.byte	0x0
 9580 128a 00        		.byte	0x0
 9581 128b 2B        		.uleb128 0x2b
 9582 128c 8504 0000 		.4byte	0x485
 9583 1290 0000      		.2byte	.LBB406
 9584 1292 0000 0000 		.4byte	.Ldebug_ranges0+0xc4
 9585 1296 01        		.byte	0x1
 9586 1297 5604      		.2byte	0x456
 9587 1299 AE12 0000 		.4byte	0x12ae
 9588 129d 28        		.uleb128 0x28
 9589 129e 6109 0000 		.4byte	0x961
 9590 12a2 2C        		.uleb128 0x2c
 9591 12a3 0000 0000 		.4byte	.Ldebug_ranges0+0xd4
 9592 12a7 22        		.uleb128 0x22
 9593 12a8 9E04 0000 		.4byte	0x49e
 9594 12ac 00        		.byte	0x0
 9595 12ad 00        		.byte	0x0
 9596 12ae 27        		.uleb128 0x27
 9597 12af 3A05 0000 		.4byte	0x53a
 9598 12b3 0000      		.2byte	.LBB410
 9599 12b5 0000      		.2byte	.LBE410
 9600 12b7 01        		.byte	0x1
 9601 12b8 5204      		.2byte	0x452
 9602 12ba ED12 0000 		.4byte	0x12ed
 9603 12be 29        		.uleb128 0x29
 9604 12bf 0000      		.2byte	.LBB411
 9605 12c1 0000      		.2byte	.LBE411
 9606 12c3 24        		.uleb128 0x24
 9607 12c4 4805 0000 		.4byte	0x548
 9608 12c8 0000 0000 		.4byte	.LLST71
 9609 12cc 2A        		.uleb128 0x2a
 9610 12cd 8504 0000 		.4byte	0x485
 9611 12d1 0000      		.2byte	.LBB412
 9612 12d3 0000      		.2byte	.LBE412
 9613 12d5 01        		.byte	0x1
 9614 12d6 4403      		.2byte	0x344
 9615 12d8 2E        		.uleb128 0x2e
 9616 12d9 6109 0000 		.4byte	0x961
GAS LISTING /tmp/ccvQL2RB.s 			page 171


 9617 12dd 01        		.byte	0x1
 9618 12de 5F        		.byte	0x5f
 9619 12df 29        		.uleb128 0x29
 9620 12e0 0000      		.2byte	.LBB413
 9621 12e2 0000      		.2byte	.LBE413
 9622 12e4 22        		.uleb128 0x22
 9623 12e5 9E04 0000 		.4byte	0x49e
 9624 12e9 00        		.byte	0x0
 9625 12ea 00        		.byte	0x0
 9626 12eb 00        		.byte	0x0
 9627 12ec 00        		.byte	0x0
 9628 12ed 27        		.uleb128 0x27
 9629 12ee A904 0000 		.4byte	0x4a9
 9630 12f2 0000      		.2byte	.LBB415
 9631 12f4 0000      		.2byte	.LBE415
 9632 12f6 01        		.byte	0x1
 9633 12f7 0305      		.2byte	0x503
 9634 12f9 0E13 0000 		.4byte	0x130e
 9635 12fd 29        		.uleb128 0x29
 9636 12fe 0000      		.2byte	.LBB416
 9637 1300 0000      		.2byte	.LBE416
 9638 1302 22        		.uleb128 0x22
 9639 1303 BB04 0000 		.4byte	0x4bb
 9640 1307 22        		.uleb128 0x22
 9641 1308 C504 0000 		.4byte	0x4c5
 9642 130c 00        		.byte	0x0
 9643 130d 00        		.byte	0x0
 9644 130e 27        		.uleb128 0x27
 9645 130f 0405 0000 		.4byte	0x504
 9646 1313 0000      		.2byte	.LBB418
 9647 1315 0000      		.2byte	.LBE418
 9648 1317 01        		.byte	0x1
 9649 1318 8304      		.2byte	0x483
 9650 131a 2A13 0000 		.4byte	0x132a
 9651 131e 29        		.uleb128 0x29
 9652 131f 0000      		.2byte	.LBB419
 9653 1321 0000      		.2byte	.LBE419
 9654 1323 22        		.uleb128 0x22
 9655 1324 1605 0000 		.4byte	0x516
 9656 1328 00        		.byte	0x0
 9657 1329 00        		.byte	0x0
 9658 132a 27        		.uleb128 0x27
 9659 132b 0405 0000 		.4byte	0x504
 9660 132f 0000      		.2byte	.LBB420
 9661 1331 0000      		.2byte	.LBE420
 9662 1333 01        		.byte	0x1
 9663 1334 8404      		.2byte	0x484
 9664 1336 4613 0000 		.4byte	0x1346
 9665 133a 29        		.uleb128 0x29
 9666 133b 0000      		.2byte	.LBB421
 9667 133d 0000      		.2byte	.LBE421
 9668 133f 22        		.uleb128 0x22
 9669 1340 1605 0000 		.4byte	0x516
 9670 1344 00        		.byte	0x0
 9671 1345 00        		.byte	0x0
 9672 1346 27        		.uleb128 0x27
 9673 1347 0405 0000 		.4byte	0x504
GAS LISTING /tmp/ccvQL2RB.s 			page 172


 9674 134b 0000      		.2byte	.LBB422
 9675 134d 0000      		.2byte	.LBE422
 9676 134f 01        		.byte	0x1
 9677 1350 8504      		.2byte	0x485
 9678 1352 6213 0000 		.4byte	0x1362
 9679 1356 29        		.uleb128 0x29
 9680 1357 0000      		.2byte	.LBB423
 9681 1359 0000      		.2byte	.LBE423
 9682 135b 22        		.uleb128 0x22
 9683 135c 1605 0000 		.4byte	0x516
 9684 1360 00        		.byte	0x0
 9685 1361 00        		.byte	0x0
 9686 1362 27        		.uleb128 0x27
 9687 1363 EA04 0000 		.4byte	0x4ea
 9688 1367 0000      		.2byte	.LBB424
 9689 1369 0000      		.2byte	.LBE424
 9690 136b 01        		.byte	0x1
 9691 136c 8C04      		.2byte	0x48c
 9692 136e 7813 0000 		.4byte	0x1378
 9693 1372 28        		.uleb128 0x28
 9694 1373 9409 0000 		.4byte	0x994
 9695 1377 00        		.byte	0x0
 9696 1378 27        		.uleb128 0x27
 9697 1379 EA04 0000 		.4byte	0x4ea
 9698 137d 0000      		.2byte	.LBB426
 9699 137f 0000      		.2byte	.LBE426
 9700 1381 01        		.byte	0x1
 9701 1382 8D04      		.2byte	0x48d
 9702 1384 8E13 0000 		.4byte	0x138e
 9703 1388 28        		.uleb128 0x28
 9704 1389 9409 0000 		.4byte	0x994
 9705 138d 00        		.byte	0x0
 9706 138e 27        		.uleb128 0x27
 9707 138f A904 0000 		.4byte	0x4a9
 9708 1393 0000      		.2byte	.LBB428
 9709 1395 0000      		.2byte	.LBE428
 9710 1397 01        		.byte	0x1
 9711 1398 7904      		.2byte	0x479
 9712 139a AF13 0000 		.4byte	0x13af
 9713 139e 29        		.uleb128 0x29
 9714 139f 0000      		.2byte	.LBB429
 9715 13a1 0000      		.2byte	.LBE429
 9716 13a3 22        		.uleb128 0x22
 9717 13a4 BB04 0000 		.4byte	0x4bb
 9718 13a8 22        		.uleb128 0x22
 9719 13a9 C504 0000 		.4byte	0x4c5
 9720 13ad 00        		.byte	0x0
 9721 13ae 00        		.byte	0x0
 9722 13af 27        		.uleb128 0x27
 9723 13b0 A904 0000 		.4byte	0x4a9
 9724 13b4 0000      		.2byte	.LBB430
 9725 13b6 0000      		.2byte	.LBE430
 9726 13b8 01        		.byte	0x1
 9727 13b9 7A04      		.2byte	0x47a
 9728 13bb D013 0000 		.4byte	0x13d0
 9729 13bf 29        		.uleb128 0x29
 9730 13c0 0000      		.2byte	.LBB431
GAS LISTING /tmp/ccvQL2RB.s 			page 173


 9731 13c2 0000      		.2byte	.LBE431
 9732 13c4 22        		.uleb128 0x22
 9733 13c5 BB04 0000 		.4byte	0x4bb
 9734 13c9 22        		.uleb128 0x22
 9735 13ca C504 0000 		.4byte	0x4c5
 9736 13ce 00        		.byte	0x0
 9737 13cf 00        		.byte	0x0
 9738 13d0 27        		.uleb128 0x27
 9739 13d1 EA04 0000 		.4byte	0x4ea
 9740 13d5 0000      		.2byte	.LBB432
 9741 13d7 0000      		.2byte	.LBE432
 9742 13d9 01        		.byte	0x1
 9743 13da 7D04      		.2byte	0x47d
 9744 13dc E613 0000 		.4byte	0x13e6
 9745 13e0 28        		.uleb128 0x28
 9746 13e1 9409 0000 		.4byte	0x994
 9747 13e5 00        		.byte	0x0
 9748 13e6 27        		.uleb128 0x27
 9749 13e7 EA04 0000 		.4byte	0x4ea
 9750 13eb 0000      		.2byte	.LBB434
 9751 13ed 0000      		.2byte	.LBE434
 9752 13ef 01        		.byte	0x1
 9753 13f0 7E04      		.2byte	0x47e
 9754 13f2 FC13 0000 		.4byte	0x13fc
 9755 13f6 28        		.uleb128 0x28
 9756 13f7 9409 0000 		.4byte	0x994
 9757 13fb 00        		.byte	0x0
 9758 13fc 27        		.uleb128 0x27
 9759 13fd EA04 0000 		.4byte	0x4ea
 9760 1401 0000      		.2byte	.LBB436
 9761 1403 0000      		.2byte	.LBE436
 9762 1405 01        		.byte	0x1
 9763 1406 7F04      		.2byte	0x47f
 9764 1408 1214 0000 		.4byte	0x1412
 9765 140c 28        		.uleb128 0x28
 9766 140d 9409 0000 		.4byte	0x994
 9767 1411 00        		.byte	0x0
 9768 1412 27        		.uleb128 0x27
 9769 1413 A904 0000 		.4byte	0x4a9
 9770 1417 0000      		.2byte	.LBB438
 9771 1419 0000      		.2byte	.LBE438
 9772 141b 01        		.byte	0x1
 9773 141c A504      		.2byte	0x4a5
 9774 141e 3314 0000 		.4byte	0x1433
 9775 1422 29        		.uleb128 0x29
 9776 1423 0000      		.2byte	.LBB439
 9777 1425 0000      		.2byte	.LBE439
 9778 1427 22        		.uleb128 0x22
 9779 1428 BB04 0000 		.4byte	0x4bb
 9780 142c 22        		.uleb128 0x22
 9781 142d C504 0000 		.4byte	0x4c5
 9782 1431 00        		.byte	0x0
 9783 1432 00        		.byte	0x0
 9784 1433 27        		.uleb128 0x27
 9785 1434 A904 0000 		.4byte	0x4a9
 9786 1438 0000      		.2byte	.LBB440
 9787 143a 0000      		.2byte	.LBE440
GAS LISTING /tmp/ccvQL2RB.s 			page 174


 9788 143c 01        		.byte	0x1
 9789 143d 9E04      		.2byte	0x49e
 9790 143f 5414 0000 		.4byte	0x1454
 9791 1443 29        		.uleb128 0x29
 9792 1444 0000      		.2byte	.LBB441
 9793 1446 0000      		.2byte	.LBE441
 9794 1448 22        		.uleb128 0x22
 9795 1449 BB04 0000 		.4byte	0x4bb
 9796 144d 22        		.uleb128 0x22
 9797 144e C504 0000 		.4byte	0x4c5
 9798 1452 00        		.byte	0x0
 9799 1453 00        		.byte	0x0
 9800 1454 27        		.uleb128 0x27
 9801 1455 A904 0000 		.4byte	0x4a9
 9802 1459 0000      		.2byte	.LBB442
 9803 145b 0000      		.2byte	.LBE442
 9804 145d 01        		.byte	0x1
 9805 145e 9F04      		.2byte	0x49f
 9806 1460 7514 0000 		.4byte	0x1475
 9807 1464 29        		.uleb128 0x29
 9808 1465 0000      		.2byte	.LBB443
 9809 1467 0000      		.2byte	.LBE443
 9810 1469 22        		.uleb128 0x22
 9811 146a BB04 0000 		.4byte	0x4bb
 9812 146e 22        		.uleb128 0x22
 9813 146f C504 0000 		.4byte	0x4c5
 9814 1473 00        		.byte	0x0
 9815 1474 00        		.byte	0x0
 9816 1475 27        		.uleb128 0x27
 9817 1476 A904 0000 		.4byte	0x4a9
 9818 147a 0000      		.2byte	.LBB444
 9819 147c 0000      		.2byte	.LBE444
 9820 147e 01        		.byte	0x1
 9821 147f C303      		.2byte	0x3c3
 9822 1481 9614 0000 		.4byte	0x1496
 9823 1485 29        		.uleb128 0x29
 9824 1486 0000      		.2byte	.LBB445
 9825 1488 0000      		.2byte	.LBE445
 9826 148a 22        		.uleb128 0x22
 9827 148b BB04 0000 		.4byte	0x4bb
 9828 148f 22        		.uleb128 0x22
 9829 1490 C504 0000 		.4byte	0x4c5
 9830 1494 00        		.byte	0x0
 9831 1495 00        		.byte	0x0
 9832 1496 27        		.uleb128 0x27
 9833 1497 8504 0000 		.4byte	0x485
 9834 149b 0000      		.2byte	.LBB446
 9835 149d 0000      		.2byte	.LBE446
 9836 149f 01        		.byte	0x1
 9837 14a0 BF03      		.2byte	0x3bf
 9838 14a2 B714 0000 		.4byte	0x14b7
 9839 14a6 28        		.uleb128 0x28
 9840 14a7 6109 0000 		.4byte	0x961
 9841 14ab 29        		.uleb128 0x29
 9842 14ac 0000      		.2byte	.LBB447
 9843 14ae 0000      		.2byte	.LBE447
 9844 14b0 22        		.uleb128 0x22
GAS LISTING /tmp/ccvQL2RB.s 			page 175


 9845 14b1 9E04 0000 		.4byte	0x49e
 9846 14b5 00        		.byte	0x0
 9847 14b6 00        		.byte	0x0
 9848 14b7 27        		.uleb128 0x27
 9849 14b8 0204 0000 		.4byte	0x402
 9850 14bc 0000      		.2byte	.LBB449
 9851 14be 0000      		.2byte	.LBE449
 9852 14c0 01        		.byte	0x1
 9853 14c1 D804      		.2byte	0x4d8
 9854 14c3 D814 0000 		.4byte	0x14d8
 9855 14c7 28        		.uleb128 0x28
 9856 14c8 B205 0000 		.4byte	0x5b2
 9857 14cc 29        		.uleb128 0x29
 9858 14cd 0000      		.2byte	.LBB450
 9859 14cf 0000      		.2byte	.LBE450
 9860 14d1 22        		.uleb128 0x22
 9861 14d2 1B04 0000 		.4byte	0x41b
 9862 14d6 00        		.byte	0x0
 9863 14d7 00        		.byte	0x0
 9864 14d8 27        		.uleb128 0x27
 9865 14d9 8504 0000 		.4byte	0x485
 9866 14dd 0000      		.2byte	.LBB451
 9867 14df 0000      		.2byte	.LBE451
 9868 14e1 01        		.byte	0x1
 9869 14e2 D204      		.2byte	0x4d2
 9870 14e4 F914 0000 		.4byte	0x14f9
 9871 14e8 28        		.uleb128 0x28
 9872 14e9 6109 0000 		.4byte	0x961
 9873 14ed 29        		.uleb128 0x29
 9874 14ee 0000      		.2byte	.LBB452
 9875 14f0 0000      		.2byte	.LBE452
 9876 14f2 22        		.uleb128 0x22
 9877 14f3 9E04 0000 		.4byte	0x49e
 9878 14f7 00        		.byte	0x0
 9879 14f8 00        		.byte	0x0
 9880 14f9 27        		.uleb128 0x27
 9881 14fa A904 0000 		.4byte	0x4a9
 9882 14fe 0000      		.2byte	.LBB453
 9883 1500 0000      		.2byte	.LBE453
 9884 1502 01        		.byte	0x1
 9885 1503 AE04      		.2byte	0x4ae
 9886 1505 1E15 0000 		.4byte	0x151e
 9887 1509 29        		.uleb128 0x29
 9888 150a 0000      		.2byte	.LBB454
 9889 150c 0000      		.2byte	.LBE454
 9890 150e 22        		.uleb128 0x22
 9891 150f BB04 0000 		.4byte	0x4bb
 9892 1513 24        		.uleb128 0x24
 9893 1514 C504 0000 		.4byte	0x4c5
 9894 1518 0000 0000 		.4byte	.LLST72
 9895 151c 00        		.byte	0x0
 9896 151d 00        		.byte	0x0
 9897 151e 27        		.uleb128 0x27
 9898 151f A904 0000 		.4byte	0x4a9
 9899 1523 0000      		.2byte	.LBB455
 9900 1525 0000      		.2byte	.LBE455
 9901 1527 01        		.byte	0x1
GAS LISTING /tmp/ccvQL2RB.s 			page 176


 9902 1528 AF04      		.2byte	0x4af
 9903 152a 4315 0000 		.4byte	0x1543
 9904 152e 29        		.uleb128 0x29
 9905 152f 0000      		.2byte	.LBB456
 9906 1531 0000      		.2byte	.LBE456
 9907 1533 22        		.uleb128 0x22
 9908 1534 BB04 0000 		.4byte	0x4bb
 9909 1538 24        		.uleb128 0x24
 9910 1539 C504 0000 		.4byte	0x4c5
 9911 153d 0000 0000 		.4byte	.LLST73
 9912 1541 00        		.byte	0x0
 9913 1542 00        		.byte	0x0
 9914 1543 27        		.uleb128 0x27
 9915 1544 A904 0000 		.4byte	0x4a9
 9916 1548 0000      		.2byte	.LBB457
 9917 154a 0000      		.2byte	.LBE457
 9918 154c 01        		.byte	0x1
 9919 154d AA04      		.2byte	0x4aa
 9920 154f 6415 0000 		.4byte	0x1564
 9921 1553 29        		.uleb128 0x29
 9922 1554 0000      		.2byte	.LBB458
 9923 1556 0000      		.2byte	.LBE458
 9924 1558 22        		.uleb128 0x22
 9925 1559 BB04 0000 		.4byte	0x4bb
 9926 155d 22        		.uleb128 0x22
 9927 155e C504 0000 		.4byte	0x4c5
 9928 1562 00        		.byte	0x0
 9929 1563 00        		.byte	0x0
 9930 1564 27        		.uleb128 0x27
 9931 1565 A904 0000 		.4byte	0x4a9
 9932 1569 0000      		.2byte	.LBB459
 9933 156b 0000      		.2byte	.LBE459
 9934 156d 01        		.byte	0x1
 9935 156e F804      		.2byte	0x4f8
 9936 1570 8515 0000 		.4byte	0x1585
 9937 1574 29        		.uleb128 0x29
 9938 1575 0000      		.2byte	.LBB460
 9939 1577 0000      		.2byte	.LBE460
 9940 1579 22        		.uleb128 0x22
 9941 157a BB04 0000 		.4byte	0x4bb
 9942 157e 22        		.uleb128 0x22
 9943 157f C504 0000 		.4byte	0x4c5
 9944 1583 00        		.byte	0x0
 9945 1584 00        		.byte	0x0
 9946 1585 27        		.uleb128 0x27
 9947 1586 A904 0000 		.4byte	0x4a9
 9948 158a 0000      		.2byte	.LBB461
 9949 158c 0000      		.2byte	.LBE461
 9950 158e 01        		.byte	0x1
 9951 158f F104      		.2byte	0x4f1
 9952 1591 AA15 0000 		.4byte	0x15aa
 9953 1595 29        		.uleb128 0x29
 9954 1596 0000      		.2byte	.LBB462
 9955 1598 0000      		.2byte	.LBE462
 9956 159a 22        		.uleb128 0x22
 9957 159b BB04 0000 		.4byte	0x4bb
 9958 159f 24        		.uleb128 0x24
GAS LISTING /tmp/ccvQL2RB.s 			page 177


 9959 15a0 C504 0000 		.4byte	0x4c5
 9960 15a4 0000 0000 		.4byte	.LLST74
 9961 15a8 00        		.byte	0x0
 9962 15a9 00        		.byte	0x0
 9963 15aa 27        		.uleb128 0x27
 9964 15ab A904 0000 		.4byte	0x4a9
 9965 15af 0000      		.2byte	.LBB463
 9966 15b1 0000      		.2byte	.LBE463
 9967 15b3 01        		.byte	0x1
 9968 15b4 F204      		.2byte	0x4f2
 9969 15b6 CF15 0000 		.4byte	0x15cf
 9970 15ba 29        		.uleb128 0x29
 9971 15bb 0000      		.2byte	.LBB464
 9972 15bd 0000      		.2byte	.LBE464
 9973 15bf 22        		.uleb128 0x22
 9974 15c0 BB04 0000 		.4byte	0x4bb
 9975 15c4 24        		.uleb128 0x24
 9976 15c5 C504 0000 		.4byte	0x4c5
 9977 15c9 0000 0000 		.4byte	.LLST75
 9978 15cd 00        		.byte	0x0
 9979 15ce 00        		.byte	0x0
 9980 15cf 27        		.uleb128 0x27
 9981 15d0 A904 0000 		.4byte	0x4a9
 9982 15d4 0000      		.2byte	.LBB465
 9983 15d6 0000      		.2byte	.LBE465
 9984 15d8 01        		.byte	0x1
 9985 15d9 F304      		.2byte	0x4f3
 9986 15db F415 0000 		.4byte	0x15f4
 9987 15df 29        		.uleb128 0x29
 9988 15e0 0000      		.2byte	.LBB466
 9989 15e2 0000      		.2byte	.LBE466
 9990 15e4 22        		.uleb128 0x22
 9991 15e5 BB04 0000 		.4byte	0x4bb
 9992 15e9 24        		.uleb128 0x24
 9993 15ea C504 0000 		.4byte	0x4c5
 9994 15ee 0000 0000 		.4byte	.LLST76
 9995 15f2 00        		.byte	0x0
 9996 15f3 00        		.byte	0x0
 9997 15f4 27        		.uleb128 0x27
 9998 15f5 A904 0000 		.4byte	0x4a9
 9999 15f9 0000      		.2byte	.LBB467
 10000 15fb 0000      		.2byte	.LBE467
 10001 15fd 01        		.byte	0x1
 10002 15fe BB03      		.2byte	0x3bb
 10003 1600 1916 0000 		.4byte	0x1619
 10004 1604 29        		.uleb128 0x29
 10005 1605 0000      		.2byte	.LBB468
 10006 1607 0000      		.2byte	.LBE468
 10007 1609 22        		.uleb128 0x22
 10008 160a BB04 0000 		.4byte	0x4bb
 10009 160e 24        		.uleb128 0x24
 10010 160f C504 0000 		.4byte	0x4c5
 10011 1613 0000 0000 		.4byte	.LLST77
 10012 1617 00        		.byte	0x0
 10013 1618 00        		.byte	0x0
 10014 1619 27        		.uleb128 0x27
 10015 161a A904 0000 		.4byte	0x4a9
GAS LISTING /tmp/ccvQL2RB.s 			page 178


 10016 161e 0000      		.2byte	.LBB469
 10017 1620 0000      		.2byte	.LBE469
 10018 1622 01        		.byte	0x1
 10019 1623 B703      		.2byte	0x3b7
 10020 1625 3A16 0000 		.4byte	0x163a
 10021 1629 29        		.uleb128 0x29
 10022 162a 0000      		.2byte	.LBB470
 10023 162c 0000      		.2byte	.LBE470
 10024 162e 22        		.uleb128 0x22
 10025 162f BB04 0000 		.4byte	0x4bb
 10026 1633 22        		.uleb128 0x22
 10027 1634 C504 0000 		.4byte	0x4c5
 10028 1638 00        		.byte	0x0
 10029 1639 00        		.byte	0x0
 10030 163a 27        		.uleb128 0x27
 10031 163b A904 0000 		.4byte	0x4a9
 10032 163f 0000      		.2byte	.LBB471
 10033 1641 0000      		.2byte	.LBE471
 10034 1643 01        		.byte	0x1
 10035 1644 B203      		.2byte	0x3b2
 10036 1646 5B16 0000 		.4byte	0x165b
 10037 164a 29        		.uleb128 0x29
 10038 164b 0000      		.2byte	.LBB472
 10039 164d 0000      		.2byte	.LBE472
 10040 164f 22        		.uleb128 0x22
 10041 1650 BB04 0000 		.4byte	0x4bb
 10042 1654 22        		.uleb128 0x22
 10043 1655 C504 0000 		.4byte	0x4c5
 10044 1659 00        		.byte	0x0
 10045 165a 00        		.byte	0x0
 10046 165b 27        		.uleb128 0x27
 10047 165c A904 0000 		.4byte	0x4a9
 10048 1660 0000      		.2byte	.LBB473
 10049 1662 0000      		.2byte	.LBE473
 10050 1664 01        		.byte	0x1
 10051 1665 AD03      		.2byte	0x3ad
 10052 1667 7C16 0000 		.4byte	0x167c
 10053 166b 29        		.uleb128 0x29
 10054 166c 0000      		.2byte	.LBB474
 10055 166e 0000      		.2byte	.LBE474
 10056 1670 22        		.uleb128 0x22
 10057 1671 BB04 0000 		.4byte	0x4bb
 10058 1675 22        		.uleb128 0x22
 10059 1676 C504 0000 		.4byte	0x4c5
 10060 167a 00        		.byte	0x0
 10061 167b 00        		.byte	0x0
 10062 167c 27        		.uleb128 0x27
 10063 167d A904 0000 		.4byte	0x4a9
 10064 1681 0000      		.2byte	.LBB476
 10065 1683 0000      		.2byte	.LBE476
 10066 1685 01        		.byte	0x1
 10067 1686 0604      		.2byte	0x406
 10068 1688 9D16 0000 		.4byte	0x169d
 10069 168c 29        		.uleb128 0x29
 10070 168d 0000      		.2byte	.LBB477
 10071 168f 0000      		.2byte	.LBE477
 10072 1691 22        		.uleb128 0x22
GAS LISTING /tmp/ccvQL2RB.s 			page 179


 10073 1692 BB04 0000 		.4byte	0x4bb
 10074 1696 22        		.uleb128 0x22
 10075 1697 C504 0000 		.4byte	0x4c5
 10076 169b 00        		.byte	0x0
 10077 169c 00        		.byte	0x0
 10078 169d 27        		.uleb128 0x27
 10079 169e A904 0000 		.4byte	0x4a9
 10080 16a2 0000      		.2byte	.LBB478
 10081 16a4 0000      		.2byte	.LBE478
 10082 16a6 01        		.byte	0x1
 10083 16a7 0704      		.2byte	0x407
 10084 16a9 BE16 0000 		.4byte	0x16be
 10085 16ad 29        		.uleb128 0x29
 10086 16ae 0000      		.2byte	.LBB479
 10087 16b0 0000      		.2byte	.LBE479
 10088 16b2 22        		.uleb128 0x22
 10089 16b3 BB04 0000 		.4byte	0x4bb
 10090 16b7 22        		.uleb128 0x22
 10091 16b8 C504 0000 		.4byte	0x4c5
 10092 16bc 00        		.byte	0x0
 10093 16bd 00        		.byte	0x0
 10094 16be 27        		.uleb128 0x27
 10095 16bf A904 0000 		.4byte	0x4a9
 10096 16c3 0000      		.2byte	.LBB480
 10097 16c5 0000      		.2byte	.LBE480
 10098 16c7 01        		.byte	0x1
 10099 16c8 FA03      		.2byte	0x3fa
 10100 16ca E316 0000 		.4byte	0x16e3
 10101 16ce 29        		.uleb128 0x29
 10102 16cf 0000      		.2byte	.LBB481
 10103 16d1 0000      		.2byte	.LBE481
 10104 16d3 22        		.uleb128 0x22
 10105 16d4 BB04 0000 		.4byte	0x4bb
 10106 16d8 24        		.uleb128 0x24
 10107 16d9 C504 0000 		.4byte	0x4c5
 10108 16dd 0000 0000 		.4byte	.LLST78
 10109 16e1 00        		.byte	0x0
 10110 16e2 00        		.byte	0x0
 10111 16e3 27        		.uleb128 0x27
 10112 16e4 6004 0000 		.4byte	0x460
 10113 16e8 0000      		.2byte	.LBB482
 10114 16ea 0000      		.2byte	.LBE482
 10115 16ec 01        		.byte	0x1
 10116 16ed FC03      		.2byte	0x3fc
 10117 16ef 1A17 0000 		.4byte	0x171a
 10118 16f3 21        		.uleb128 0x21
 10119 16f4 1208 0000 		.4byte	0x812
 10120 16f8 0000 0000 		.4byte	.LLST79
 10121 16fc 2A        		.uleb128 0x2a
 10122 16fd 0204 0000 		.4byte	0x402
 10123 1701 0000      		.2byte	.LBB484
 10124 1703 0000      		.2byte	.LBE484
 10125 1705 01        		.byte	0x1
 10126 1706 7402      		.2byte	0x274
 10127 1708 28        		.uleb128 0x28
 10128 1709 B205 0000 		.4byte	0x5b2
 10129 170d 29        		.uleb128 0x29
GAS LISTING /tmp/ccvQL2RB.s 			page 180


 10130 170e 0000      		.2byte	.LBB485
 10131 1710 0000      		.2byte	.LBE485
 10132 1712 22        		.uleb128 0x22
 10133 1713 1B04 0000 		.4byte	0x41b
 10134 1717 00        		.byte	0x0
 10135 1718 00        		.byte	0x0
 10136 1719 00        		.byte	0x0
 10137 171a 27        		.uleb128 0x27
 10138 171b 8504 0000 		.4byte	0x485
 10139 171f 0000      		.2byte	.LBB486
 10140 1721 0000      		.2byte	.LBE486
 10141 1723 01        		.byte	0x1
 10142 1724 F603      		.2byte	0x3f6
 10143 1726 3B17 0000 		.4byte	0x173b
 10144 172a 28        		.uleb128 0x28
 10145 172b 6109 0000 		.4byte	0x961
 10146 172f 29        		.uleb128 0x29
 10147 1730 0000      		.2byte	.LBB487
 10148 1732 0000      		.2byte	.LBE487
 10149 1734 22        		.uleb128 0x22
 10150 1735 9E04 0000 		.4byte	0x49e
 10151 1739 00        		.byte	0x0
 10152 173a 00        		.byte	0x0
 10153 173b 27        		.uleb128 0x27
 10154 173c A904 0000 		.4byte	0x4a9
 10155 1740 0000      		.2byte	.LBB488
 10156 1742 0000      		.2byte	.LBE488
 10157 1744 01        		.byte	0x1
 10158 1745 E803      		.2byte	0x3e8
 10159 1747 6017 0000 		.4byte	0x1760
 10160 174b 29        		.uleb128 0x29
 10161 174c 0000      		.2byte	.LBB489
 10162 174e 0000      		.2byte	.LBE489
 10163 1750 22        		.uleb128 0x22
 10164 1751 BB04 0000 		.4byte	0x4bb
 10165 1755 24        		.uleb128 0x24
 10166 1756 C504 0000 		.4byte	0x4c5
 10167 175a 0000 0000 		.4byte	.LLST80
 10168 175e 00        		.byte	0x0
 10169 175f 00        		.byte	0x0
 10170 1760 27        		.uleb128 0x27
 10171 1761 A904 0000 		.4byte	0x4a9
 10172 1765 0000      		.2byte	.LBB490
 10173 1767 0000      		.2byte	.LBE490
 10174 1769 01        		.byte	0x1
 10175 176a DF03      		.2byte	0x3df
 10176 176c 8117 0000 		.4byte	0x1781
 10177 1770 29        		.uleb128 0x29
 10178 1771 0000      		.2byte	.LBB491
 10179 1773 0000      		.2byte	.LBE491
 10180 1775 22        		.uleb128 0x22
 10181 1776 BB04 0000 		.4byte	0x4bb
 10182 177a 22        		.uleb128 0x22
 10183 177b C504 0000 		.4byte	0x4c5
 10184 177f 00        		.byte	0x0
 10185 1780 00        		.byte	0x0
 10186 1781 27        		.uleb128 0x27
GAS LISTING /tmp/ccvQL2RB.s 			page 181


 10187 1782 A904 0000 		.4byte	0x4a9
 10188 1786 0000      		.2byte	.LBB493
 10189 1788 0000      		.2byte	.LBE493
 10190 178a 01        		.byte	0x1
 10191 178b D603      		.2byte	0x3d6
 10192 178d A217 0000 		.4byte	0x17a2
 10193 1791 29        		.uleb128 0x29
 10194 1792 0000      		.2byte	.LBB494
 10195 1794 0000      		.2byte	.LBE494
 10196 1796 22        		.uleb128 0x22
 10197 1797 BB04 0000 		.4byte	0x4bb
 10198 179b 22        		.uleb128 0x22
 10199 179c C504 0000 		.4byte	0x4c5
 10200 17a0 00        		.byte	0x0
 10201 17a1 00        		.byte	0x0
 10202 17a2 2A        		.uleb128 0x2a
 10203 17a3 A904 0000 		.4byte	0x4a9
 10204 17a7 0000      		.2byte	.LBB496
 10205 17a9 0000      		.2byte	.LBE496
 10206 17ab 01        		.byte	0x1
 10207 17ac CD03      		.2byte	0x3cd
 10208 17ae 29        		.uleb128 0x29
 10209 17af 0000      		.2byte	.LBB497
 10210 17b1 0000      		.2byte	.LBE497
 10211 17b3 22        		.uleb128 0x22
 10212 17b4 BB04 0000 		.4byte	0x4bb
 10213 17b8 22        		.uleb128 0x22
 10214 17b9 C504 0000 		.4byte	0x4c5
 10215 17bd 00        		.byte	0x0
 10216 17be 00        		.byte	0x0
 10217 17bf 00        		.byte	0x0
 10218 17c0 38        		.uleb128 0x38
 10219 17c1 01        		.byte	0x1
 10220 17c2 0000 0000 		.4byte	.LASF72
 10221 17c6 01        		.byte	0x1
 10222 17c7 8603      		.2byte	0x386
 10223 17c9 0000      		.2byte	.LFB29
 10224 17cb 0000      		.2byte	.LFE29
 10225 17cd 02        		.byte	0x2
 10226 17ce 71        		.byte	0x71
 10227 17cf 02        		.sleb128 2
 10228 17d0 2E18 0000 		.4byte	0x182e
 10229 17d4 35        		.uleb128 0x35
 10230 17d5 0000 0000 		.4byte	.LASF73
 10231 17d9 01        		.byte	0x1
 10232 17da 8703      		.2byte	0x387
 10233 17dc 3A00 0000 		.4byte	0x3a
 10234 17e0 0000 0000 		.4byte	.LLST82
 10235 17e4 27        		.uleb128 0x27
 10236 17e5 A904 0000 		.4byte	0x4a9
 10237 17e9 0000      		.2byte	.LBB500
 10238 17eb 0000      		.2byte	.LBE500
 10239 17ed 01        		.byte	0x1
 10240 17ee 8803      		.2byte	0x388
 10241 17f0 0518 0000 		.4byte	0x1805
 10242 17f4 29        		.uleb128 0x29
 10243 17f5 0000      		.2byte	.LBB501
GAS LISTING /tmp/ccvQL2RB.s 			page 182


 10244 17f7 0000      		.2byte	.LBE501
 10245 17f9 22        		.uleb128 0x22
 10246 17fa BB04 0000 		.4byte	0x4bb
 10247 17fe 22        		.uleb128 0x22
 10248 17ff C504 0000 		.4byte	0x4c5
 10249 1803 00        		.byte	0x0
 10250 1804 00        		.byte	0x0
 10251 1805 27        		.uleb128 0x27
 10252 1806 EA04 0000 		.4byte	0x4ea
 10253 180a 0000      		.2byte	.LBB502
 10254 180c 0000      		.2byte	.LBE502
 10255 180e 01        		.byte	0x1
 10256 180f 9603      		.2byte	0x396
 10257 1811 1B18 0000 		.4byte	0x181b
 10258 1815 28        		.uleb128 0x28
 10259 1816 9409 0000 		.4byte	0x994
 10260 181a 00        		.byte	0x0
 10261 181b 2A        		.uleb128 0x2a
 10262 181c EA04 0000 		.4byte	0x4ea
 10263 1820 0000      		.2byte	.LBB504
 10264 1822 0000      		.2byte	.LBE504
 10265 1824 01        		.byte	0x1
 10266 1825 9103      		.2byte	0x391
 10267 1827 28        		.uleb128 0x28
 10268 1828 9409 0000 		.4byte	0x994
 10269 182c 00        		.byte	0x0
 10270 182d 00        		.byte	0x0
 10271 182e 25        		.uleb128 0x25
 10272 182f 01        		.byte	0x1
 10273 1830 0000 0000 		.4byte	.LASF74
 10274 1834 01        		.byte	0x1
 10275 1835 1205      		.2byte	0x512
 10276 1837 0000      		.2byte	.LFB31
 10277 1839 0000      		.2byte	.LFE31
 10278 183b 0000 0000 		.4byte	.LLST83
 10279 183f 6618 0000 		.4byte	0x1866
 10280 1843 35        		.uleb128 0x35
 10281 1844 0000 0000 		.4byte	.LASF73
 10282 1848 01        		.byte	0x1
 10283 1849 1305      		.2byte	0x513
 10284 184b 3A00 0000 		.4byte	0x3a
 10285 184f 0000 0000 		.4byte	.LLST84
 10286 1853 2A        		.uleb128 0x2a
 10287 1854 EA04 0000 		.4byte	0x4ea
 10288 1858 0000      		.2byte	.LBB506
 10289 185a 0000      		.2byte	.LBE506
 10290 185c 01        		.byte	0x1
 10291 185d 2405      		.2byte	0x524
 10292 185f 28        		.uleb128 0x28
 10293 1860 9409 0000 		.4byte	0x994
 10294 1864 00        		.byte	0x0
 10295 1865 00        		.byte	0x0
 10296 1866 39        		.uleb128 0x39
 10297 1867 01        		.byte	0x1
 10298 1868 0000 0000 		.4byte	.LASF75
 10299 186c 01        		.byte	0x1
 10300 186d 2B05      		.2byte	0x52b
GAS LISTING /tmp/ccvQL2RB.s 			page 183


 10301 186f 01        		.byte	0x1
 10302 1870 4500 0000 		.4byte	0x45
 10303 1874 0000      		.2byte	.LFB32
 10304 1876 0000      		.2byte	.LFE32
 10305 1878 02        		.byte	0x2
 10306 1879 71        		.byte	0x71
 10307 187a 02        		.sleb128 2
 10308 187b B318 0000 		.4byte	0x18b3
 10309 187f 18        		.uleb128 0x18
 10310 1880 6900      		.string	"i"
 10311 1882 01        		.byte	0x1
 10312 1883 2C05      		.2byte	0x52c
 10313 1885 3A00 0000 		.4byte	0x3a
 10314 1889 3A        		.uleb128 0x3a
 10315 188a 5305 0000 		.4byte	0x553
 10316 188e 0000      		.2byte	.LBB508
 10317 1890 0000      		.2byte	.LBE508
 10318 1892 01        		.byte	0x1
 10319 1893 3205      		.2byte	0x532
 10320 1895 2A        		.uleb128 0x2a
 10321 1896 0204 0000 		.4byte	0x402
 10322 189a 0000      		.2byte	.LBB510
 10323 189c 0000      		.2byte	.LBE510
 10324 189e 01        		.byte	0x1
 10325 189f 3905      		.2byte	0x539
 10326 18a1 28        		.uleb128 0x28
 10327 18a2 B205 0000 		.4byte	0x5b2
 10328 18a6 29        		.uleb128 0x29
 10329 18a7 0000      		.2byte	.LBB511
 10330 18a9 0000      		.2byte	.LBE511
 10331 18ab 22        		.uleb128 0x22
 10332 18ac 1B04 0000 		.4byte	0x41b
 10333 18b0 00        		.byte	0x0
 10334 18b1 00        		.byte	0x0
 10335 18b2 00        		.byte	0x0
 10336 18b3 1E        		.uleb128 0x1e
 10337 18b4 01        		.byte	0x1
 10338 18b5 0000 0000 		.4byte	.LASF76
 10339 18b9 01        		.byte	0x1
 10340 18ba 4C05      		.2byte	0x54c
 10341 18bc 01        		.byte	0x1
 10342 18bd 0000      		.2byte	.LFB33
 10343 18bf 0000      		.2byte	.LFE33
 10344 18c1 02        		.byte	0x2
 10345 18c2 71        		.byte	0x71
 10346 18c3 02        		.sleb128 2
 10347 18c4 3B        		.uleb128 0x3b
 10348 18c5 0000 0000 		.4byte	.LASF77
 10349 18c9 05        		.byte	0x5
 10350 18ca 14        		.byte	0x14
 10351 18cb 0000 0000 		.4byte	.LASF79
 10352 18cf 7203 0000 		.4byte	0x372
 10353 18d3 01        		.byte	0x1
 10354 18d4 03        		.byte	0x3
 10355 18d5 03        		.byte	0x3
 10356 18d6 5600      		.2byte	0x0056
 10357 18d8 3B        		.uleb128 0x3b
GAS LISTING /tmp/ccvQL2RB.s 			page 184


 10358 18d9 0000 0000 		.4byte	.LASF78
 10359 18dd 05        		.byte	0x5
 10360 18de 16        		.byte	0x16
 10361 18df 0000 0000 		.4byte	.LASF80
 10362 18e3 7203 0000 		.4byte	0x372
 10363 18e7 01        		.byte	0x1
 10364 18e8 03        		.byte	0x3
 10365 18e9 03        		.byte	0x3
 10366 18ea 5700      		.2byte	0x0057
 10367 18ec 3B        		.uleb128 0x3b
 10368 18ed 0000 0000 		.4byte	.LASF81
 10369 18f1 05        		.byte	0x5
 10370 18f2 18        		.byte	0x18
 10371 18f3 0000 0000 		.4byte	.LASF82
 10372 18f7 7203 0000 		.4byte	0x372
 10373 18fb 01        		.byte	0x1
 10374 18fc 03        		.byte	0x3
 10375 18fd 03        		.byte	0x3
 10376 18fe 5800      		.2byte	0x0058
 10377 1900 3B        		.uleb128 0x3b
 10378 1901 0000 0000 		.4byte	.LASF83
 10379 1905 05        		.byte	0x5
 10380 1906 1B        		.byte	0x1b
 10381 1907 0000 0000 		.4byte	.LASF84
 10382 190b 7203 0000 		.4byte	0x372
 10383 190f 01        		.byte	0x1
 10384 1910 03        		.byte	0x3
 10385 1911 03        		.byte	0x3
 10386 1912 5300      		.2byte	0x0053
 10387 1914 3B        		.uleb128 0x3b
 10388 1915 0000 0000 		.4byte	.LASF85
 10389 1919 06        		.byte	0x6
 10390 191a 14        		.byte	0x14
 10391 191b 0000 0000 		.4byte	.LASF86
 10392 191f 0D01 0000 		.4byte	0x10d
 10393 1923 01        		.byte	0x1
 10394 1924 03        		.byte	0x3
 10395 1925 03        		.byte	0x3
 10396 1926 2801      		.2byte	0x0128
 10397 1928 3B        		.uleb128 0x3b
 10398 1929 0000 0000 		.4byte	.LASF87
 10399 192d 06        		.byte	0x6
 10400 192e 16        		.byte	0x16
 10401 192f 0000 0000 		.4byte	.LASF88
 10402 1933 0D01 0000 		.4byte	0x10d
 10403 1937 01        		.byte	0x1
 10404 1938 03        		.byte	0x3
 10405 1939 03        		.byte	0x3
 10406 193a 2A01      		.2byte	0x012A
 10407 193c 3B        		.uleb128 0x3b
 10408 193d 0000 0000 		.4byte	.LASF89
 10409 1941 06        		.byte	0x6
 10410 1942 18        		.byte	0x18
 10411 1943 0000 0000 		.4byte	.LASF90
 10412 1947 0D01 0000 		.4byte	0x10d
 10413 194b 01        		.byte	0x1
 10414 194c 03        		.byte	0x3
GAS LISTING /tmp/ccvQL2RB.s 			page 185


 10415 194d 03        		.byte	0x3
 10416 194e 2C01      		.2byte	0x012C
 10417 1950 3B        		.uleb128 0x3b
 10418 1951 0000 0000 		.4byte	.LASF91
 10419 1955 07        		.byte	0x7
 10420 1956 13        		.byte	0x13
 10421 1957 0000 0000 		.4byte	.LASF92
 10422 195b 7203 0000 		.4byte	0x372
 10423 195f 01        		.byte	0x1
 10424 1960 03        		.byte	0x3
 10425 1961 03        		.byte	0x3
 10426 1962 5400      		.2byte	0x0054
 10427 1964 3B        		.uleb128 0x3b
 10428 1965 0000 0000 		.4byte	.LASF93
 10429 1969 03        		.byte	0x3
 10430 196a B6        		.byte	0xb6
 10431 196b 0000 0000 		.4byte	.LASF94
 10432 196f 0D01 0000 		.4byte	0x10d
 10433 1973 01        		.byte	0x1
 10434 1974 03        		.byte	0x3
 10435 1975 03        		.byte	0x3
 10436 1976 2E01      		.2byte	0x012E
 10437 1978 3B        		.uleb128 0x3b
 10438 1979 0000 0000 		.4byte	.LASF95
 10439 197d 03        		.byte	0x3
 10440 197e B8        		.byte	0xb8
 10441 197f 0000 0000 		.4byte	.LASF96
 10442 1983 0D01 0000 		.4byte	0x10d
 10443 1987 01        		.byte	0x1
 10444 1988 03        		.byte	0x3
 10445 1989 03        		.byte	0x3
 10446 198a 6001      		.2byte	0x0160
 10447 198c 3B        		.uleb128 0x3b
 10448 198d 0000 0000 		.4byte	.LASF97
 10449 1991 03        		.byte	0x3
 10450 1992 BA        		.byte	0xba
 10451 1993 0000 0000 		.4byte	.LASF98
 10452 1997 0D01 0000 		.4byte	0x10d
 10453 199b 01        		.byte	0x1
 10454 199c 03        		.byte	0x3
 10455 199d 03        		.byte	0x3
 10456 199e 7001      		.2byte	0x0170
 10457 19a0 3B        		.uleb128 0x3b
 10458 19a1 0000 0000 		.4byte	.LASF99
 10459 19a5 03        		.byte	0x3
 10460 19a6 BD        		.byte	0xbd
 10461 19a7 0000 0000 		.4byte	.LASF100
 10462 19ab 0D01 0000 		.4byte	0x10d
 10463 19af 01        		.byte	0x1
 10464 19b0 03        		.byte	0x3
 10465 19b1 03        		.byte	0x3
 10466 19b2 6201      		.2byte	0x0162
 10467 19b4 3B        		.uleb128 0x3b
 10468 19b5 0000 0000 		.4byte	.LASF101
 10469 19b9 03        		.byte	0x3
 10470 19ba BF        		.byte	0xbf
 10471 19bb 0000 0000 		.4byte	.LASF102
GAS LISTING /tmp/ccvQL2RB.s 			page 186


 10472 19bf 0D01 0000 		.4byte	0x10d
 10473 19c3 01        		.byte	0x1
 10474 19c4 03        		.byte	0x3
 10475 19c5 03        		.byte	0x3
 10476 19c6 6401      		.2byte	0x0164
 10477 19c8 3B        		.uleb128 0x3b
 10478 19c9 0000 0000 		.4byte	.LASF103
 10479 19cd 03        		.byte	0x3
 10480 19ce C1        		.byte	0xc1
 10481 19cf 0000 0000 		.4byte	.LASF104
 10482 19d3 0D01 0000 		.4byte	0x10d
 10483 19d7 01        		.byte	0x1
 10484 19d8 03        		.byte	0x3
 10485 19d9 03        		.byte	0x3
 10486 19da 7201      		.2byte	0x0172
 10487 19dc 3B        		.uleb128 0x3b
 10488 19dd 0000 0000 		.4byte	.LASF105
 10489 19e1 03        		.byte	0x3
 10490 19e2 C3        		.byte	0xc3
 10491 19e3 0000 0000 		.4byte	.LASF106
 10492 19e7 0D01 0000 		.4byte	0x10d
 10493 19eb 01        		.byte	0x1
 10494 19ec 03        		.byte	0x3
 10495 19ed 03        		.byte	0x3
 10496 19ee 7401      		.2byte	0x0174
 10497 19f0 3C        		.uleb128 0x3c
 10498 19f1 0000 0000 		.4byte	.LASF107
 10499 19f5 03        		.byte	0x3
 10500 19f6 4801      		.2byte	0x148
 10501 19f8 0000 0000 		.4byte	.LASF96
 10502 19fc 0B02 0000 		.4byte	0x20b
 10503 1a00 01        		.byte	0x1
 10504 1a01 03        		.byte	0x3
 10505 1a02 03        		.byte	0x3
 10506 1a03 6001      		.2byte	0x0160
 10507 1a05 3B        		.uleb128 0x3b
 10508 1a06 0000 0000 		.4byte	.LASF108
 10509 1a0a 04        		.byte	0x4
 10510 1a0b 88        		.byte	0x88
 10511 1a0c 0000 0000 		.4byte	.LASF109
 10512 1a10 8703 0000 		.4byte	0x387
 10513 1a14 01        		.byte	0x1
 10514 1a15 03        		.byte	0x3
 10515 1a16 03        		.byte	0x3
 10516 1a17 2000      		.2byte	0x0020
 10517 1a19 3B        		.uleb128 0x3b
 10518 1a1a 0000 0000 		.4byte	.LASF110
 10519 1a1e 04        		.byte	0x4
 10520 1a1f 8C        		.byte	0x8c
 10521 1a20 0000 0000 		.4byte	.LASF111
 10522 1a24 8703 0000 		.4byte	0x387
 10523 1a28 01        		.byte	0x1
 10524 1a29 03        		.byte	0x3
 10525 1a2a 03        		.byte	0x3
 10526 1a2b 2800      		.2byte	0x0028
 10527 1a2d 3B        		.uleb128 0x3b
 10528 1a2e 0000 0000 		.4byte	.LASF112
GAS LISTING /tmp/ccvQL2RB.s 			page 187


 10529 1a32 08        		.byte	0x8
 10530 1a33 83        		.byte	0x83
 10531 1a34 0000 0000 		.4byte	.LASF109
 10532 1a38 7203 0000 		.4byte	0x372
 10533 1a3c 01        		.byte	0x1
 10534 1a3d 03        		.byte	0x3
 10535 1a3e 03        		.byte	0x3
 10536 1a3f 2000      		.2byte	0x0020
 10537 1a41 3B        		.uleb128 0x3b
 10538 1a42 0000 0000 		.4byte	.LASF113
 10539 1a46 08        		.byte	0x8
 10540 1a47 85        		.byte	0x85
 10541 1a48 0000 0000 		.4byte	.LASF114
 10542 1a4c 7203 0000 		.4byte	0x372
 10543 1a50 01        		.byte	0x1
 10544 1a51 03        		.byte	0x3
 10545 1a52 03        		.byte	0x3
 10546 1a53 2100      		.2byte	0x0021
 10547 1a55 3B        		.uleb128 0x3b
 10548 1a56 0000 0000 		.4byte	.LASF115
 10549 1a5a 08        		.byte	0x8
 10550 1a5b 87        		.byte	0x87
 10551 1a5c 0000 0000 		.4byte	.LASF116
 10552 1a60 7203 0000 		.4byte	0x372
 10553 1a64 01        		.byte	0x1
 10554 1a65 03        		.byte	0x3
 10555 1a66 03        		.byte	0x3
 10556 1a67 2200      		.2byte	0x0022
 10557 1a69 3B        		.uleb128 0x3b
 10558 1a6a 0000 0000 		.4byte	.LASF117
 10559 1a6e 08        		.byte	0x8
 10560 1a6f 89        		.byte	0x89
 10561 1a70 0000 0000 		.4byte	.LASF118
 10562 1a74 7203 0000 		.4byte	0x372
 10563 1a78 01        		.byte	0x1
 10564 1a79 03        		.byte	0x3
 10565 1a7a 03        		.byte	0x3
 10566 1a7b 2300      		.2byte	0x0023
 10567 1a7d 3B        		.uleb128 0x3b
 10568 1a7e 0000 0000 		.4byte	.LASF119
 10569 1a82 08        		.byte	0x8
 10570 1a83 8B        		.byte	0x8b
 10571 1a84 0000 0000 		.4byte	.LASF120
 10572 1a88 7203 0000 		.4byte	0x372
 10573 1a8c 01        		.byte	0x1
 10574 1a8d 03        		.byte	0x3
 10575 1a8e 03        		.byte	0x3
 10576 1a8f 2400      		.2byte	0x0024
 10577 1a91 3B        		.uleb128 0x3b
 10578 1a92 0000 0000 		.4byte	.LASF121
 10579 1a96 08        		.byte	0x8
 10580 1a97 8D        		.byte	0x8d
 10581 1a98 0000 0000 		.4byte	.LASF122
 10582 1a9c 7203 0000 		.4byte	0x372
 10583 1aa0 01        		.byte	0x1
 10584 1aa1 03        		.byte	0x3
 10585 1aa2 03        		.byte	0x3
GAS LISTING /tmp/ccvQL2RB.s 			page 188


 10586 1aa3 2500      		.2byte	0x0025
 10587 1aa5 3B        		.uleb128 0x3b
 10588 1aa6 0000 0000 		.4byte	.LASF123
 10589 1aaa 08        		.byte	0x8
 10590 1aab 8F        		.byte	0x8f
 10591 1aac 0000 0000 		.4byte	.LASF124
 10592 1ab0 7203 0000 		.4byte	0x372
 10593 1ab4 01        		.byte	0x1
 10594 1ab5 03        		.byte	0x3
 10595 1ab6 03        		.byte	0x3
 10596 1ab7 2600      		.2byte	0x0026
 10597 1ab9 3B        		.uleb128 0x3b
 10598 1aba 0000 0000 		.4byte	.LASF125
 10599 1abe 08        		.byte	0x8
 10600 1abf 92        		.byte	0x92
 10601 1ac0 0000 0000 		.4byte	.LASF126
 10602 1ac4 7203 0000 		.4byte	0x372
 10603 1ac8 01        		.byte	0x1
 10604 1ac9 03        		.byte	0x3
 10605 1aca 03        		.byte	0x3
 10606 1acb 2700      		.2byte	0x0027
 10607 1acd 3B        		.uleb128 0x3b
 10608 1ace 0000 0000 		.4byte	.LASF127
 10609 1ad2 08        		.byte	0x8
 10610 1ad3 98        		.byte	0x98
 10611 1ad4 0000 0000 		.4byte	.LASF111
 10612 1ad8 7203 0000 		.4byte	0x372
 10613 1adc 01        		.byte	0x1
 10614 1add 03        		.byte	0x3
 10615 1ade 03        		.byte	0x3
 10616 1adf 2800      		.2byte	0x0028
 10617 1ae1 3B        		.uleb128 0x3b
 10618 1ae2 0000 0000 		.4byte	.LASF128
 10619 1ae6 08        		.byte	0x8
 10620 1ae7 9A        		.byte	0x9a
 10621 1ae8 0000 0000 		.4byte	.LASF129
 10622 1aec 7203 0000 		.4byte	0x372
 10623 1af0 01        		.byte	0x1
 10624 1af1 03        		.byte	0x3
 10625 1af2 03        		.byte	0x3
 10626 1af3 2900      		.2byte	0x0029
 10627 1af5 3B        		.uleb128 0x3b
 10628 1af6 0000 0000 		.4byte	.LASF130
 10629 1afa 08        		.byte	0x8
 10630 1afb 9C        		.byte	0x9c
 10631 1afc 0000 0000 		.4byte	.LASF131
 10632 1b00 7203 0000 		.4byte	0x372
 10633 1b04 01        		.byte	0x1
 10634 1b05 03        		.byte	0x3
 10635 1b06 03        		.byte	0x3
 10636 1b07 2A00      		.2byte	0x002A
 10637 1b09 3B        		.uleb128 0x3b
 10638 1b0a 0000 0000 		.4byte	.LASF132
 10639 1b0e 08        		.byte	0x8
 10640 1b0f 9E        		.byte	0x9e
 10641 1b10 0000 0000 		.4byte	.LASF133
 10642 1b14 7203 0000 		.4byte	0x372
GAS LISTING /tmp/ccvQL2RB.s 			page 189


 10643 1b18 01        		.byte	0x1
 10644 1b19 03        		.byte	0x3
 10645 1b1a 03        		.byte	0x3
 10646 1b1b 2B00      		.2byte	0x002B
 10647 1b1d 3B        		.uleb128 0x3b
 10648 1b1e 0000 0000 		.4byte	.LASF134
 10649 1b22 08        		.byte	0x8
 10650 1b23 A0        		.byte	0xa0
 10651 1b24 0000 0000 		.4byte	.LASF135
 10652 1b28 7203 0000 		.4byte	0x372
 10653 1b2c 01        		.byte	0x1
 10654 1b2d 03        		.byte	0x3
 10655 1b2e 03        		.byte	0x3
 10656 1b2f 2C00      		.2byte	0x002C
 10657 1b31 3B        		.uleb128 0x3b
 10658 1b32 0000 0000 		.4byte	.LASF136
 10659 1b36 08        		.byte	0x8
 10660 1b37 A2        		.byte	0xa2
 10661 1b38 0000 0000 		.4byte	.LASF137
 10662 1b3c 7203 0000 		.4byte	0x372
 10663 1b40 01        		.byte	0x1
 10664 1b41 03        		.byte	0x3
 10665 1b42 03        		.byte	0x3
 10666 1b43 2D00      		.2byte	0x002D
 10667 1b45 3B        		.uleb128 0x3b
 10668 1b46 0000 0000 		.4byte	.LASF138
 10669 1b4a 08        		.byte	0x8
 10670 1b4b A4        		.byte	0xa4
 10671 1b4c 0000 0000 		.4byte	.LASF139
 10672 1b50 7203 0000 		.4byte	0x372
 10673 1b54 01        		.byte	0x1
 10674 1b55 03        		.byte	0x3
 10675 1b56 03        		.byte	0x3
 10676 1b57 2E00      		.2byte	0x002E
 10677 1b59 3B        		.uleb128 0x3b
 10678 1b5a 0000 0000 		.4byte	.LASF140
 10679 1b5e 08        		.byte	0x8
 10680 1b5f A7        		.byte	0xa7
 10681 1b60 0000 0000 		.4byte	.LASF141
 10682 1b64 7203 0000 		.4byte	0x372
 10683 1b68 01        		.byte	0x1
 10684 1b69 03        		.byte	0x3
 10685 1b6a 03        		.byte	0x3
 10686 1b6b 2F00      		.2byte	0x002F
 10687 1b6d 3B        		.uleb128 0x3b
 10688 1b6e 0000 0000 		.4byte	.LASF142
 10689 1b72 09        		.byte	0x9
 10690 1b73 1B        		.byte	0x1b
 10691 1b74 0000 0000 		.4byte	.LASF143
 10692 1b78 0D01 0000 		.4byte	0x10d
 10693 1b7c 01        		.byte	0x1
 10694 1b7d 03        		.byte	0x3
 10695 1b7e 03        		.byte	0x3
 10696 1b7f 0001      		.2byte	0x0100
 10697 1b81 3B        		.uleb128 0x3b
 10698 1b82 0000 0000 		.4byte	.LASF144
 10699 1b86 09        		.byte	0x9
GAS LISTING /tmp/ccvQL2RB.s 			page 190


 10700 1b87 1D        		.byte	0x1d
 10701 1b88 0000 0000 		.4byte	.LASF145
 10702 1b8c 0D01 0000 		.4byte	0x10d
 10703 1b90 01        		.byte	0x1
 10704 1b91 03        		.byte	0x3
 10705 1b92 03        		.byte	0x3
 10706 1b93 1001      		.2byte	0x110
 10707 1b95 3B        		.uleb128 0x3b
 10708 1b96 0000 0000 		.4byte	.LASF146
 10709 1b9a 09        		.byte	0x9
 10710 1b9b 22        		.byte	0x22
 10711 1b9c 0000 0000 		.4byte	.LASF147
 10712 1ba0 7203 0000 		.4byte	0x372
 10713 1ba4 01        		.byte	0x1
 10714 1ba5 03        		.byte	0x3
 10715 1ba6 03        		.byte	0x3
 10716 1ba7 B700      		.2byte	0x00B7
 10717 1ba9 3B        		.uleb128 0x3b
 10718 1baa 0000 0000 		.4byte	.LASF148
 10719 1bae 09        		.byte	0x9
 10720 1baf 2D        		.byte	0x2d
 10721 1bb0 0000 0000 		.4byte	.LASF149
 10722 1bb4 7203 0000 		.4byte	0x372
 10723 1bb8 01        		.byte	0x1
 10724 1bb9 03        		.byte	0x3
 10725 1bba 03        		.byte	0x3
 10726 1bbb B000      		.2byte	0x00B0
 10727 1bbd 3B        		.uleb128 0x3b
 10728 1bbe 0000 0000 		.4byte	.LASF150
 10729 1bc2 09        		.byte	0x9
 10730 1bc3 2F        		.byte	0x2f
 10731 1bc4 0000 0000 		.4byte	.LASF151
 10732 1bc8 7203 0000 		.4byte	0x372
 10733 1bcc 01        		.byte	0x1
 10734 1bcd 03        		.byte	0x3
 10735 1bce 03        		.byte	0x3
 10736 1bcf B800      		.2byte	0x00B8
 10737 1bd1 3B        		.uleb128 0x3b
 10738 1bd2 0000 0000 		.4byte	.LASF152
 10739 1bd6 09        		.byte	0x9
 10740 1bd7 31        		.byte	0x31
 10741 1bd8 0000 0000 		.4byte	.LASF153
 10742 1bdc 0D01 0000 		.4byte	0x10d
 10743 1be0 01        		.byte	0x1
 10744 1be1 03        		.byte	0x3
 10745 1be2 03        		.byte	0x3
 10746 1be3 0201      		.2byte	0x0102
 10747 1be5 3B        		.uleb128 0x3b
 10748 1be6 0000 0000 		.4byte	.LASF154
 10749 1bea 09        		.byte	0x9
 10750 1beb 33        		.byte	0x33
 10751 1bec 0000 0000 		.4byte	.LASF155
 10752 1bf0 0D01 0000 		.4byte	0x10d
 10753 1bf4 01        		.byte	0x1
 10754 1bf5 03        		.byte	0x3
 10755 1bf6 03        		.byte	0x3
 10756 1bf7 1201      		.2byte	0x112 + 0x00
GAS LISTING /tmp/ccvQL2RB.s 			page 191


 10757 1bf9 3B        		.uleb128 0x3b
 10758 1bfa 0000 0000 		.4byte	.LASF156
 10759 1bfe 09        		.byte	0x9
 10760 1bff 37        		.byte	0x37
 10761 1c00 0000 0000 		.4byte	.LASF157
 10762 1c04 7203 0000 		.4byte	0x372
 10763 1c08 01        		.byte	0x1
 10764 1c09 03        		.byte	0x3
 10765 1c0a 03        		.byte	0x3
 10766 1c0b B100      		.2byte	0x00B1
 10767 1c0d 3B        		.uleb128 0x3b
 10768 1c0e 0000 0000 		.4byte	.LASF158
 10769 1c12 09        		.byte	0x9
 10770 1c13 39        		.byte	0x39
 10771 1c14 0000 0000 		.4byte	.LASF159
 10772 1c18 7203 0000 		.4byte	0x372
 10773 1c1c 01        		.byte	0x1
 10774 1c1d 03        		.byte	0x3
 10775 1c1e 03        		.byte	0x3
 10776 1c1f B900      		.2byte	0x00B9
 10777 1c21 3B        		.uleb128 0x3b
 10778 1c22 0000 0000 		.4byte	.LASF160
 10779 1c26 09        		.byte	0x9
 10780 1c27 3B        		.byte	0x3b
 10781 1c28 0000 0000 		.4byte	.LASF161
 10782 1c2c 0D01 0000 		.4byte	0x10d
 10783 1c30 01        		.byte	0x1
 10784 1c31 03        		.byte	0x3
 10785 1c32 03        		.byte	0x3
 10786 1c33 0401      		.2byte	0x0104
 10787 1c35 3B        		.uleb128 0x3b
 10788 1c36 0000 0000 		.4byte	.LASF162
 10789 1c3a 09        		.byte	0x9
 10790 1c3b 3D        		.byte	0x3d
 10791 1c3c 0000 0000 		.4byte	.LASF163
 10792 1c40 0D01 0000 		.4byte	0x10d
 10793 1c44 01        		.byte	0x1
 10794 1c45 03        		.byte	0x3
 10795 1c46 03        		.byte	0x3
 10796 1c47 1401      		.2byte	0x112 + 0x02
 10797 1c49 3B        		.uleb128 0x3b
 10798 1c4a 0000 0000 		.4byte	.LASF164
 10799 1c4e 0A        		.byte	0xa
 10800 1c4f 14        		.byte	0x14
 10801 1c50 0000 0000 		.4byte	.LASF165
 10802 1c54 7203 0000 		.4byte	0x372
 10803 1c58 01        		.byte	0x1
 10804 1c59 03        		.byte	0x3
 10805 1c5a 03        		.byte	0x3
 10806 1c5b 7800      		.2byte	0x0078
 10807 1c5d 3B        		.uleb128 0x3b
 10808 1c5e 0000 0000 		.4byte	.LASF166
 10809 1c62 0A        		.byte	0xa
 10810 1c63 16        		.byte	0x16
 10811 1c64 0000 0000 		.4byte	.LASF167
 10812 1c68 7203 0000 		.4byte	0x372
 10813 1c6c 01        		.byte	0x1
GAS LISTING /tmp/ccvQL2RB.s 			page 192


 10814 1c6d 03        		.byte	0x3
 10815 1c6e 03        		.byte	0x3
 10816 1c6f 7900      		.2byte	0x0079
 10817 1c71 3B        		.uleb128 0x3b
 10818 1c72 0000 0000 		.4byte	.LASF168
 10819 1c76 0A        		.byte	0xa
 10820 1c77 18        		.byte	0x18
 10821 1c78 0000 0000 		.4byte	.LASF169
 10822 1c7c 7203 0000 		.4byte	0x372
 10823 1c80 01        		.byte	0x1
 10824 1c81 03        		.byte	0x3
 10825 1c82 03        		.byte	0x3
 10826 1c83 7A00      		.2byte	0x007A
 10827 1c85 3B        		.uleb128 0x3b
 10828 1c86 0000 0000 		.4byte	.LASF170
 10829 1c8a 0A        		.byte	0xa
 10830 1c8b 1A        		.byte	0x1a
 10831 1c8c 0000 0000 		.4byte	.LASF171
 10832 1c90 7203 0000 		.4byte	0x372
 10833 1c94 01        		.byte	0x1
 10834 1c95 03        		.byte	0x3
 10835 1c96 03        		.byte	0x3
 10836 1c97 7B00      		.2byte	0x007B
 10837 1c99 3B        		.uleb128 0x3b
 10838 1c9a 0000 0000 		.4byte	.LASF172
 10839 1c9e 0A        		.byte	0xa
 10840 1c9f 1C        		.byte	0x1c
 10841 1ca0 0000 0000 		.4byte	.LASF173
 10842 1ca4 7203 0000 		.4byte	0x372
 10843 1ca8 01        		.byte	0x1
 10844 1ca9 03        		.byte	0x3
 10845 1caa 03        		.byte	0x3
 10846 1cab 7C00      		.2byte	0x007C
 10847 1cad 3B        		.uleb128 0x3b
 10848 1cae 0000 0000 		.4byte	.LASF174
 10849 1cb2 0A        		.byte	0xa
 10850 1cb3 1E        		.byte	0x1e
 10851 1cb4 0000 0000 		.4byte	.LASF175
 10852 1cb8 7203 0000 		.4byte	0x372
 10853 1cbc 01        		.byte	0x1
 10854 1cbd 03        		.byte	0x3
 10855 1cbe 03        		.byte	0x3
 10856 1cbf 7D00      		.2byte	0x007D
 10857 1cc1 3B        		.uleb128 0x3b
 10858 1cc2 0000 0000 		.4byte	.LASF176
 10859 1cc6 0A        		.byte	0xa
 10860 1cc7 20        		.byte	0x20
 10861 1cc8 0000 0000 		.4byte	.LASF165
 10862 1ccc 0D01 0000 		.4byte	0x10d
 10863 1cd0 01        		.byte	0x1
 10864 1cd1 03        		.byte	0x3
 10865 1cd2 03        		.byte	0x3
 10866 1cd3 7800      		.2byte	0x0078
 10867 1cd5 3B        		.uleb128 0x3b
 10868 1cd6 0000 0000 		.4byte	.LASF177
 10869 1cda 0A        		.byte	0xa
 10870 1cdb 23        		.byte	0x23
GAS LISTING /tmp/ccvQL2RB.s 			page 193


 10871 1cdc 0000 0000 		.4byte	.LASF169
 10872 1ce0 0D01 0000 		.4byte	0x10d
 10873 1ce4 01        		.byte	0x1
 10874 1ce5 03        		.byte	0x3
 10875 1ce6 03        		.byte	0x3
 10876 1ce7 7A00      		.2byte	0x007A
 10877 1ce9 3B        		.uleb128 0x3b
 10878 1cea 0000 0000 		.4byte	.LASF178
 10879 1cee 0A        		.byte	0xa
 10880 1cef 26        		.byte	0x26
 10881 1cf0 0000 0000 		.4byte	.LASF173
 10882 1cf4 0D01 0000 		.4byte	0x10d
 10883 1cf8 01        		.byte	0x1
 10884 1cf9 03        		.byte	0x3
 10885 1cfa 03        		.byte	0x3
 10886 1cfb 7C00      		.2byte	0x007C
 10887 1cfd 3B        		.uleb128 0x3b
 10888 1cfe 0000 0000 		.4byte	.LASF179
 10889 1d02 0B        		.byte	0xb
 10890 1d03 47        		.byte	0x47
 10891 1d04 0000 0000 		.4byte	.LASF180
 10892 1d08 0D01 0000 		.4byte	0x10d
 10893 1d0c 01        		.byte	0x1
 10894 1d0d 03        		.byte	0x3
 10895 1d0e 03        		.byte	0x3
 10896 1d0f 2001      		.2byte	0x0120
 10897 1d11 3D        		.uleb128 0x3d
 10898 1d12 4945 3100 		.string	"IE1"
 10899 1d16 0C        		.byte	0xc
 10900 1d17 2A        		.byte	0x2a
 10901 1d18 0000 0000 		.4byte	.LASF281
 10902 1d1c 7203 0000 		.4byte	0x372
 10903 1d20 01        		.byte	0x1
 10904 1d21 03        		.byte	0x3
 10905 1d22 03        		.byte	0x3
 10906 1d23 0000      		.2byte	0x0000
 10907 1d25 3B        		.uleb128 0x3b
 10908 1d26 0000 0000 		.4byte	.LASF181
 10909 1d2a 0C        		.byte	0xc
 10910 1d2b 31        		.byte	0x31
 10911 1d2c 0000 0000 		.4byte	.LASF182
 10912 1d30 7203 0000 		.4byte	0x372
 10913 1d34 01        		.byte	0x1
 10914 1d35 03        		.byte	0x3
 10915 1d36 03        		.byte	0x3
 10916 1d37 0200      		.2byte	0x0002
 10917 1d39 3B        		.uleb128 0x3b
 10918 1d3a 0000 0000 		.4byte	.LASF183
 10919 1d3e 0C        		.byte	0xc
 10920 1d3f 3D        		.byte	0x3d
 10921 1d40 0000 0000 		.4byte	.LASF184
 10922 1d44 7203 0000 		.4byte	0x372
 10923 1d48 01        		.byte	0x1
 10924 1d49 03        		.byte	0x3
 10925 1d4a 03        		.byte	0x3
 10926 1d4b F810      		.2byte	0x10F8
 10927 1d4d 3B        		.uleb128 0x3b
GAS LISTING /tmp/ccvQL2RB.s 			page 194


 10928 1d4e 0000 0000 		.4byte	.LASF185
 10929 1d52 0C        		.byte	0xc
 10930 1d53 3F        		.byte	0x3f
 10931 1d54 0000 0000 		.4byte	.LASF186
 10932 1d58 7203 0000 		.4byte	0x372
 10933 1d5c 01        		.byte	0x1
 10934 1d5d 03        		.byte	0x3
 10935 1d5e 03        		.byte	0x3
 10936 1d5f F910      		.2byte	0x10F9
 10937 1d61 3B        		.uleb128 0x3b
 10938 1d62 0000 0000 		.4byte	.LASF187
 10939 1d66 0C        		.byte	0xc
 10940 1d67 41        		.byte	0x41
 10941 1d68 0000 0000 		.4byte	.LASF188
 10942 1d6c 7203 0000 		.4byte	0x372
 10943 1d70 01        		.byte	0x1
 10944 1d71 03        		.byte	0x3
 10945 1d72 03        		.byte	0x3
 10946 1d73 FA10      		.2byte	0x10FA
 10947 1d75 3B        		.uleb128 0x3b
 10948 1d76 0000 0000 		.4byte	.LASF189
 10949 1d7a 0C        		.byte	0xc
 10950 1d7b 43        		.byte	0x43
 10951 1d7c 0000 0000 		.4byte	.LASF190
 10952 1d80 7203 0000 		.4byte	0x372
 10953 1d84 01        		.byte	0x1
 10954 1d85 03        		.byte	0x3
 10955 1d86 03        		.byte	0x3
 10956 1d87 FB10      		.2byte	0x10FB
 10957 1d89 3B        		.uleb128 0x3b
 10958 1d8a 0000 0000 		.4byte	.LASF191
 10959 1d8e 0C        		.byte	0xc
 10960 1d8f 45        		.byte	0x45
 10961 1d90 0000 0000 		.4byte	.LASF192
 10962 1d94 7203 0000 		.4byte	0x372
 10963 1d98 01        		.byte	0x1
 10964 1d99 03        		.byte	0x3
 10965 1d9a 03        		.byte	0x3
 10966 1d9b FC10      		.2byte	0x10FC
 10967 1d9d 3B        		.uleb128 0x3b
 10968 1d9e 0000 0000 		.4byte	.LASF193
 10969 1da2 0C        		.byte	0xc
 10970 1da3 47        		.byte	0x47
 10971 1da4 0000 0000 		.4byte	.LASF194
 10972 1da8 7203 0000 		.4byte	0x372
 10973 1dac 01        		.byte	0x1
 10974 1dad 03        		.byte	0x3
 10975 1dae 03        		.byte	0x3
 10976 1daf FD10      		.2byte	0x10FD
 10977 1db1 3B        		.uleb128 0x3b
 10978 1db2 0000 0000 		.4byte	.LASF195
 10979 1db6 0C        		.byte	0xc
 10980 1db7 49        		.byte	0x49
 10981 1db8 0000 0000 		.4byte	.LASF196
 10982 1dbc 7203 0000 		.4byte	0x372
 10983 1dc0 01        		.byte	0x1
 10984 1dc1 03        		.byte	0x3
GAS LISTING /tmp/ccvQL2RB.s 			page 195


 10985 1dc2 03        		.byte	0x3
 10986 1dc3 FE10      		.2byte	0x10FE
 10987 1dc5 3B        		.uleb128 0x3b
 10988 1dc6 0000 0000 		.4byte	.LASF197
 10989 1dca 0C        		.byte	0xc
 10990 1dcb 4B        		.byte	0x4b
 10991 1dcc 0000 0000 		.4byte	.LASF198
 10992 1dd0 7203 0000 		.4byte	0x372
 10993 1dd4 01        		.byte	0x1
 10994 1dd5 03        		.byte	0x3
 10995 1dd6 03        		.byte	0x3
 10996 1dd7 FF10      		.2byte	0x10FF
 10997 1dd9 3B        		.uleb128 0x3b
 10998 1dda 0000 0000 		.4byte	.LASF199
 10999 1dde 01        		.byte	0x1
 11000 1ddf 40        		.byte	0x40
 11001 1de0 0000 0000 		.4byte	.LASF200
 11002 1de4 0D01 0000 		.4byte	0x10d
 11003 1de8 01        		.byte	0x1
 11004 1de9 03        		.byte	0x3
 11005 1dea 03        		.byte	0x3
 11006 1deb 0020      		.2byte	0x2000
 11007 1ded 3B        		.uleb128 0x3b
 11008 1dee 0000 0000 		.4byte	.LASF201
 11009 1df2 01        		.byte	0x1
 11010 1df3 41        		.byte	0x41
 11011 1df4 0000 0000 		.4byte	.LASF202
 11012 1df8 0D01 0000 		.4byte	0x10d
 11013 1dfc 01        		.byte	0x1
 11014 1dfd 03        		.byte	0x3
 11015 1dfe 03        		.byte	0x3
 11016 1dff 0420      		.2byte	0x2004
 11017 1e01 3B        		.uleb128 0x3b
 11018 1e02 0000 0000 		.4byte	.LASF203
 11019 1e06 01        		.byte	0x1
 11020 1e07 42        		.byte	0x42
 11021 1e08 0000 0000 		.4byte	.LASF204
 11022 1e0c 0D01 0000 		.4byte	0x10d
 11023 1e10 01        		.byte	0x1
 11024 1e11 03        		.byte	0x3
 11025 1e12 03        		.byte	0x3
 11026 1e13 0820      		.2byte	0x2008
 11027 1e15 3B        		.uleb128 0x3b
 11028 1e16 0000 0000 		.4byte	.LASF205
 11029 1e1a 01        		.byte	0x1
 11030 1e1b 43        		.byte	0x43
 11031 1e1c 0000 0000 		.4byte	.LASF206
 11032 1e20 0D01 0000 		.4byte	0x10d
 11033 1e24 01        		.byte	0x1
 11034 1e25 03        		.byte	0x3
 11035 1e26 03        		.byte	0x3
 11036 1e27 0C20      		.2byte	0x200C
 11037 1e29 3B        		.uleb128 0x3b
 11038 1e2a 0000 0000 		.4byte	.LASF207
 11039 1e2e 01        		.byte	0x1
 11040 1e2f 45        		.byte	0x45
 11041 1e30 0000 0000 		.4byte	.LASF208
GAS LISTING /tmp/ccvQL2RB.s 			page 196


 11042 1e34 0D01 0000 		.4byte	0x10d
 11043 1e38 01        		.byte	0x1
 11044 1e39 03        		.byte	0x3
 11045 1e3a 03        		.byte	0x3
 11046 1e3b 0220      		.2byte	0x2002
 11047 1e3d 3B        		.uleb128 0x3b
 11048 1e3e 0000 0000 		.4byte	.LASF209
 11049 1e42 01        		.byte	0x1
 11050 1e43 46        		.byte	0x46
 11051 1e44 0000 0000 		.4byte	.LASF210
 11052 1e48 0D01 0000 		.4byte	0x10d
 11053 1e4c 01        		.byte	0x1
 11054 1e4d 03        		.byte	0x3
 11055 1e4e 03        		.byte	0x3
 11056 1e4f 0620      		.2byte	0x2006
 11057 1e51 3B        		.uleb128 0x3b
 11058 1e52 0000 0000 		.4byte	.LASF211
 11059 1e56 01        		.byte	0x1
 11060 1e57 47        		.byte	0x47
 11061 1e58 0000 0000 		.4byte	.LASF212
 11062 1e5c 0D01 0000 		.4byte	0x10d
 11063 1e60 01        		.byte	0x1
 11064 1e61 03        		.byte	0x3
 11065 1e62 03        		.byte	0x3
 11066 1e63 0A20      		.2byte	0x200A
 11067 1e65 3B        		.uleb128 0x3b
 11068 1e66 0000 0000 		.4byte	.LASF213
 11069 1e6a 01        		.byte	0x1
 11070 1e6b 48        		.byte	0x48
 11071 1e6c 0000 0000 		.4byte	.LASF214
 11072 1e70 0D01 0000 		.4byte	0x10d
 11073 1e74 01        		.byte	0x1
 11074 1e75 03        		.byte	0x3
 11075 1e76 03        		.byte	0x3
 11076 1e77 0E20      		.2byte	0x200E
 11077 1e79 3B        		.uleb128 0x3b
 11078 1e7a 0000 0000 		.4byte	.LASF215
 11079 1e7e 01        		.byte	0x1
 11080 1e7f 4A        		.byte	0x4a
 11081 1e80 0000 0000 		.4byte	.LASF216
 11082 1e84 0D01 0000 		.4byte	0x10d
 11083 1e88 01        		.byte	0x1
 11084 1e89 03        		.byte	0x3
 11085 1e8a 03        		.byte	0x3
 11086 1e8b 0040      		.2byte	0x4000
 11087 1e8d 3B        		.uleb128 0x3b
 11088 1e8e 0000 0000 		.4byte	.LASF217
 11089 1e92 01        		.byte	0x1
 11090 1e93 4B        		.byte	0x4b
 11091 1e94 0000 0000 		.4byte	.LASF218
 11092 1e98 0D01 0000 		.4byte	0x10d
 11093 1e9c 01        		.byte	0x1
 11094 1e9d 03        		.byte	0x3
 11095 1e9e 03        		.byte	0x3
 11096 1e9f 0240      		.2byte	0x4002
 11097 1ea1 3B        		.uleb128 0x3b
 11098 1ea2 0000 0000 		.4byte	.LASF219
GAS LISTING /tmp/ccvQL2RB.s 			page 197


 11099 1ea6 01        		.byte	0x1
 11100 1ea7 4C        		.byte	0x4c
 11101 1ea8 0000 0000 		.4byte	.LASF220
 11102 1eac 0D01 0000 		.4byte	0x10d
 11103 1eb0 01        		.byte	0x1
 11104 1eb1 03        		.byte	0x3
 11105 1eb2 03        		.byte	0x3
 11106 1eb3 0440      		.2byte	0x4004
 11107 1eb5 3B        		.uleb128 0x3b
 11108 1eb6 0000 0000 		.4byte	.LASF221
 11109 1eba 01        		.byte	0x1
 11110 1ebb 4D        		.byte	0x4d
 11111 1ebc 0000 0000 		.4byte	.LASF222
 11112 1ec0 0D01 0000 		.4byte	0x10d
 11113 1ec4 01        		.byte	0x1
 11114 1ec5 03        		.byte	0x3
 11115 1ec6 03        		.byte	0x3
 11116 1ec7 0640      		.2byte	0x4006
 11117 1ec9 3B        		.uleb128 0x3b
 11118 1eca 0000 0000 		.4byte	.LASF223
 11119 1ece 01        		.byte	0x1
 11120 1ecf 4F        		.byte	0x4f
 11121 1ed0 0000 0000 		.4byte	.LASF224
 11122 1ed4 0D01 0000 		.4byte	0x10d
 11123 1ed8 01        		.byte	0x1
 11124 1ed9 03        		.byte	0x3
 11125 1eda 03        		.byte	0x3
 11126 1edb 0060      		.2byte	0x6000
 11127 1edd 3B        		.uleb128 0x3b
 11128 1ede 0000 0000 		.4byte	.LASF225
 11129 1ee2 01        		.byte	0x1
 11130 1ee3 50        		.byte	0x50
 11131 1ee4 0000 0000 		.4byte	.LASF226
 11132 1ee8 0D01 0000 		.4byte	0x10d
 11133 1eec 01        		.byte	0x1
 11134 1eed 03        		.byte	0x3
 11135 1eee 03        		.byte	0x3
 11136 1eef 0260      		.2byte	0x6002
 11137 1ef1 3B        		.uleb128 0x3b
 11138 1ef2 0000 0000 		.4byte	.LASF227
 11139 1ef6 01        		.byte	0x1
 11140 1ef7 51        		.byte	0x51
 11141 1ef8 0000 0000 		.4byte	.LASF228
 11142 1efc 0D01 0000 		.4byte	0x10d
 11143 1f00 01        		.byte	0x1
 11144 1f01 03        		.byte	0x3
 11145 1f02 03        		.byte	0x3
 11146 1f03 0460      		.2byte	0x6004
 11147 1f05 3B        		.uleb128 0x3b
 11148 1f06 0000 0000 		.4byte	.LASF229
 11149 1f0a 01        		.byte	0x1
 11150 1f0b 52        		.byte	0x52
 11151 1f0c 0000 0000 		.4byte	.LASF230
 11152 1f10 0D01 0000 		.4byte	0x10d
 11153 1f14 01        		.byte	0x1
 11154 1f15 03        		.byte	0x3
 11155 1f16 03        		.byte	0x3
GAS LISTING /tmp/ccvQL2RB.s 			page 198


 11156 1f17 0660      		.2byte	0x6006
 11157 1f19 3B        		.uleb128 0x3b
 11158 1f1a 0000 0000 		.4byte	.LASF231
 11159 1f1e 01        		.byte	0x1
 11160 1f1f 53        		.byte	0x53
 11161 1f20 0000 0000 		.4byte	.LASF232
 11162 1f24 0D01 0000 		.4byte	0x10d
 11163 1f28 01        		.byte	0x1
 11164 1f29 03        		.byte	0x3
 11165 1f2a 03        		.byte	0x3
 11166 1f2b 0860      		.2byte	0x6008
 11167 1f2d 3B        		.uleb128 0x3b
 11168 1f2e 0000 0000 		.4byte	.LASF233
 11169 1f32 01        		.byte	0x1
 11170 1f33 54        		.byte	0x54
 11171 1f34 0000 0000 		.4byte	.LASF234
 11172 1f38 0D01 0000 		.4byte	0x10d
 11173 1f3c 01        		.byte	0x1
 11174 1f3d 03        		.byte	0x3
 11175 1f3e 03        		.byte	0x3
 11176 1f3f 0A60      		.2byte	0x600A
 11177 1f41 0D        		.uleb128 0xd
 11178 1f42 2800 0000 		.4byte	0x28
 11179 1f46 521F 0000 		.4byte	0x1f52
 11180 1f4a 3E        		.uleb128 0x3e
 11181 1f4b A102 0000 		.4byte	0x2a1
 11182 1f4f 0A01      		.2byte	0x10a
 11183 1f51 00        		.byte	0x0
 11184 1f52 3F        		.uleb128 0x3f
 11185 1f53 0000 0000 		.4byte	.LASF235
 11186 1f57 01        		.byte	0x1
 11187 1f58 5A        		.byte	0x5a
 11188 1f59 621F 0000 		.4byte	0x1f62
 11189 1f5d 01        		.byte	0x1
 11190 1f5e 03        		.byte	0x3
 11191 1f5f 03        		.byte	0x3
 11192 1f60 0000      		.2byte	cmdListBi
 11193 1f62 1B        		.uleb128 0x1b
 11194 1f63 411F 0000 		.4byte	0x1f41
 11195 1f67 0D        		.uleb128 0xd
 11196 1f68 2800 0000 		.4byte	0x28
 11197 1f6c 771F 0000 		.4byte	0x1f77
 11198 1f70 0E        		.uleb128 0xe
 11199 1f71 A102 0000 		.4byte	0x2a1
 11200 1f75 08        		.byte	0x8
 11201 1f76 00        		.byte	0x0
 11202 1f77 3F        		.uleb128 0x3f
 11203 1f78 0000 0000 		.4byte	.LASF236
 11204 1f7c 01        		.byte	0x1
 11205 1f7d 6C        		.byte	0x6c
 11206 1f7e 871F 0000 		.4byte	0x1f87
 11207 1f82 01        		.byte	0x1
 11208 1f83 03        		.byte	0x3
 11209 1f84 03        		.byte	0x3
 11210 1f85 0000      		.2byte	cmdListBi2
 11211 1f87 1B        		.uleb128 0x1b
 11212 1f88 671F 0000 		.4byte	0x1f67
GAS LISTING /tmp/ccvQL2RB.s 			page 199


 11213 1f8c 0D        		.uleb128 0xd
 11214 1f8d 3A00 0000 		.4byte	0x3a
 11215 1f91 9C1F 0000 		.4byte	0x1f9c
 11216 1f95 0E        		.uleb128 0xe
 11217 1f96 A102 0000 		.4byte	0x2a1
 11218 1f9a 03        		.byte	0x3
 11219 1f9b 00        		.byte	0x0
 11220 1f9c 3F        		.uleb128 0x3f
 11221 1f9d 0000 0000 		.4byte	.LASF237
 11222 1fa1 01        		.byte	0x1
 11223 1fa2 70        		.byte	0x70
 11224 1fa3 AC1F 0000 		.4byte	0x1fac
 11225 1fa7 01        		.byte	0x1
 11226 1fa8 03        		.byte	0x3
 11227 1fa9 03        		.byte	0x3
 11228 1faa 0000      		.2byte	cmdList2N
 11229 1fac 1B        		.uleb128 0x1b
 11230 1fad 8C1F 0000 		.4byte	0x1f8c
 11231 1fb1 0D        		.uleb128 0xd
 11232 1fb2 3A00 0000 		.4byte	0x3a
 11233 1fb6 C11F 0000 		.4byte	0x1fc1
 11234 1fba 0E        		.uleb128 0xe
 11235 1fbb A102 0000 		.4byte	0x2a1
 11236 1fbf 0F        		.byte	0xf
 11237 1fc0 00        		.byte	0x0
 11238 1fc1 3F        		.uleb128 0x3f
 11239 1fc2 0000 0000 		.4byte	.LASF238
 11240 1fc6 01        		.byte	0x1
 11241 1fc7 74        		.byte	0x74
 11242 1fc8 B11F 0000 		.4byte	0x1fb1
 11243 1fcc 01        		.byte	0x1
 11244 1fcd 03        		.byte	0x3
 11245 1fce 03        		.byte	0x3
 11246 1fcf 0000      		.2byte	mathStack
 11247 1fd1 0D        		.uleb128 0xd
 11248 1fd2 3A00 0000 		.4byte	0x3a
 11249 1fd6 E11F 0000 		.4byte	0x1fe1
 11250 1fda 0E        		.uleb128 0xe
 11251 1fdb A102 0000 		.4byte	0x2a1
 11252 1fdf 1F        		.byte	0x1f
 11253 1fe0 00        		.byte	0x0
 11254 1fe1 3F        		.uleb128 0x3f
 11255 1fe2 0000 0000 		.4byte	.LASF239
 11256 1fe6 01        		.byte	0x1
 11257 1fe7 76        		.byte	0x76
 11258 1fe8 D11F 0000 		.4byte	0x1fd1
 11259 1fec 01        		.byte	0x1
 11260 1fed 03        		.byte	0x3
 11261 1fee 03        		.byte	0x3
 11262 1fef 0000      		.2byte	addrStack
 11263 1ff1 3F        		.uleb128 0x3f
 11264 1ff2 0000 0000 		.4byte	.LASF240
 11265 1ff6 01        		.byte	0x1
 11266 1ff7 77        		.byte	0x77
 11267 1ff8 3A00 0000 		.4byte	0x3a
 11268 1ffc 01        		.byte	0x1
 11269 1ffd 03        		.byte	0x3
GAS LISTING /tmp/ccvQL2RB.s 			page 200


 11270 1ffe 03        		.byte	0x3
 11271 1fff 0000      		.2byte	addrStackPtr
 11272 2001 0D        		.uleb128 0xd
 11273 2002 3A00 0000 		.4byte	0x3a
 11274 2006 1120 0000 		.4byte	0x2011
 11275 200a 0E        		.uleb128 0xe
 11276 200b A102 0000 		.4byte	0x2a1
 11277 200f FF        		.byte	0xff
 11278 2010 00        		.byte	0x0
 11279 2011 3F        		.uleb128 0x3f
 11280 2012 0000 0000 		.4byte	.LASF241
 11281 2016 01        		.byte	0x1
 11282 2017 79        		.byte	0x79
 11283 2018 0120 0000 		.4byte	0x2001
 11284 201c 01        		.byte	0x1
 11285 201d 03        		.byte	0x3
 11286 201e 03        		.byte	0x3
 11287 201f 0000      		.2byte	prog
 11288 2021 3F        		.uleb128 0x3f
 11289 2022 0000 0000 		.4byte	.LASF242
 11290 2026 01        		.byte	0x1
 11291 2027 7A        		.byte	0x7a
 11292 2028 3A00 0000 		.4byte	0x3a
 11293 202c 01        		.byte	0x1
 11294 202d 03        		.byte	0x3
 11295 202e 03        		.byte	0x3
 11296 202f 0000      		.2byte	progPtr
 11297 2031 3F        		.uleb128 0x3f
 11298 2032 0000 0000 		.4byte	.LASF243
 11299 2036 01        		.byte	0x1
 11300 2037 7B        		.byte	0x7b
 11301 2038 D11F 0000 		.4byte	0x1fd1
 11302 203c 01        		.byte	0x1
 11303 203d 03        		.byte	0x3
 11304 203e 03        		.byte	0x3
 11305 203f 0000      		.2byte	progOps
 11306 2041 3F        		.uleb128 0x3f
 11307 2042 0000 0000 		.4byte	.LASF244
 11308 2046 01        		.byte	0x1
 11309 2047 7C        		.byte	0x7c
 11310 2048 3A00 0000 		.4byte	0x3a
 11311 204c 01        		.byte	0x1
 11312 204d 03        		.byte	0x3
 11313 204e 03        		.byte	0x3
 11314 204f 0000      		.2byte	progOpsPtr
 11315 2051 0D        		.uleb128 0xd
 11316 2052 2800 0000 		.4byte	0x28
 11317 2056 6120 0000 		.4byte	0x2061
 11318 205a 0E        		.uleb128 0xe
 11319 205b A102 0000 		.4byte	0x2a1
 11320 205f 7F        		.byte	0x7f
 11321 2060 00        		.byte	0x0
 11322 2061 3F        		.uleb128 0x3f
 11323 2062 0000 0000 		.4byte	.LASF245
 11324 2066 01        		.byte	0x1
 11325 2067 7D        		.byte	0x7d
 11326 2068 5120 0000 		.4byte	0x2051
GAS LISTING /tmp/ccvQL2RB.s 			page 201


 11327 206c 01        		.byte	0x1
 11328 206d 03        		.byte	0x3
 11329 206e 03        		.byte	0x3
 11330 206f 0000      		.2byte	cmdList
 11331 2071 3F        		.uleb128 0x3f
 11332 2072 0000 0000 		.4byte	.LASF246
 11333 2076 01        		.byte	0x1
 11334 2077 7E        		.byte	0x7e
 11335 2078 3A00 0000 		.4byte	0x3a
 11336 207c 01        		.byte	0x1
 11337 207d 03        		.byte	0x3
 11338 207e 03        		.byte	0x3
 11339 207f 0000      		.2byte	cmdListPtr
 11340 2081 3F        		.uleb128 0x3f
 11341 2082 0000 0000 		.4byte	.LASF247
 11342 2086 01        		.byte	0x1
 11343 2087 80        		.byte	0x80
 11344 2088 3A00 0000 		.4byte	0x3a
 11345 208c 01        		.byte	0x1
 11346 208d 03        		.byte	0x3
 11347 208e 03        		.byte	0x3
 11348 208f 0000      		.2byte	subSecondClock
 11349 2091 3F        		.uleb128 0x3f
 11350 2092 0000 0000 		.4byte	.LASF248
 11351 2096 01        		.byte	0x1
 11352 2097 81        		.byte	0x81
 11353 2098 3A00 0000 		.4byte	0x3a
 11354 209c 01        		.byte	0x1
 11355 209d 03        		.byte	0x3
 11356 209e 03        		.byte	0x3
 11357 209f 0000      		.2byte	fastTimer
 11358 20a1 3F        		.uleb128 0x3f
 11359 20a2 0000 0000 		.4byte	.LASF249
 11360 20a6 01        		.byte	0x1
 11361 20a7 82        		.byte	0x82
 11362 20a8 3A00 0000 		.4byte	0x3a
 11363 20ac 01        		.byte	0x1
 11364 20ad 03        		.byte	0x3
 11365 20ae 03        		.byte	0x3
 11366 20af 0000      		.2byte	slowTimer
 11367 20b1 3F        		.uleb128 0x3f
 11368 20b2 0000 0000 		.4byte	.LASF250
 11369 20b6 01        		.byte	0x1
 11370 20b7 85        		.byte	0x85
 11371 20b8 C120 0000 		.4byte	0x20c1
 11372 20bc 01        		.byte	0x1
 11373 20bd 03        		.byte	0x3
 11374 20be 03        		.byte	0x3
 11375 20bf 0000      		.2byte	dirMemory
 11376 20c1 1A        		.uleb128 0x1a
 11377 20c2 02        		.byte	0x2
 11378 20c3 3A00 0000 		.4byte	0x3a
 11379 20c7 0D        		.uleb128 0xd
 11380 20c8 4C00 0000 		.4byte	0x4c
 11381 20cc D820 0000 		.4byte	0x20d8
 11382 20d0 3E        		.uleb128 0x3e
 11383 20d1 A102 0000 		.4byte	0x2a1
GAS LISTING /tmp/ccvQL2RB.s 			page 202


 11384 20d5 0301      		.2byte	0x103
 11385 20d7 00        		.byte	0x0
 11386 20d8 3F        		.uleb128 0x3f
 11387 20d9 0000 0000 		.4byte	.LASF251
 11388 20dd 01        		.byte	0x1
 11389 20de 88        		.byte	0x88
 11390 20df C720 0000 		.4byte	0x20c7
 11391 20e3 01        		.byte	0x1
 11392 20e4 03        		.byte	0x3
 11393 20e5 03        		.byte	0x3
 11394 20e6 0000      		.2byte	buckets
 11395 20e8 0D        		.uleb128 0xd
 11396 20e9 3A00 0000 		.4byte	0x3a
 11397 20ed F820 0000 		.4byte	0x20f8
 11398 20f1 0E        		.uleb128 0xe
 11399 20f2 A102 0000 		.4byte	0x2a1
 11400 20f6 93        		.byte	0x93
 11401 20f7 00        		.byte	0x0
 11402 20f8 3F        		.uleb128 0x3f
 11403 20f9 0000 0000 		.4byte	.LASF252
 11404 20fd 01        		.byte	0x1
 11405 20fe 8D        		.byte	0x8d
 11406 20ff 0821 0000 		.4byte	0x2108
 11407 2103 01        		.byte	0x1
 11408 2104 03        		.byte	0x3
 11409 2105 03        		.byte	0x3
 11410 2106 0000      		.2byte	progBi
 11411 2108 1B        		.uleb128 0x1b
 11412 2109 E820 0000 		.4byte	0x20e8
 11413 210d 40        		.uleb128 0x40
 11414 210e 0000 0000 		.4byte	.LASF253
 11415 2112 01        		.byte	0x1
 11416 2113 5001      		.2byte	0x150
 11417 2115 3A00 0000 		.4byte	0x3a
 11418 2119 01        		.byte	0x1
 11419 211a 03        		.byte	0x3
 11420 211b 03        		.byte	0x3
 11421 211c 0000      		.2byte	progCounter
 11422 211e 40        		.uleb128 0x40
 11423 211f 0000 0000 		.4byte	.LASF254
 11424 2123 01        		.byte	0x1
 11425 2124 5201      		.2byte	0x152
 11426 2126 5120 0000 		.4byte	0x2051
 11427 212a 01        		.byte	0x1
 11428 212b 03        		.byte	0x3
 11429 212c 03        		.byte	0x3
 11430 212d 0000      		.2byte	lineBuffer
 11431 212f 40        		.uleb128 0x40
 11432 2130 0000 0000 		.4byte	.LASF255
 11433 2134 01        		.byte	0x1
 11434 2135 5401      		.2byte	0x154
 11435 2137 4C00 0000 		.4byte	0x4c
 11436 213b 01        		.byte	0x1
 11437 213c 03        		.byte	0x3
 11438 213d 03        		.byte	0x3
 11439 213e 0000      		.2byte	lineBufferPtr
 11440 2140 0D        		.uleb128 0xd
GAS LISTING /tmp/ccvQL2RB.s 			page 203


 11441 2141 2800 0000 		.4byte	0x28
 11442 2145 5021 0000 		.4byte	0x2150
 11443 2149 0E        		.uleb128 0xe
 11444 214a A102 0000 		.4byte	0x2a1
 11445 214e 1F        		.byte	0x1f
 11446 214f 00        		.byte	0x0
 11447 2150 40        		.uleb128 0x40
 11448 2151 0000 0000 		.4byte	.LASF256
 11449 2155 01        		.byte	0x1
 11450 2156 5701      		.2byte	0x157
 11451 2158 4021 0000 		.4byte	0x2140
 11452 215c 01        		.byte	0x1
 11453 215d 03        		.byte	0x3
 11454 215e 03        		.byte	0x3
 11455 215f 0000      		.2byte	wordBuffer
 11456 2161 40        		.uleb128 0x40
 11457 2162 0000 0000 		.4byte	.LASF257
 11458 2166 01        		.byte	0x1
 11459 2167 5E01      		.2byte	0x15e
 11460 2169 7221 0000 		.4byte	0x2172
 11461 216d 01        		.byte	0x1
 11462 216e 03        		.byte	0x3
 11463 216f 03        		.byte	0x3
 11464 2170 0000      		.2byte	outputCharN
 11465 2172 07        		.uleb128 0x7
 11466 2173 4C00 0000 		.4byte	0x4c
 11467 2177 40        		.uleb128 0x40
 11468 2178 0000 0000 		.4byte	.LASF258
 11469 217c 01        		.byte	0x1
 11470 217d 5F01      		.2byte	0x15f
 11471 217f 7221 0000 		.4byte	0x2172
 11472 2183 01        		.byte	0x1
 11473 2184 03        		.byte	0x3
 11474 2185 03        		.byte	0x3
 11475 2186 0000      		.2byte	outputCharCntrN
 11476 2188 40        		.uleb128 0x40
 11477 2189 0000 0000 		.4byte	.LASF259
 11478 218d 01        		.byte	0x1
 11479 218e 6301      		.2byte	0x163
 11480 2190 7221 0000 		.4byte	0x2172
 11481 2194 01        		.byte	0x1
 11482 2195 03        		.byte	0x3
 11483 2196 03        		.byte	0x3
 11484 2197 0000      		.2byte	outputChar
 11485 2199 40        		.uleb128 0x40
 11486 219a 0000 0000 		.4byte	.LASF260
 11487 219e 01        		.byte	0x1
 11488 219f 6401      		.2byte	0x164
 11489 21a1 7221 0000 		.4byte	0x2172
 11490 21a5 01        		.byte	0x1
 11491 21a6 03        		.byte	0x3
 11492 21a7 03        		.byte	0x3
 11493 21a8 0000      		.2byte	outputCharCntr
 11494 21aa 40        		.uleb128 0x40
 11495 21ab 0000 0000 		.4byte	.LASF261
 11496 21af 01        		.byte	0x1
 11497 21b0 6501      		.2byte	0x165
GAS LISTING /tmp/ccvQL2RB.s 			page 204


 11498 21b2 7221 0000 		.4byte	0x2172
 11499 21b6 01        		.byte	0x1
 11500 21b7 03        		.byte	0x3
 11501 21b8 03        		.byte	0x3
 11502 21b9 0000      		.2byte	clicks
 11503 21bb 0D        		.uleb128 0xd
 11504 21bc 4C00 0000 		.4byte	0x4c
 11505 21c0 CB21 0000 		.4byte	0x21cb
 11506 21c4 0E        		.uleb128 0xe
 11507 21c5 A102 0000 		.4byte	0x2a1
 11508 21c9 0F        		.byte	0xf
 11509 21ca 00        		.byte	0x0
 11510 21cb 40        		.uleb128 0x40
 11511 21cc 0000 0000 		.4byte	.LASF262
 11512 21d0 01        		.byte	0x1
 11513 21d1 6701      		.2byte	0x167
 11514 21d3 BB21 0000 		.4byte	0x21bb
 11515 21d7 01        		.byte	0x1
 11516 21d8 03        		.byte	0x3
 11517 21d9 03        		.byte	0x3
 11518 21da 0000      		.2byte	outputRing
 11519 21dc 40        		.uleb128 0x40
 11520 21dd 0000 0000 		.4byte	.LASF263
 11521 21e1 01        		.byte	0x1
 11522 21e2 6801      		.2byte	0x168
 11523 21e4 7221 0000 		.4byte	0x2172
 11524 21e8 01        		.byte	0x1
 11525 21e9 03        		.byte	0x3
 11526 21ea 03        		.byte	0x3
 11527 21eb 0000      		.2byte	outputRingPtrXin
 11528 21ed 40        		.uleb128 0x40
 11529 21ee 0000 0000 		.4byte	.LASF264
 11530 21f2 01        		.byte	0x1
 11531 21f3 6901      		.2byte	0x169
 11532 21f5 7221 0000 		.4byte	0x2172
 11533 21f9 01        		.byte	0x1
 11534 21fa 03        		.byte	0x3
 11535 21fb 03        		.byte	0x3
 11536 21fc 0000      		.2byte	outputRingPtrXout
 11537 21fe 40        		.uleb128 0x40
 11538 21ff 0000 0000 		.4byte	.LASF265
 11539 2203 01        		.byte	0x1
 11540 2204 6C01      		.2byte	0x16c
 11541 2206 7221 0000 		.4byte	0x2172
 11542 220a 01        		.byte	0x1
 11543 220b 03        		.byte	0x3
 11544 220c 03        		.byte	0x3
 11545 220d 0000      		.2byte	inputChar
 11546 220f 40        		.uleb128 0x40
 11547 2210 0000 0000 		.4byte	.LASF266
 11548 2214 01        		.byte	0x1
 11549 2215 6D01      		.2byte	0x16d
 11550 2217 7221 0000 		.4byte	0x2172
 11551 221b 01        		.byte	0x1
 11552 221c 03        		.byte	0x3
 11553 221d 03        		.byte	0x3
 11554 221e 0000      		.2byte	inputCharX
GAS LISTING /tmp/ccvQL2RB.s 			page 205


 11555 2220 40        		.uleb128 0x40
 11556 2221 0000 0000 		.4byte	.LASF267
 11557 2225 01        		.byte	0x1
 11558 2226 6E01      		.2byte	0x16e
 11559 2228 7221 0000 		.4byte	0x2172
 11560 222c 01        		.byte	0x1
 11561 222d 03        		.byte	0x3
 11562 222e 03        		.byte	0x3
 11563 222f 0000      		.2byte	inputCharCntr
 11564 2231 40        		.uleb128 0x40
 11565 2232 0000 0000 		.4byte	.LASF268
 11566 2236 01        		.byte	0x1
 11567 2237 7001      		.2byte	0x170
 11568 2239 7221 0000 		.4byte	0x2172
 11569 223d 01        		.byte	0x1
 11570 223e 03        		.byte	0x3
 11571 223f 03        		.byte	0x3
 11572 2240 0000      		.2byte	inputCharBit
 11573 2242 0D        		.uleb128 0xd
 11574 2243 2800 0000 		.4byte	0x28
 11575 2247 5222 0000 		.4byte	0x2252
 11576 224b 0E        		.uleb128 0xe
 11577 224c A102 0000 		.4byte	0x2a1
 11578 2250 0F        		.byte	0xf
 11579 2251 00        		.byte	0x0
 11580 2252 40        		.uleb128 0x40
 11581 2253 0000 0000 		.4byte	.LASF269
 11582 2257 01        		.byte	0x1
 11583 2258 7201      		.2byte	0x172
 11584 225a 4222 0000 		.4byte	0x2242
 11585 225e 01        		.byte	0x1
 11586 225f 03        		.byte	0x3
 11587 2260 03        		.byte	0x3
 11588 2261 0000      		.2byte	inputRing
 11589 2263 40        		.uleb128 0x40
 11590 2264 0000 0000 		.4byte	.LASF270
 11591 2268 01        		.byte	0x1
 11592 2269 7301      		.2byte	0x173
 11593 226b 7221 0000 		.4byte	0x2172
 11594 226f 01        		.byte	0x1
 11595 2270 03        		.byte	0x3
 11596 2271 03        		.byte	0x3
 11597 2272 0000      		.2byte	inputRingPtrXin
 11598 2274 40        		.uleb128 0x40
 11599 2275 0000 0000 		.4byte	.LASF271
 11600 2279 01        		.byte	0x1
 11601 227a 7401      		.2byte	0x174
 11602 227c 7221 0000 		.4byte	0x2172
 11603 2280 01        		.byte	0x1
 11604 2281 03        		.byte	0x3
 11605 2282 03        		.byte	0x3
 11606 2283 0000      		.2byte	inputRingPtrXout
 11607 2285 40        		.uleb128 0x40
 11608 2286 0000 0000 		.4byte	.LASF272
 11609 228a 01        		.byte	0x1
 11610 228b 7701      		.2byte	0x177
 11611 228d 5120 0000 		.4byte	0x2051
GAS LISTING /tmp/ccvQL2RB.s 			page 206


 11612 2291 01        		.byte	0x1
 11613 2292 03        		.byte	0x3
 11614 2293 03        		.byte	0x3
 11615 2294 0000      		.2byte	inputBuf
 11616 2296 40        		.uleb128 0x40
 11617 2297 0000 0000 		.4byte	.LASF273
 11618 229b 01        		.byte	0x1
 11619 229c 7801      		.2byte	0x178
 11620 229e 2800 0000 		.4byte	0x28
 11621 22a2 01        		.byte	0x1
 11622 22a3 03        		.byte	0x3
 11623 22a4 03        		.byte	0x3
 11624 22a5 0000      		.2byte	inputBufPtr
 11625 22a7 0D        		.uleb128 0xd
 11626 22a8 3A00 0000 		.4byte	0x3a
 11627 22ac B722 0000 		.4byte	0x22b7
 11628 22b0 0E        		.uleb128 0xe
 11629 22b1 A102 0000 		.4byte	0x2a1
 11630 22b5 02        		.byte	0x2
 11631 22b6 00        		.byte	0x0
 11632 22b7 40        		.uleb128 0x40
 11633 22b8 0000 0000 		.4byte	.LASF274
 11634 22bc 01        		.byte	0x1
 11635 22bd 7B01      		.2byte	0x17b
 11636 22bf A722 0000 		.4byte	0x22a7
 11637 22c3 01        		.byte	0x1
 11638 22c4 03        		.byte	0x3
 11639 22c5 03        		.byte	0x3
 11640 22c6 0000      		.2byte	fecShadow
 11641 22c8 40        		.uleb128 0x40
 11642 22c9 0000 0000 		.4byte	.LASF275
 11643 22cd 01        		.byte	0x1
 11644 22ce 8301      		.2byte	0x183
 11645 22d0 4C00 0000 		.4byte	0x4c
 11646 22d4 01        		.byte	0x1
 11647 22d5 03        		.byte	0x3
 11648 22d6 03        		.byte	0x3
 11649 22d7 0000      		.2byte	ad_int_tmp
 11650 22d9 0D        		.uleb128 0xd
 11651 22da E922 0000 		.4byte	0x22e9
 11652 22de E922 0000 		.4byte	0x22e9
 11653 22e2 0E        		.uleb128 0xe
 11654 22e3 A102 0000 		.4byte	0x2a1
 11655 22e7 0F        		.byte	0xf
 11656 22e8 00        		.byte	0x0
 11657 22e9 41        		.uleb128 0x41
 11658 22ea 02        		.byte	0x2
 11659 22eb 40        		.uleb128 0x40
 11660 22ec 0000 0000 		.4byte	.LASF276
 11661 22f0 01        		.byte	0x1
 11662 22f1 5205      		.2byte	0x552
 11663 22f3 D922 0000 		.4byte	0x22d9
 11664 22f7 01        		.byte	0x1
 11665 22f8 03        		.byte	0x3
 11666 22f9 03        		.byte	0x3
 11667 22fa 0000      		.2byte	InterruptVectors
 11668 22fc 00        		.byte	0x0
GAS LISTING /tmp/ccvQL2RB.s 			page 207


 11669               		.section	.debug_abbrev
 11670 0000 01        		.uleb128 0x1
 11671 0001 11        		.uleb128 0x11
 11672 0002 01        		.byte	0x1
 11673 0003 25        		.uleb128 0x25
 11674 0004 0E        		.uleb128 0xe
 11675 0005 13        		.uleb128 0x13
 11676 0006 0B        		.uleb128 0xb
 11677 0007 03        		.uleb128 0x3
 11678 0008 08        		.uleb128 0x8
 11679 0009 1B        		.uleb128 0x1b
 11680 000a 0E        		.uleb128 0xe
 11681 000b 11        		.uleb128 0x11
 11682 000c 01        		.uleb128 0x1
 11683 000d 12        		.uleb128 0x12
 11684 000e 01        		.uleb128 0x1
 11685 000f 10        		.uleb128 0x10
 11686 0010 06        		.uleb128 0x6
 11687 0011 00        		.byte	0x0
 11688 0012 00        		.byte	0x0
 11689 0013 02        		.uleb128 0x2
 11690 0014 24        		.uleb128 0x24
 11691 0015 00        		.byte	0x0
 11692 0016 0B        		.uleb128 0xb
 11693 0017 0B        		.uleb128 0xb
 11694 0018 3E        		.uleb128 0x3e
 11695 0019 0B        		.uleb128 0xb
 11696 001a 03        		.uleb128 0x3
 11697 001b 0E        		.uleb128 0xe
 11698 001c 00        		.byte	0x0
 11699 001d 00        		.byte	0x0
 11700 001e 03        		.uleb128 0x3
 11701 001f 16        		.uleb128 0x16
 11702 0020 00        		.byte	0x0
 11703 0021 03        		.uleb128 0x3
 11704 0022 0E        		.uleb128 0xe
 11705 0023 3A        		.uleb128 0x3a
 11706 0024 0B        		.uleb128 0xb
 11707 0025 3B        		.uleb128 0x3b
 11708 0026 0B        		.uleb128 0xb
 11709 0027 49        		.uleb128 0x49
 11710 0028 13        		.uleb128 0x13
 11711 0029 00        		.byte	0x0
 11712 002a 00        		.byte	0x0
 11713 002b 04        		.uleb128 0x4
 11714 002c 24        		.uleb128 0x24
 11715 002d 00        		.byte	0x0
 11716 002e 0B        		.uleb128 0xb
 11717 002f 0B        		.uleb128 0xb
 11718 0030 3E        		.uleb128 0x3e
 11719 0031 0B        		.uleb128 0xb
 11720 0032 03        		.uleb128 0x3
 11721 0033 08        		.uleb128 0x8
 11722 0034 00        		.byte	0x0
 11723 0035 00        		.byte	0x0
 11724 0036 05        		.uleb128 0x5
 11725 0037 13        		.uleb128 0x13
GAS LISTING /tmp/ccvQL2RB.s 			page 208


 11726 0038 01        		.byte	0x1
 11727 0039 0B        		.uleb128 0xb
 11728 003a 0B        		.uleb128 0xb
 11729 003b 3A        		.uleb128 0x3a
 11730 003c 0B        		.uleb128 0xb
 11731 003d 3B        		.uleb128 0x3b
 11732 003e 05        		.uleb128 0x5
 11733 003f 01        		.uleb128 0x1
 11734 0040 13        		.uleb128 0x13
 11735 0041 00        		.byte	0x0
 11736 0042 00        		.byte	0x0
 11737 0043 06        		.uleb128 0x6
 11738 0044 0D        		.uleb128 0xd
 11739 0045 00        		.byte	0x0
 11740 0046 03        		.uleb128 0x3
 11741 0047 0E        		.uleb128 0xe
 11742 0048 3A        		.uleb128 0x3a
 11743 0049 0B        		.uleb128 0xb
 11744 004a 3B        		.uleb128 0x3b
 11745 004b 05        		.uleb128 0x5
 11746 004c 49        		.uleb128 0x49
 11747 004d 13        		.uleb128 0x13
 11748 004e 0B        		.uleb128 0xb
 11749 004f 0B        		.uleb128 0xb
 11750 0050 0D        		.uleb128 0xd
 11751 0051 0B        		.uleb128 0xb
 11752 0052 0C        		.uleb128 0xc
 11753 0053 0B        		.uleb128 0xb
 11754 0054 38        		.uleb128 0x38
 11755 0055 0A        		.uleb128 0xa
 11756 0056 00        		.byte	0x0
 11757 0057 00        		.byte	0x0
 11758 0058 07        		.uleb128 0x7
 11759 0059 35        		.uleb128 0x35
 11760 005a 00        		.byte	0x0
 11761 005b 49        		.uleb128 0x49
 11762 005c 13        		.uleb128 0x13
 11763 005d 00        		.byte	0x0
 11764 005e 00        		.byte	0x0
 11765 005f 08        		.uleb128 0x8
 11766 0060 16        		.uleb128 0x16
 11767 0061 00        		.byte	0x0
 11768 0062 03        		.uleb128 0x3
 11769 0063 0E        		.uleb128 0xe
 11770 0064 3A        		.uleb128 0x3a
 11771 0065 0B        		.uleb128 0xb
 11772 0066 3B        		.uleb128 0x3b
 11773 0067 05        		.uleb128 0x5
 11774 0068 49        		.uleb128 0x49
 11775 0069 13        		.uleb128 0x13
 11776 006a 00        		.byte	0x0
 11777 006b 00        		.byte	0x0
 11778 006c 09        		.uleb128 0x9
 11779 006d 0D        		.uleb128 0xd
 11780 006e 00        		.byte	0x0
 11781 006f 03        		.uleb128 0x3
 11782 0070 08        		.uleb128 0x8
GAS LISTING /tmp/ccvQL2RB.s 			page 209


 11783 0071 3A        		.uleb128 0x3a
 11784 0072 0B        		.uleb128 0xb
 11785 0073 3B        		.uleb128 0x3b
 11786 0074 05        		.uleb128 0x5
 11787 0075 49        		.uleb128 0x49
 11788 0076 13        		.uleb128 0x13
 11789 0077 0B        		.uleb128 0xb
 11790 0078 0B        		.uleb128 0xb
 11791 0079 0D        		.uleb128 0xd
 11792 007a 0B        		.uleb128 0xb
 11793 007b 0C        		.uleb128 0xc
 11794 007c 0B        		.uleb128 0xb
 11795 007d 38        		.uleb128 0x38
 11796 007e 0A        		.uleb128 0xa
 11797 007f 00        		.byte	0x0
 11798 0080 00        		.byte	0x0
 11799 0081 0A        		.uleb128 0xa
 11800 0082 13        		.uleb128 0x13
 11801 0083 01        		.byte	0x1
 11802 0084 03        		.uleb128 0x3
 11803 0085 0E        		.uleb128 0xe
 11804 0086 0B        		.uleb128 0xb
 11805 0087 0B        		.uleb128 0xb
 11806 0088 3A        		.uleb128 0x3a
 11807 0089 0B        		.uleb128 0xb
 11808 008a 3B        		.uleb128 0x3b
 11809 008b 05        		.uleb128 0x5
 11810 008c 01        		.uleb128 0x1
 11811 008d 13        		.uleb128 0x13
 11812 008e 00        		.byte	0x0
 11813 008f 00        		.byte	0x0
 11814 0090 0B        		.uleb128 0xb
 11815 0091 0D        		.uleb128 0xd
 11816 0092 00        		.byte	0x0
 11817 0093 03        		.uleb128 0x3
 11818 0094 08        		.uleb128 0x8
 11819 0095 3A        		.uleb128 0x3a
 11820 0096 0B        		.uleb128 0xb
 11821 0097 3B        		.uleb128 0x3b
 11822 0098 05        		.uleb128 0x5
 11823 0099 49        		.uleb128 0x49
 11824 009a 13        		.uleb128 0x13
 11825 009b 38        		.uleb128 0x38
 11826 009c 0A        		.uleb128 0xa
 11827 009d 00        		.byte	0x0
 11828 009e 00        		.byte	0x0
 11829 009f 0C        		.uleb128 0xc
 11830 00a0 0D        		.uleb128 0xd
 11831 00a1 00        		.byte	0x0
 11832 00a2 03        		.uleb128 0x3
 11833 00a3 0E        		.uleb128 0xe
 11834 00a4 3A        		.uleb128 0x3a
 11835 00a5 0B        		.uleb128 0xb
 11836 00a6 3B        		.uleb128 0x3b
 11837 00a7 05        		.uleb128 0x5
 11838 00a8 49        		.uleb128 0x49
 11839 00a9 13        		.uleb128 0x13
GAS LISTING /tmp/ccvQL2RB.s 			page 210


 11840 00aa 38        		.uleb128 0x38
 11841 00ab 0A        		.uleb128 0xa
 11842 00ac 00        		.byte	0x0
 11843 00ad 00        		.byte	0x0
 11844 00ae 0D        		.uleb128 0xd
 11845 00af 01        		.uleb128 0x1
 11846 00b0 01        		.byte	0x1
 11847 00b1 49        		.uleb128 0x49
 11848 00b2 13        		.uleb128 0x13
 11849 00b3 01        		.uleb128 0x1
 11850 00b4 13        		.uleb128 0x13
 11851 00b5 00        		.byte	0x0
 11852 00b6 00        		.byte	0x0
 11853 00b7 0E        		.uleb128 0xe
 11854 00b8 21        		.uleb128 0x21
 11855 00b9 00        		.byte	0x0
 11856 00ba 49        		.uleb128 0x49
 11857 00bb 13        		.uleb128 0x13
 11858 00bc 2F        		.uleb128 0x2f
 11859 00bd 0B        		.uleb128 0xb
 11860 00be 00        		.byte	0x0
 11861 00bf 00        		.byte	0x0
 11862 00c0 0F        		.uleb128 0xf
 11863 00c1 24        		.uleb128 0x24
 11864 00c2 00        		.byte	0x0
 11865 00c3 0B        		.uleb128 0xb
 11866 00c4 0B        		.uleb128 0xb
 11867 00c5 3E        		.uleb128 0x3e
 11868 00c6 0B        		.uleb128 0xb
 11869 00c7 00        		.byte	0x0
 11870 00c8 00        		.byte	0x0
 11871 00c9 10        		.uleb128 0x10
 11872 00ca 13        		.uleb128 0x13
 11873 00cb 01        		.byte	0x1
 11874 00cc 0B        		.uleb128 0xb
 11875 00cd 0B        		.uleb128 0xb
 11876 00ce 3A        		.uleb128 0x3a
 11877 00cf 0B        		.uleb128 0xb
 11878 00d0 3B        		.uleb128 0x3b
 11879 00d1 0B        		.uleb128 0xb
 11880 00d2 01        		.uleb128 0x1
 11881 00d3 13        		.uleb128 0x13
 11882 00d4 00        		.byte	0x0
 11883 00d5 00        		.byte	0x0
 11884 00d6 11        		.uleb128 0x11
 11885 00d7 0D        		.uleb128 0xd
 11886 00d8 00        		.byte	0x0
 11887 00d9 03        		.uleb128 0x3
 11888 00da 0E        		.uleb128 0xe
 11889 00db 3A        		.uleb128 0x3a
 11890 00dc 0B        		.uleb128 0xb
 11891 00dd 3B        		.uleb128 0x3b
 11892 00de 0B        		.uleb128 0xb
 11893 00df 49        		.uleb128 0x49
 11894 00e0 13        		.uleb128 0x13
 11895 00e1 0B        		.uleb128 0xb
 11896 00e2 0B        		.uleb128 0xb
GAS LISTING /tmp/ccvQL2RB.s 			page 211


 11897 00e3 0D        		.uleb128 0xd
 11898 00e4 0B        		.uleb128 0xb
 11899 00e5 0C        		.uleb128 0xc
 11900 00e6 0B        		.uleb128 0xb
 11901 00e7 38        		.uleb128 0x38
 11902 00e8 0A        		.uleb128 0xa
 11903 00e9 00        		.byte	0x0
 11904 00ea 00        		.byte	0x0
 11905 00eb 12        		.uleb128 0x12
 11906 00ec 17        		.uleb128 0x17
 11907 00ed 01        		.byte	0x1
 11908 00ee 03        		.uleb128 0x3
 11909 00ef 0E        		.uleb128 0xe
 11910 00f0 0B        		.uleb128 0xb
 11911 00f1 0B        		.uleb128 0xb
 11912 00f2 3A        		.uleb128 0x3a
 11913 00f3 0B        		.uleb128 0xb
 11914 00f4 3B        		.uleb128 0x3b
 11915 00f5 0B        		.uleb128 0xb
 11916 00f6 01        		.uleb128 0x1
 11917 00f7 13        		.uleb128 0x13
 11918 00f8 00        		.byte	0x0
 11919 00f9 00        		.byte	0x0
 11920 00fa 13        		.uleb128 0x13
 11921 00fb 0D        		.uleb128 0xd
 11922 00fc 00        		.byte	0x0
 11923 00fd 03        		.uleb128 0x3
 11924 00fe 0E        		.uleb128 0xe
 11925 00ff 3A        		.uleb128 0x3a
 11926 0100 0B        		.uleb128 0xb
 11927 0101 3B        		.uleb128 0x3b
 11928 0102 0B        		.uleb128 0xb
 11929 0103 49        		.uleb128 0x49
 11930 0104 13        		.uleb128 0x13
 11931 0105 00        		.byte	0x0
 11932 0106 00        		.byte	0x0
 11933 0107 14        		.uleb128 0x14
 11934 0108 13        		.uleb128 0x13
 11935 0109 01        		.byte	0x1
 11936 010a 03        		.uleb128 0x3
 11937 010b 0E        		.uleb128 0xe
 11938 010c 0B        		.uleb128 0xb
 11939 010d 0B        		.uleb128 0xb
 11940 010e 3A        		.uleb128 0x3a
 11941 010f 0B        		.uleb128 0xb
 11942 0110 3B        		.uleb128 0x3b
 11943 0111 0B        		.uleb128 0xb
 11944 0112 01        		.uleb128 0x1
 11945 0113 13        		.uleb128 0x13
 11946 0114 00        		.byte	0x0
 11947 0115 00        		.byte	0x0
 11948 0116 15        		.uleb128 0x15
 11949 0117 0D        		.uleb128 0xd
 11950 0118 00        		.byte	0x0
 11951 0119 03        		.uleb128 0x3
 11952 011a 08        		.uleb128 0x8
 11953 011b 3A        		.uleb128 0x3a
GAS LISTING /tmp/ccvQL2RB.s 			page 212


 11954 011c 0B        		.uleb128 0xb
 11955 011d 3B        		.uleb128 0x3b
 11956 011e 0B        		.uleb128 0xb
 11957 011f 49        		.uleb128 0x49
 11958 0120 13        		.uleb128 0x13
 11959 0121 38        		.uleb128 0x38
 11960 0122 0A        		.uleb128 0xa
 11961 0123 00        		.byte	0x0
 11962 0124 00        		.byte	0x0
 11963 0125 16        		.uleb128 0x16
 11964 0126 2E        		.uleb128 0x2e
 11965 0127 01        		.byte	0x1
 11966 0128 3F        		.uleb128 0x3f
 11967 0129 0C        		.uleb128 0xc
 11968 012a 03        		.uleb128 0x3
 11969 012b 0E        		.uleb128 0xe
 11970 012c 3A        		.uleb128 0x3a
 11971 012d 0B        		.uleb128 0xb
 11972 012e 3B        		.uleb128 0x3b
 11973 012f 05        		.uleb128 0x5
 11974 0130 27        		.uleb128 0x27
 11975 0131 0C        		.uleb128 0xc
 11976 0132 20        		.uleb128 0x20
 11977 0133 0B        		.uleb128 0xb
 11978 0134 01        		.uleb128 0x1
 11979 0135 13        		.uleb128 0x13
 11980 0136 00        		.byte	0x0
 11981 0137 00        		.byte	0x0
 11982 0138 17        		.uleb128 0x17
 11983 0139 05        		.uleb128 0x5
 11984 013a 00        		.byte	0x0
 11985 013b 03        		.uleb128 0x3
 11986 013c 08        		.uleb128 0x8
 11987 013d 3A        		.uleb128 0x3a
 11988 013e 0B        		.uleb128 0xb
 11989 013f 3B        		.uleb128 0x3b
 11990 0140 05        		.uleb128 0x5
 11991 0141 49        		.uleb128 0x49
 11992 0142 13        		.uleb128 0x13
 11993 0143 00        		.byte	0x0
 11994 0144 00        		.byte	0x0
 11995 0145 18        		.uleb128 0x18
 11996 0146 34        		.uleb128 0x34
 11997 0147 00        		.byte	0x0
 11998 0148 03        		.uleb128 0x3
 11999 0149 08        		.uleb128 0x8
 12000 014a 3A        		.uleb128 0x3a
 12001 014b 0B        		.uleb128 0xb
 12002 014c 3B        		.uleb128 0x3b
 12003 014d 05        		.uleb128 0x5
 12004 014e 49        		.uleb128 0x49
 12005 014f 13        		.uleb128 0x13
 12006 0150 00        		.byte	0x0
 12007 0151 00        		.byte	0x0
 12008 0152 19        		.uleb128 0x19
 12009 0153 2E        		.uleb128 0x2e
 12010 0154 01        		.byte	0x1
GAS LISTING /tmp/ccvQL2RB.s 			page 213


 12011 0155 3F        		.uleb128 0x3f
 12012 0156 0C        		.uleb128 0xc
 12013 0157 03        		.uleb128 0x3
 12014 0158 0E        		.uleb128 0xe
 12015 0159 3A        		.uleb128 0x3a
 12016 015a 0B        		.uleb128 0xb
 12017 015b 3B        		.uleb128 0x3b
 12018 015c 05        		.uleb128 0x5
 12019 015d 49        		.uleb128 0x49
 12020 015e 13        		.uleb128 0x13
 12021 015f 20        		.uleb128 0x20
 12022 0160 0B        		.uleb128 0xb
 12023 0161 01        		.uleb128 0x1
 12024 0162 13        		.uleb128 0x13
 12025 0163 00        		.byte	0x0
 12026 0164 00        		.byte	0x0
 12027 0165 1A        		.uleb128 0x1a
 12028 0166 0F        		.uleb128 0xf
 12029 0167 00        		.byte	0x0
 12030 0168 0B        		.uleb128 0xb
 12031 0169 0B        		.uleb128 0xb
 12032 016a 49        		.uleb128 0x49
 12033 016b 13        		.uleb128 0x13
 12034 016c 00        		.byte	0x0
 12035 016d 00        		.byte	0x0
 12036 016e 1B        		.uleb128 0x1b
 12037 016f 26        		.uleb128 0x26
 12038 0170 00        		.byte	0x0
 12039 0171 49        		.uleb128 0x49
 12040 0172 13        		.uleb128 0x13
 12041 0173 00        		.byte	0x0
 12042 0174 00        		.byte	0x0
 12043 0175 1C        		.uleb128 0x1c
 12044 0176 2E        		.uleb128 0x2e
 12045 0177 01        		.byte	0x1
 12046 0178 3F        		.uleb128 0x3f
 12047 0179 0C        		.uleb128 0xc
 12048 017a 03        		.uleb128 0x3
 12049 017b 0E        		.uleb128 0xe
 12050 017c 3A        		.uleb128 0x3a
 12051 017d 0B        		.uleb128 0xb
 12052 017e 3B        		.uleb128 0x3b
 12053 017f 05        		.uleb128 0x5
 12054 0180 20        		.uleb128 0x20
 12055 0181 0B        		.uleb128 0xb
 12056 0182 01        		.uleb128 0x1
 12057 0183 13        		.uleb128 0x13
 12058 0184 00        		.byte	0x0
 12059 0185 00        		.byte	0x0
 12060 0186 1D        		.uleb128 0x1d
 12061 0187 2E        		.uleb128 0x2e
 12062 0188 00        		.byte	0x0
 12063 0189 3F        		.uleb128 0x3f
 12064 018a 0C        		.uleb128 0xc
 12065 018b 03        		.uleb128 0x3
 12066 018c 0E        		.uleb128 0xe
 12067 018d 3A        		.uleb128 0x3a
GAS LISTING /tmp/ccvQL2RB.s 			page 214


 12068 018e 0B        		.uleb128 0xb
 12069 018f 3B        		.uleb128 0x3b
 12070 0190 05        		.uleb128 0x5
 12071 0191 20        		.uleb128 0x20
 12072 0192 0B        		.uleb128 0xb
 12073 0193 00        		.byte	0x0
 12074 0194 00        		.byte	0x0
 12075 0195 1E        		.uleb128 0x1e
 12076 0196 2E        		.uleb128 0x2e
 12077 0197 00        		.byte	0x0
 12078 0198 3F        		.uleb128 0x3f
 12079 0199 0C        		.uleb128 0xc
 12080 019a 03        		.uleb128 0x3
 12081 019b 0E        		.uleb128 0xe
 12082 019c 3A        		.uleb128 0x3a
 12083 019d 0B        		.uleb128 0xb
 12084 019e 3B        		.uleb128 0x3b
 12085 019f 05        		.uleb128 0x5
 12086 01a0 27        		.uleb128 0x27
 12087 01a1 0C        		.uleb128 0xc
 12088 01a2 11        		.uleb128 0x11
 12089 01a3 01        		.uleb128 0x1
 12090 01a4 12        		.uleb128 0x12
 12091 01a5 01        		.uleb128 0x1
 12092 01a6 40        		.uleb128 0x40
 12093 01a7 0A        		.uleb128 0xa
 12094 01a8 00        		.byte	0x0
 12095 01a9 00        		.byte	0x0
 12096 01aa 1F        		.uleb128 0x1f
 12097 01ab 2E        		.uleb128 0x2e
 12098 01ac 00        		.byte	0x0
 12099 01ad 3F        		.uleb128 0x3f
 12100 01ae 0C        		.uleb128 0xc
 12101 01af 03        		.uleb128 0x3
 12102 01b0 0E        		.uleb128 0xe
 12103 01b1 3A        		.uleb128 0x3a
 12104 01b2 0B        		.uleb128 0xb
 12105 01b3 3B        		.uleb128 0x3b
 12106 01b4 05        		.uleb128 0x5
 12107 01b5 27        		.uleb128 0x27
 12108 01b6 0C        		.uleb128 0xc
 12109 01b7 11        		.uleb128 0x11
 12110 01b8 01        		.uleb128 0x1
 12111 01b9 12        		.uleb128 0x12
 12112 01ba 01        		.uleb128 0x1
 12113 01bb 40        		.uleb128 0x40
 12114 01bc 06        		.uleb128 0x6
 12115 01bd 00        		.byte	0x0
 12116 01be 00        		.byte	0x0
 12117 01bf 20        		.uleb128 0x20
 12118 01c0 2E        		.uleb128 0x2e
 12119 01c1 01        		.byte	0x1
 12120 01c2 31        		.uleb128 0x31
 12121 01c3 13        		.uleb128 0x13
 12122 01c4 11        		.uleb128 0x11
 12123 01c5 01        		.uleb128 0x1
 12124 01c6 12        		.uleb128 0x12
GAS LISTING /tmp/ccvQL2RB.s 			page 215


 12125 01c7 01        		.uleb128 0x1
 12126 01c8 40        		.uleb128 0x40
 12127 01c9 0A        		.uleb128 0xa
 12128 01ca 01        		.uleb128 0x1
 12129 01cb 13        		.uleb128 0x13
 12130 01cc 00        		.byte	0x0
 12131 01cd 00        		.byte	0x0
 12132 01ce 21        		.uleb128 0x21
 12133 01cf 05        		.uleb128 0x5
 12134 01d0 00        		.byte	0x0
 12135 01d1 31        		.uleb128 0x31
 12136 01d2 13        		.uleb128 0x13
 12137 01d3 02        		.uleb128 0x2
 12138 01d4 06        		.uleb128 0x6
 12139 01d5 00        		.byte	0x0
 12140 01d6 00        		.byte	0x0
 12141 01d7 22        		.uleb128 0x22
 12142 01d8 34        		.uleb128 0x34
 12143 01d9 00        		.byte	0x0
 12144 01da 31        		.uleb128 0x31
 12145 01db 13        		.uleb128 0x13
 12146 01dc 00        		.byte	0x0
 12147 01dd 00        		.byte	0x0
 12148 01de 23        		.uleb128 0x23
 12149 01df 2E        		.uleb128 0x2e
 12150 01e0 00        		.byte	0x0
 12151 01e1 31        		.uleb128 0x31
 12152 01e2 13        		.uleb128 0x13
 12153 01e3 11        		.uleb128 0x11
 12154 01e4 01        		.uleb128 0x1
 12155 01e5 12        		.uleb128 0x12
 12156 01e6 01        		.uleb128 0x1
 12157 01e7 40        		.uleb128 0x40
 12158 01e8 0A        		.uleb128 0xa
 12159 01e9 00        		.byte	0x0
 12160 01ea 00        		.byte	0x0
 12161 01eb 24        		.uleb128 0x24
 12162 01ec 34        		.uleb128 0x34
 12163 01ed 00        		.byte	0x0
 12164 01ee 31        		.uleb128 0x31
 12165 01ef 13        		.uleb128 0x13
 12166 01f0 02        		.uleb128 0x2
 12167 01f1 06        		.uleb128 0x6
 12168 01f2 00        		.byte	0x0
 12169 01f3 00        		.byte	0x0
 12170 01f4 25        		.uleb128 0x25
 12171 01f5 2E        		.uleb128 0x2e
 12172 01f6 01        		.byte	0x1
 12173 01f7 3F        		.uleb128 0x3f
 12174 01f8 0C        		.uleb128 0xc
 12175 01f9 03        		.uleb128 0x3
 12176 01fa 0E        		.uleb128 0xe
 12177 01fb 3A        		.uleb128 0x3a
 12178 01fc 0B        		.uleb128 0xb
 12179 01fd 3B        		.uleb128 0x3b
 12180 01fe 05        		.uleb128 0x5
 12181 01ff 11        		.uleb128 0x11
GAS LISTING /tmp/ccvQL2RB.s 			page 216


 12182 0200 01        		.uleb128 0x1
 12183 0201 12        		.uleb128 0x12
 12184 0202 01        		.uleb128 0x1
 12185 0203 40        		.uleb128 0x40
 12186 0204 06        		.uleb128 0x6
 12187 0205 01        		.uleb128 0x1
 12188 0206 13        		.uleb128 0x13
 12189 0207 00        		.byte	0x0
 12190 0208 00        		.byte	0x0
 12191 0209 26        		.uleb128 0x26
 12192 020a 34        		.uleb128 0x34
 12193 020b 00        		.byte	0x0
 12194 020c 03        		.uleb128 0x3
 12195 020d 08        		.uleb128 0x8
 12196 020e 3A        		.uleb128 0x3a
 12197 020f 0B        		.uleb128 0xb
 12198 0210 3B        		.uleb128 0x3b
 12199 0211 05        		.uleb128 0x5
 12200 0212 49        		.uleb128 0x49
 12201 0213 13        		.uleb128 0x13
 12202 0214 02        		.uleb128 0x2
 12203 0215 06        		.uleb128 0x6
 12204 0216 00        		.byte	0x0
 12205 0217 00        		.byte	0x0
 12206 0218 27        		.uleb128 0x27
 12207 0219 1D        		.uleb128 0x1d
 12208 021a 01        		.byte	0x1
 12209 021b 31        		.uleb128 0x31
 12210 021c 13        		.uleb128 0x13
 12211 021d 11        		.uleb128 0x11
 12212 021e 01        		.uleb128 0x1
 12213 021f 12        		.uleb128 0x12
 12214 0220 01        		.uleb128 0x1
 12215 0221 58        		.uleb128 0x58
 12216 0222 0B        		.uleb128 0xb
 12217 0223 59        		.uleb128 0x59
 12218 0224 05        		.uleb128 0x5
 12219 0225 01        		.uleb128 0x1
 12220 0226 13        		.uleb128 0x13
 12221 0227 00        		.byte	0x0
 12222 0228 00        		.byte	0x0
 12223 0229 28        		.uleb128 0x28
 12224 022a 05        		.uleb128 0x5
 12225 022b 00        		.byte	0x0
 12226 022c 31        		.uleb128 0x31
 12227 022d 13        		.uleb128 0x13
 12228 022e 00        		.byte	0x0
 12229 022f 00        		.byte	0x0
 12230 0230 29        		.uleb128 0x29
 12231 0231 0B        		.uleb128 0xb
 12232 0232 01        		.byte	0x1
 12233 0233 11        		.uleb128 0x11
 12234 0234 01        		.uleb128 0x1
 12235 0235 12        		.uleb128 0x12
 12236 0236 01        		.uleb128 0x1
 12237 0237 00        		.byte	0x0
 12238 0238 00        		.byte	0x0
GAS LISTING /tmp/ccvQL2RB.s 			page 217


 12239 0239 2A        		.uleb128 0x2a
 12240 023a 1D        		.uleb128 0x1d
 12241 023b 01        		.byte	0x1
 12242 023c 31        		.uleb128 0x31
 12243 023d 13        		.uleb128 0x13
 12244 023e 11        		.uleb128 0x11
 12245 023f 01        		.uleb128 0x1
 12246 0240 12        		.uleb128 0x12
 12247 0241 01        		.uleb128 0x1
 12248 0242 58        		.uleb128 0x58
 12249 0243 0B        		.uleb128 0xb
 12250 0244 59        		.uleb128 0x59
 12251 0245 05        		.uleb128 0x5
 12252 0246 00        		.byte	0x0
 12253 0247 00        		.byte	0x0
 12254 0248 2B        		.uleb128 0x2b
 12255 0249 1D        		.uleb128 0x1d
 12256 024a 01        		.byte	0x1
 12257 024b 31        		.uleb128 0x31
 12258 024c 13        		.uleb128 0x13
 12259 024d 52        		.uleb128 0x52
 12260 024e 01        		.uleb128 0x1
 12261 024f 55        		.uleb128 0x55
 12262 0250 06        		.uleb128 0x6
 12263 0251 58        		.uleb128 0x58
 12264 0252 0B        		.uleb128 0xb
 12265 0253 59        		.uleb128 0x59
 12266 0254 05        		.uleb128 0x5
 12267 0255 01        		.uleb128 0x1
 12268 0256 13        		.uleb128 0x13
 12269 0257 00        		.byte	0x0
 12270 0258 00        		.byte	0x0
 12271 0259 2C        		.uleb128 0x2c
 12272 025a 0B        		.uleb128 0xb
 12273 025b 01        		.byte	0x1
 12274 025c 55        		.uleb128 0x55
 12275 025d 06        		.uleb128 0x6
 12276 025e 00        		.byte	0x0
 12277 025f 00        		.byte	0x0
 12278 0260 2D        		.uleb128 0x2d
 12279 0261 2E        		.uleb128 0x2e
 12280 0262 01        		.byte	0x1
 12281 0263 31        		.uleb128 0x31
 12282 0264 13        		.uleb128 0x13
 12283 0265 11        		.uleb128 0x11
 12284 0266 01        		.uleb128 0x1
 12285 0267 12        		.uleb128 0x12
 12286 0268 01        		.uleb128 0x1
 12287 0269 40        		.uleb128 0x40
 12288 026a 06        		.uleb128 0x6
 12289 026b 01        		.uleb128 0x1
 12290 026c 13        		.uleb128 0x13
 12291 026d 00        		.byte	0x0
 12292 026e 00        		.byte	0x0
 12293 026f 2E        		.uleb128 0x2e
 12294 0270 05        		.uleb128 0x5
 12295 0271 00        		.byte	0x0
GAS LISTING /tmp/ccvQL2RB.s 			page 218


 12296 0272 31        		.uleb128 0x31
 12297 0273 13        		.uleb128 0x13
 12298 0274 02        		.uleb128 0x2
 12299 0275 0A        		.uleb128 0xa
 12300 0276 00        		.byte	0x0
 12301 0277 00        		.byte	0x0
 12302 0278 2F        		.uleb128 0x2f
 12303 0279 2E        		.uleb128 0x2e
 12304 027a 01        		.byte	0x1
 12305 027b 3F        		.uleb128 0x3f
 12306 027c 0C        		.uleb128 0xc
 12307 027d 03        		.uleb128 0x3
 12308 027e 08        		.uleb128 0x8
 12309 027f 3A        		.uleb128 0x3a
 12310 0280 0B        		.uleb128 0xb
 12311 0281 3B        		.uleb128 0x3b
 12312 0282 05        		.uleb128 0x5
 12313 0283 27        		.uleb128 0x27
 12314 0284 0C        		.uleb128 0xc
 12315 0285 49        		.uleb128 0x49
 12316 0286 13        		.uleb128 0x13
 12317 0287 11        		.uleb128 0x11
 12318 0288 01        		.uleb128 0x1
 12319 0289 12        		.uleb128 0x12
 12320 028a 01        		.uleb128 0x1
 12321 028b 40        		.uleb128 0x40
 12322 028c 06        		.uleb128 0x6
 12323 028d 01        		.uleb128 0x1
 12324 028e 13        		.uleb128 0x13
 12325 028f 00        		.byte	0x0
 12326 0290 00        		.byte	0x0
 12327 0291 30        		.uleb128 0x30
 12328 0292 05        		.uleb128 0x5
 12329 0293 00        		.byte	0x0
 12330 0294 03        		.uleb128 0x3
 12331 0295 08        		.uleb128 0x8
 12332 0296 3A        		.uleb128 0x3a
 12333 0297 0B        		.uleb128 0xb
 12334 0298 3B        		.uleb128 0x3b
 12335 0299 05        		.uleb128 0x5
 12336 029a 49        		.uleb128 0x49
 12337 029b 13        		.uleb128 0x13
 12338 029c 02        		.uleb128 0x2
 12339 029d 06        		.uleb128 0x6
 12340 029e 00        		.byte	0x0
 12341 029f 00        		.byte	0x0
 12342 02a0 31        		.uleb128 0x31
 12343 02a1 05        		.uleb128 0x5
 12344 02a2 00        		.byte	0x0
 12345 02a3 03        		.uleb128 0x3
 12346 02a4 08        		.uleb128 0x8
 12347 02a5 3A        		.uleb128 0x3a
 12348 02a6 0B        		.uleb128 0xb
 12349 02a7 3B        		.uleb128 0x3b
 12350 02a8 05        		.uleb128 0x5
 12351 02a9 49        		.uleb128 0x49
 12352 02aa 13        		.uleb128 0x13
GAS LISTING /tmp/ccvQL2RB.s 			page 219


 12353 02ab 02        		.uleb128 0x2
 12354 02ac 0A        		.uleb128 0xa
 12355 02ad 00        		.byte	0x0
 12356 02ae 00        		.byte	0x0
 12357 02af 32        		.uleb128 0x32
 12358 02b0 34        		.uleb128 0x34
 12359 02b1 00        		.byte	0x0
 12360 02b2 31        		.uleb128 0x31
 12361 02b3 13        		.uleb128 0x13
 12362 02b4 02        		.uleb128 0x2
 12363 02b5 0A        		.uleb128 0xa
 12364 02b6 00        		.byte	0x0
 12365 02b7 00        		.byte	0x0
 12366 02b8 33        		.uleb128 0x33
 12367 02b9 2E        		.uleb128 0x2e
 12368 02ba 01        		.byte	0x1
 12369 02bb 3F        		.uleb128 0x3f
 12370 02bc 0C        		.uleb128 0xc
 12371 02bd 03        		.uleb128 0x3
 12372 02be 0E        		.uleb128 0xe
 12373 02bf 3A        		.uleb128 0x3a
 12374 02c0 0B        		.uleb128 0xb
 12375 02c1 3B        		.uleb128 0x3b
 12376 02c2 05        		.uleb128 0x5
 12377 02c3 27        		.uleb128 0x27
 12378 02c4 0C        		.uleb128 0xc
 12379 02c5 49        		.uleb128 0x49
 12380 02c6 13        		.uleb128 0x13
 12381 02c7 11        		.uleb128 0x11
 12382 02c8 01        		.uleb128 0x1
 12383 02c9 12        		.uleb128 0x12
 12384 02ca 01        		.uleb128 0x1
 12385 02cb 40        		.uleb128 0x40
 12386 02cc 06        		.uleb128 0x6
 12387 02cd 01        		.uleb128 0x1
 12388 02ce 13        		.uleb128 0x13
 12389 02cf 00        		.byte	0x0
 12390 02d0 00        		.byte	0x0
 12391 02d1 34        		.uleb128 0x34
 12392 02d2 2E        		.uleb128 0x2e
 12393 02d3 01        		.byte	0x1
 12394 02d4 3F        		.uleb128 0x3f
 12395 02d5 0C        		.uleb128 0xc
 12396 02d6 03        		.uleb128 0x3
 12397 02d7 0E        		.uleb128 0xe
 12398 02d8 3A        		.uleb128 0x3a
 12399 02d9 0B        		.uleb128 0xb
 12400 02da 3B        		.uleb128 0x3b
 12401 02db 05        		.uleb128 0x5
 12402 02dc 27        		.uleb128 0x27
 12403 02dd 0C        		.uleb128 0xc
 12404 02de 11        		.uleb128 0x11
 12405 02df 01        		.uleb128 0x1
 12406 02e0 12        		.uleb128 0x12
 12407 02e1 01        		.uleb128 0x1
 12408 02e2 40        		.uleb128 0x40
 12409 02e3 0A        		.uleb128 0xa
GAS LISTING /tmp/ccvQL2RB.s 			page 220


 12410 02e4 01        		.uleb128 0x1
 12411 02e5 13        		.uleb128 0x13
 12412 02e6 00        		.byte	0x0
 12413 02e7 00        		.byte	0x0
 12414 02e8 35        		.uleb128 0x35
 12415 02e9 34        		.uleb128 0x34
 12416 02ea 00        		.byte	0x0
 12417 02eb 03        		.uleb128 0x3
 12418 02ec 0E        		.uleb128 0xe
 12419 02ed 3A        		.uleb128 0x3a
 12420 02ee 0B        		.uleb128 0xb
 12421 02ef 3B        		.uleb128 0x3b
 12422 02f0 05        		.uleb128 0x5
 12423 02f1 49        		.uleb128 0x49
 12424 02f2 13        		.uleb128 0x13
 12425 02f3 02        		.uleb128 0x2
 12426 02f4 06        		.uleb128 0x6
 12427 02f5 00        		.byte	0x0
 12428 02f6 00        		.byte	0x0
 12429 02f7 36        		.uleb128 0x36
 12430 02f8 2E        		.uleb128 0x2e
 12431 02f9 01        		.byte	0x1
 12432 02fa 3F        		.uleb128 0x3f
 12433 02fb 0C        		.uleb128 0xc
 12434 02fc 03        		.uleb128 0x3
 12435 02fd 0E        		.uleb128 0xe
 12436 02fe 3A        		.uleb128 0x3a
 12437 02ff 0B        		.uleb128 0xb
 12438 0300 3B        		.uleb128 0x3b
 12439 0301 05        		.uleb128 0x5
 12440 0302 27        		.uleb128 0x27
 12441 0303 0C        		.uleb128 0xc
 12442 0304 11        		.uleb128 0x11
 12443 0305 01        		.uleb128 0x1
 12444 0306 12        		.uleb128 0x12
 12445 0307 01        		.uleb128 0x1
 12446 0308 40        		.uleb128 0x40
 12447 0309 06        		.uleb128 0x6
 12448 030a 01        		.uleb128 0x1
 12449 030b 13        		.uleb128 0x13
 12450 030c 00        		.byte	0x0
 12451 030d 00        		.byte	0x0
 12452 030e 37        		.uleb128 0x37
 12453 030f 34        		.uleb128 0x34
 12454 0310 00        		.byte	0x0
 12455 0311 03        		.uleb128 0x3
 12456 0312 08        		.uleb128 0x8
 12457 0313 3A        		.uleb128 0x3a
 12458 0314 0B        		.uleb128 0xb
 12459 0315 3B        		.uleb128 0x3b
 12460 0316 05        		.uleb128 0x5
 12461 0317 49        		.uleb128 0x49
 12462 0318 13        		.uleb128 0x13
 12463 0319 02        		.uleb128 0x2
 12464 031a 0A        		.uleb128 0xa
 12465 031b 00        		.byte	0x0
 12466 031c 00        		.byte	0x0
GAS LISTING /tmp/ccvQL2RB.s 			page 221


 12467 031d 38        		.uleb128 0x38
 12468 031e 2E        		.uleb128 0x2e
 12469 031f 01        		.byte	0x1
 12470 0320 3F        		.uleb128 0x3f
 12471 0321 0C        		.uleb128 0xc
 12472 0322 03        		.uleb128 0x3
 12473 0323 0E        		.uleb128 0xe
 12474 0324 3A        		.uleb128 0x3a
 12475 0325 0B        		.uleb128 0xb
 12476 0326 3B        		.uleb128 0x3b
 12477 0327 05        		.uleb128 0x5
 12478 0328 11        		.uleb128 0x11
 12479 0329 01        		.uleb128 0x1
 12480 032a 12        		.uleb128 0x12
 12481 032b 01        		.uleb128 0x1
 12482 032c 40        		.uleb128 0x40
 12483 032d 0A        		.uleb128 0xa
 12484 032e 01        		.uleb128 0x1
 12485 032f 13        		.uleb128 0x13
 12486 0330 00        		.byte	0x0
 12487 0331 00        		.byte	0x0
 12488 0332 39        		.uleb128 0x39
 12489 0333 2E        		.uleb128 0x2e
 12490 0334 01        		.byte	0x1
 12491 0335 3F        		.uleb128 0x3f
 12492 0336 0C        		.uleb128 0xc
 12493 0337 03        		.uleb128 0x3
 12494 0338 0E        		.uleb128 0xe
 12495 0339 3A        		.uleb128 0x3a
 12496 033a 0B        		.uleb128 0xb
 12497 033b 3B        		.uleb128 0x3b
 12498 033c 05        		.uleb128 0x5
 12499 033d 27        		.uleb128 0x27
 12500 033e 0C        		.uleb128 0xc
 12501 033f 49        		.uleb128 0x49
 12502 0340 13        		.uleb128 0x13
 12503 0341 11        		.uleb128 0x11
 12504 0342 01        		.uleb128 0x1
 12505 0343 12        		.uleb128 0x12
 12506 0344 01        		.uleb128 0x1
 12507 0345 40        		.uleb128 0x40
 12508 0346 0A        		.uleb128 0xa
 12509 0347 01        		.uleb128 0x1
 12510 0348 13        		.uleb128 0x13
 12511 0349 00        		.byte	0x0
 12512 034a 00        		.byte	0x0
 12513 034b 3A        		.uleb128 0x3a
 12514 034c 1D        		.uleb128 0x1d
 12515 034d 00        		.byte	0x0
 12516 034e 31        		.uleb128 0x31
 12517 034f 13        		.uleb128 0x13
 12518 0350 11        		.uleb128 0x11
 12519 0351 01        		.uleb128 0x1
 12520 0352 12        		.uleb128 0x12
 12521 0353 01        		.uleb128 0x1
 12522 0354 58        		.uleb128 0x58
 12523 0355 0B        		.uleb128 0xb
GAS LISTING /tmp/ccvQL2RB.s 			page 222


 12524 0356 59        		.uleb128 0x59
 12525 0357 05        		.uleb128 0x5
 12526 0358 00        		.byte	0x0
 12527 0359 00        		.byte	0x0
 12528 035a 3B        		.uleb128 0x3b
 12529 035b 34        		.uleb128 0x34
 12530 035c 00        		.byte	0x0
 12531 035d 03        		.uleb128 0x3
 12532 035e 0E        		.uleb128 0xe
 12533 035f 3A        		.uleb128 0x3a
 12534 0360 0B        		.uleb128 0xb
 12535 0361 3B        		.uleb128 0x3b
 12536 0362 0B        		.uleb128 0xb
 12537 0363 8740      		.uleb128 0x2007
 12538 0365 0E        		.uleb128 0xe
 12539 0366 49        		.uleb128 0x49
 12540 0367 13        		.uleb128 0x13
 12541 0368 3F        		.uleb128 0x3f
 12542 0369 0C        		.uleb128 0xc
 12543 036a 02        		.uleb128 0x2
 12544 036b 0A        		.uleb128 0xa
 12545 036c 00        		.byte	0x0
 12546 036d 00        		.byte	0x0
 12547 036e 3C        		.uleb128 0x3c
 12548 036f 34        		.uleb128 0x34
 12549 0370 00        		.byte	0x0
 12550 0371 03        		.uleb128 0x3
 12551 0372 0E        		.uleb128 0xe
 12552 0373 3A        		.uleb128 0x3a
 12553 0374 0B        		.uleb128 0xb
 12554 0375 3B        		.uleb128 0x3b
 12555 0376 05        		.uleb128 0x5
 12556 0377 8740      		.uleb128 0x2007
 12557 0379 0E        		.uleb128 0xe
 12558 037a 49        		.uleb128 0x49
 12559 037b 13        		.uleb128 0x13
 12560 037c 3F        		.uleb128 0x3f
 12561 037d 0C        		.uleb128 0xc
 12562 037e 02        		.uleb128 0x2
 12563 037f 0A        		.uleb128 0xa
 12564 0380 00        		.byte	0x0
 12565 0381 00        		.byte	0x0
 12566 0382 3D        		.uleb128 0x3d
 12567 0383 34        		.uleb128 0x34
 12568 0384 00        		.byte	0x0
 12569 0385 03        		.uleb128 0x3
 12570 0386 08        		.uleb128 0x8
 12571 0387 3A        		.uleb128 0x3a
 12572 0388 0B        		.uleb128 0xb
 12573 0389 3B        		.uleb128 0x3b
 12574 038a 0B        		.uleb128 0xb
 12575 038b 8740      		.uleb128 0x2007
 12576 038d 0E        		.uleb128 0xe
 12577 038e 49        		.uleb128 0x49
 12578 038f 13        		.uleb128 0x13
 12579 0390 3F        		.uleb128 0x3f
 12580 0391 0C        		.uleb128 0xc
GAS LISTING /tmp/ccvQL2RB.s 			page 223


 12581 0392 02        		.uleb128 0x2
 12582 0393 0A        		.uleb128 0xa
 12583 0394 00        		.byte	0x0
 12584 0395 00        		.byte	0x0
 12585 0396 3E        		.uleb128 0x3e
 12586 0397 21        		.uleb128 0x21
 12587 0398 00        		.byte	0x0
 12588 0399 49        		.uleb128 0x49
 12589 039a 13        		.uleb128 0x13
 12590 039b 2F        		.uleb128 0x2f
 12591 039c 05        		.uleb128 0x5
 12592 039d 00        		.byte	0x0
 12593 039e 00        		.byte	0x0
 12594 039f 3F        		.uleb128 0x3f
 12595 03a0 34        		.uleb128 0x34
 12596 03a1 00        		.byte	0x0
 12597 03a2 03        		.uleb128 0x3
 12598 03a3 0E        		.uleb128 0xe
 12599 03a4 3A        		.uleb128 0x3a
 12600 03a5 0B        		.uleb128 0xb
 12601 03a6 3B        		.uleb128 0x3b
 12602 03a7 0B        		.uleb128 0xb
 12603 03a8 49        		.uleb128 0x49
 12604 03a9 13        		.uleb128 0x13
 12605 03aa 3F        		.uleb128 0x3f
 12606 03ab 0C        		.uleb128 0xc
 12607 03ac 02        		.uleb128 0x2
 12608 03ad 0A        		.uleb128 0xa
 12609 03ae 00        		.byte	0x0
 12610 03af 00        		.byte	0x0
 12611 03b0 40        		.uleb128 0x40
 12612 03b1 34        		.uleb128 0x34
 12613 03b2 00        		.byte	0x0
 12614 03b3 03        		.uleb128 0x3
 12615 03b4 0E        		.uleb128 0xe
 12616 03b5 3A        		.uleb128 0x3a
 12617 03b6 0B        		.uleb128 0xb
 12618 03b7 3B        		.uleb128 0x3b
 12619 03b8 05        		.uleb128 0x5
 12620 03b9 49        		.uleb128 0x49
 12621 03ba 13        		.uleb128 0x13
 12622 03bb 3F        		.uleb128 0x3f
 12623 03bc 0C        		.uleb128 0xc
 12624 03bd 02        		.uleb128 0x2
 12625 03be 0A        		.uleb128 0xa
 12626 03bf 00        		.byte	0x0
 12627 03c0 00        		.byte	0x0
 12628 03c1 41        		.uleb128 0x41
 12629 03c2 0F        		.uleb128 0xf
 12630 03c3 00        		.byte	0x0
 12631 03c4 0B        		.uleb128 0xb
 12632 03c5 0B        		.uleb128 0xb
 12633 03c6 00        		.byte	0x0
 12634 03c7 00        		.byte	0x0
 12635 03c8 00        		.byte	0x0
 12636               		.section	.debug_pubnames,"",@progbits
 12637 0000 3208 0000 		.4byte	0x832
GAS LISTING /tmp/ccvQL2RB.s 			page 224


 12638 0004 0200      		.2byte	0x2
 12639 0006 0000 0000 		.4byte	.Ldebug_info0
 12640 000a FD22 0000 		.4byte	0x22fd
 12641 000e 5D05 0000 		.4byte	0x55d
 12642 0012 5F72 6573 		.string	"_reset_vector__"
 12642      6574 5F76 
 12642      6563 746F 
 12642      725F 5F00 
 12643 0022 6E05 0000 		.4byte	0x56e
 12644 0026 6A75 6E6B 		.string	"junkInterrupt"
 12644      496E 7465 
 12644      7272 7570 
 12644      7400 
 12645 0034 7F05 0000 		.4byte	0x57f
 12646 0038 6164 6349 		.string	"adcInterrupt"
 12646      6E74 6572 
 12646      7275 7074 
 12646      00
 12647 0045 9005 0000 		.4byte	0x590
 12648 0049 7469 6D65 		.string	"timerInterrupt"
 12648      7249 6E74 
 12648      6572 7275 
 12648      7074 00
 12649 0058 A205 0000 		.4byte	0x5a2
 12650 005c 656D 6974 		.string	"emit"
 12650      00
 12651 0061 C105 0000 		.4byte	0x5c1
 12652 0065 6765 744B 		.string	"getKey"
 12652      6579 00
 12653 006c D705 0000 		.4byte	0x5d7
 12654 0070 696E 6974 		.string	"initVars"
 12654      5661 7273 
 12654      00
 12655 0079 E305 0000 		.4byte	0x5e3
 12656 007d 6765 744B 		.string	"getKeyB"
 12656      6579 4200 
 12657 0085 FD05 0000 		.4byte	0x5fd
 12658 0089 6765 744C 		.string	"getLine"
 12658      696E 6500 
 12659 0091 4507 0000 		.4byte	0x745
 12660 0095 6765 7457 		.string	"getWord"
 12660      6F72 6400 
 12661 009d 0108 0000 		.4byte	0x801
 12662 00a1 7072 696E 		.string	"printString"
 12662      7453 7472 
 12662      696E 6700 
 12663 00ad 3708 0000 		.4byte	0x837
 12664 00b1 7363 00   		.string	"sc"
 12665 00b4 7F08 0000 		.4byte	0x87f
 12666 00b8 6C69 7374 		.string	"listFunction"
 12666      4675 6E63 
 12666      7469 6F6E 
 12666      00
 12667 00c5 3409 0000 		.4byte	0x934
 12668 00c9 706F 704D 		.string	"popMathStack"
 12668      6174 6853 
 12668      7461 636B 
GAS LISTING /tmp/ccvQL2RB.s 			page 225


 12668      00
 12669 00d6 5109 0000 		.4byte	0x951
 12670 00da 7075 7368 		.string	"pushMathStack"
 12670      4D61 7468 
 12670      5374 6163 
 12670      6B00 
 12671 00e8 6E09 0000 		.4byte	0x96e
 12672 00ec 706F 7041 		.string	"popAddrStack"
 12672      6464 7253 
 12672      7461 636B 
 12672      00
 12673 00f9 8409 0000 		.4byte	0x984
 12674 00fd 7075 7368 		.string	"pushAddrStack"
 12674      4164 6472 
 12674      5374 6163 
 12674      6B00 
 12675 010b 9C09 0000 		.4byte	0x99c
 12676 010f 6C6F 6F6B 		.string	"lookupToken"
 12676      7570 546F 
 12676      6B65 6E00 
 12677 011b 090A 0000 		.4byte	0xa09
 12678 011f 6C75 4675 		.string	"luFunc"
 12678      6E63 00
 12679 0126 120B 0000 		.4byte	0xb12
 12680 012a 6E75 6D46 		.string	"numFunc"
 12680      756E 6300 
 12681 0132 900B 0000 		.4byte	0xb90
 12682 0136 6966 4675 		.string	"ifFunc"
 12682      6E63 00
 12683 013d EF0B 0000 		.4byte	0xbef
 12684 0141 7075 7368 		.string	"pushnFunc"
 12684      6E46 756E 
 12684      6300 
 12685 014b 260C 0000 		.4byte	0xc26
 12686 014f 6F76 6572 		.string	"overFunc"
 12686      4675 6E63 
 12686      00
 12687 0158 5B0C 0000 		.4byte	0xc5b
 12688 015c 6466 6E46 		.string	"dfnFunc"
 12688      756E 6300 
 12689 0164 7F0C 0000 		.4byte	0xc7f
 12690 0168 7072 696E 		.string	"printNumber"
 12690      744E 756D 
 12690      6265 7200 
 12691 0174 480D 0000 		.4byte	0xd48
 12692 0178 7072 696E 		.string	"printHexChar"
 12692      7448 6578 
 12692      4368 6172 
 12692      00
 12693 0185 7F0D 0000 		.4byte	0xd7f
 12694 0189 7072 696E 		.string	"printHexByte"
 12694      7448 6578 
 12694      4279 7465 
 12694      00
 12695 0196 0C0E 0000 		.4byte	0xe0c
 12696 019a 7072 696E 		.string	"printHexWord"
 12696      7448 6578 
GAS LISTING /tmp/ccvQL2RB.s 			page 226


 12696      576F 7264 
 12696      00
 12697 01a7 310E 0000 		.4byte	0xe31
 12698 01ab 6578 6563 		.string	"execN"
 12698      4E00 
 12699 01b1 C017 0000 		.4byte	0x17c0
 12700 01b5 6578 6563 		.string	"execFunc"
 12700      4675 6E63 
 12700      00
 12701 01be 2E18 0000 		.4byte	0x182e
 12702 01c2 7072 6F63 		.string	"processLoop"
 12702      6573 734C 
 12702      6F6F 7000 
 12703 01ce 6618 0000 		.4byte	0x1866
 12704 01d2 6D61 696E 		.string	"main"
 12704      00
 12705 01d7 B318 0000 		.4byte	0x18b3
 12706 01db 5F75 6E65 		.string	"_unexpected_"
 12706      7870 6563 
 12706      7465 645F 
 12706      00
 12707 01e8 C418 0000 		.4byte	0x18c4
 12708 01ec 4443 4F43 		.string	"DCOCTL"
 12708      544C 00
 12709 01f3 D818 0000 		.4byte	0x18d8
 12710 01f7 4243 5343 		.string	"BCSCTL1"
 12710      544C 3100 
 12711 01ff EC18 0000 		.4byte	0x18ec
 12712 0203 4243 5343 		.string	"BCSCTL2"
 12712      544C 3200 
 12713 020b 0019 0000 		.4byte	0x1900
 12714 020f 4243 5343 		.string	"BCSCTL3"
 12714      544C 3300 
 12715 0217 1419 0000 		.4byte	0x1914
 12716 021b 4643 544C 		.string	"FCTL1"
 12716      3100 
 12717 0221 2819 0000 		.4byte	0x1928
 12718 0225 4643 544C 		.string	"FCTL2"
 12718      3200 
 12719 022b 3C19 0000 		.4byte	0x193c
 12720 022f 4643 544C 		.string	"FCTL3"
 12720      3300 
 12721 0235 5019 0000 		.4byte	0x1950
 12722 0239 4550 4354 		.string	"EPCTL"
 12722      4C00 
 12723 023f 6419 0000 		.4byte	0x1964
 12724 0243 5441 3049 		.string	"TA0IV"
 12724      5600 
 12725 0249 7819 0000 		.4byte	0x1978
 12726 024d 5441 3043 		.string	"TA0CTL"
 12726      544C 00
 12727 0254 8C19 0000 		.4byte	0x198c
 12728 0258 5441 3052 		.string	"TA0R"
 12728      00
 12729 025d A019 0000 		.4byte	0x19a0
 12730 0261 5441 3043 		.string	"TA0CCTL0"
 12730      4354 4C30 
GAS LISTING /tmp/ccvQL2RB.s 			page 227


 12730      00
 12731 026a B419 0000 		.4byte	0x19b4
 12732 026e 5441 3043 		.string	"TA0CCTL1"
 12732      4354 4C31 
 12732      00
 12733 0277 C819 0000 		.4byte	0x19c8
 12734 027b 5441 3043 		.string	"TA0CCR0"
 12734      4352 3000 
 12735 0283 DC19 0000 		.4byte	0x19dc
 12736 0287 5441 3043 		.string	"TA0CCR1"
 12736      4352 3100 
 12737 028f F019 0000 		.4byte	0x19f0
 12738 0293 7469 6D65 		.string	"timera"
 12738      7261 00
 12739 029a 051A 0000 		.4byte	0x1a05
 12740 029e 706F 7274 		.string	"port1"
 12740      3100 
 12741 02a4 191A 0000 		.4byte	0x1a19
 12742 02a8 706F 7274 		.string	"port2"
 12742      3200 
 12743 02ae 2D1A 0000 		.4byte	0x1a2d
 12744 02b2 5031 494E 		.string	"P1IN"
 12744      00
 12745 02b7 411A 0000 		.4byte	0x1a41
 12746 02bb 5031 4F55 		.string	"P1OUT"
 12746      5400 
 12747 02c1 551A 0000 		.4byte	0x1a55
 12748 02c5 5031 4449 		.string	"P1DIR"
 12748      5200 
 12749 02cb 691A 0000 		.4byte	0x1a69
 12750 02cf 5031 4946 		.string	"P1IFG"
 12750      4700 
 12751 02d5 7D1A 0000 		.4byte	0x1a7d
 12752 02d9 5031 4945 		.string	"P1IES"
 12752      5300 
 12753 02df 911A 0000 		.4byte	0x1a91
 12754 02e3 5031 4945 		.string	"P1IE"
 12754      00
 12755 02e8 A51A 0000 		.4byte	0x1aa5
 12756 02ec 5031 5345 		.string	"P1SEL"
 12756      4C00 
 12757 02f2 B91A 0000 		.4byte	0x1ab9
 12758 02f6 5031 5245 		.string	"P1REN"
 12758      4E00 
 12759 02fc CD1A 0000 		.4byte	0x1acd
 12760 0300 5032 494E 		.string	"P2IN"
 12760      00
 12761 0305 E11A 0000 		.4byte	0x1ae1
 12762 0309 5032 4F55 		.string	"P2OUT"
 12762      5400 
 12763 030f F51A 0000 		.4byte	0x1af5
 12764 0313 5032 4449 		.string	"P2DIR"
 12764      5200 
 12765 0319 091B 0000 		.4byte	0x1b09
 12766 031d 5032 4946 		.string	"P2IFG"
 12766      4700 
 12767 0323 1D1B 0000 		.4byte	0x1b1d
GAS LISTING /tmp/ccvQL2RB.s 			page 228


 12768 0327 5032 4945 		.string	"P2IES"
 12768      5300 
 12769 032d 311B 0000 		.4byte	0x1b31
 12770 0331 5032 4945 		.string	"P2IE"
 12770      00
 12771 0336 451B 0000 		.4byte	0x1b45
 12772 033a 5032 5345 		.string	"P2SEL"
 12772      4C00 
 12773 0340 591B 0000 		.4byte	0x1b59
 12774 0344 5032 5245 		.string	"P2REN"
 12774      4E00 
 12775 034a 6D1B 0000 		.4byte	0x1b6d
 12776 034e 5344 3136 		.string	"SD16CTL"
 12776      4354 4C00 
 12777 0356 811B 0000 		.4byte	0x1b81
 12778 035a 5344 3136 		.string	"SD16IV"
 12778      4956 00
 12779 0361 951B 0000 		.4byte	0x1b95
 12780 0365 5344 3136 		.string	"SD16AE"
 12780      4145 00
 12781 036c A91B 0000 		.4byte	0x1ba9
 12782 0370 5344 3136 		.string	"SD16INCTL0"
 12782      494E 4354 
 12782      4C30 00
 12783 037b BD1B 0000 		.4byte	0x1bbd
 12784 037f 5344 3136 		.string	"SD16PRE0"
 12784      5052 4530 
 12784      00
 12785 0388 D11B 0000 		.4byte	0x1bd1
 12786 038c 5344 3136 		.string	"SD16CCTL0"
 12786      4343 544C 
 12786      3000 
 12787 0396 E51B 0000 		.4byte	0x1be5
 12788 039a 5344 3136 		.string	"SD16MEM0"
 12788      4D45 4D30 
 12788      00
 12789 03a3 F91B 0000 		.4byte	0x1bf9
 12790 03a7 5344 3136 		.string	"SD16INCTL1"
 12790      494E 4354 
 12790      4C31 00
 12791 03b2 0D1C 0000 		.4byte	0x1c0d
 12792 03b6 5344 3136 		.string	"SD16PRE1"
 12792      5052 4531 
 12792      00
 12793 03bf 211C 0000 		.4byte	0x1c21
 12794 03c3 5344 3136 		.string	"SD16CCTL1"
 12794      4343 544C 
 12794      3100 
 12795 03cd 351C 0000 		.4byte	0x1c35
 12796 03d1 5344 3136 		.string	"SD16MEM1"
 12796      4D45 4D31 
 12796      00
 12797 03da 491C 0000 		.4byte	0x1c49
 12798 03de 5553 4943 		.string	"USICTL0"
 12798      544C 3000 
 12799 03e6 5D1C 0000 		.4byte	0x1c5d
 12800 03ea 5553 4943 		.string	"USICTL1"
GAS LISTING /tmp/ccvQL2RB.s 			page 229


 12800      544C 3100 
 12801 03f2 711C 0000 		.4byte	0x1c71
 12802 03f6 5553 4943 		.string	"USICKCTL"
 12802      4B43 544C 
 12802      00
 12803 03ff 851C 0000 		.4byte	0x1c85
 12804 0403 5553 4943 		.string	"USICNT"
 12804      4E54 00
 12805 040a 991C 0000 		.4byte	0x1c99
 12806 040e 5553 4953 		.string	"USISRL"
 12806      524C 00
 12807 0415 AD1C 0000 		.4byte	0x1cad
 12808 0419 5553 4953 		.string	"USISRH"
 12808      5248 00
 12809 0420 C11C 0000 		.4byte	0x1cc1
 12810 0424 5553 4943 		.string	"USICTL"
 12810      544C 00
 12811 042b D51C 0000 		.4byte	0x1cd5
 12812 042f 5553 4943 		.string	"USICCTL"
 12812      4354 4C00 
 12813 0437 E91C 0000 		.4byte	0x1ce9
 12814 043b 5553 4953 		.string	"USISR"
 12814      5200 
 12815 0441 FD1C 0000 		.4byte	0x1cfd
 12816 0445 5744 5443 		.string	"WDTCTL"
 12816      544C 00
 12817 044c 111D 0000 		.4byte	0x1d11
 12818 0450 4945 3100 		.string	"IE1"
 12819 0454 251D 0000 		.4byte	0x1d25
 12820 0458 4946 4731 		.string	"IFG1"
 12820      00
 12821 045d 391D 0000 		.4byte	0x1d39
 12822 0461 4341 4C44 		.string	"CALDCO_16MHZ"
 12822      434F 5F31 
 12822      364D 485A 
 12822      00
 12823 046e 4D1D 0000 		.4byte	0x1d4d
 12824 0472 4341 4C42 		.string	"CALBC1_16MHZ"
 12824      4331 5F31 
 12824      364D 485A 
 12824      00
 12825 047f 611D 0000 		.4byte	0x1d61
 12826 0483 4341 4C44 		.string	"CALDCO_12MHZ"
 12826      434F 5F31 
 12826      324D 485A 
 12826      00
 12827 0490 751D 0000 		.4byte	0x1d75
 12828 0494 4341 4C42 		.string	"CALBC1_12MHZ"
 12828      4331 5F31 
 12828      324D 485A 
 12828      00
 12829 04a1 891D 0000 		.4byte	0x1d89
 12830 04a5 4341 4C44 		.string	"CALDCO_8MHZ"
 12830      434F 5F38 
 12830      4D48 5A00 
 12831 04b1 9D1D 0000 		.4byte	0x1d9d
 12832 04b5 4341 4C42 		.string	"CALBC1_8MHZ"
GAS LISTING /tmp/ccvQL2RB.s 			page 230


 12832      4331 5F38 
 12832      4D48 5A00 
 12833 04c1 B11D 0000 		.4byte	0x1db1
 12834 04c5 4341 4C44 		.string	"CALDCO_1MHZ"
 12834      434F 5F31 
 12834      4D48 5A00 
 12835 04d1 C51D 0000 		.4byte	0x1dc5
 12836 04d5 4341 4C42 		.string	"CALBC1_1MHZ"
 12836      4331 5F31 
 12836      4D48 5A00 
 12837 04e1 D91D 0000 		.4byte	0x1dd9
 12838 04e5 5041 4453 		.string	"PADSR"
 12838      5200 
 12839 04eb ED1D 0000 		.4byte	0x1ded
 12840 04ef 5041 4449 		.string	"PADIR"
 12840      5200 
 12841 04f5 011E 0000 		.4byte	0x1e01
 12842 04f9 5041 4F55 		.string	"PAOUT"
 12842      5400 
 12843 04ff 151E 0000 		.4byte	0x1e15
 12844 0503 5041 5045 		.string	"PAPER"
 12844      5200 
 12845 0509 291E 0000 		.4byte	0x1e29
 12846 050d 5042 4453 		.string	"PBDSR"
 12846      5200 
 12847 0513 3D1E 0000 		.4byte	0x1e3d
 12848 0517 5042 4449 		.string	"PBDIR"
 12848      5200 
 12849 051d 511E 0000 		.4byte	0x1e51
 12850 0521 5042 4F55 		.string	"PBOUT"
 12850      5400 
 12851 0527 651E 0000 		.4byte	0x1e65
 12852 052b 5042 4945 		.string	"PBIER"
 12852      5200 
 12853 0531 791E 0000 		.4byte	0x1e79
 12854 0535 5350 495F 		.string	"SPI_SCR"
 12854      5343 5200 
 12855 053d 8D1E 0000 		.4byte	0x1e8d
 12856 0541 5350 495F 		.string	"SPI_RDR"
 12856      5244 5200 
 12857 0549 A11E 0000 		.4byte	0x1ea1
 12858 054d 5350 495F 		.string	"SPI_TDR"
 12858      5444 5200 
 12859 0555 B51E 0000 		.4byte	0x1eb5
 12860 0559 5350 495F 		.string	"SPI_SR"
 12860      5352 00
 12861 0560 C91E 0000 		.4byte	0x1ec9
 12862 0564 544D 5230 		.string	"TMR0_TCR"
 12862      5F54 4352 
 12862      00
 12863 056d DD1E 0000 		.4byte	0x1edd
 12864 0571 544D 5230 		.string	"TMR0_SR"
 12864      5F53 5200 
 12865 0579 F11E 0000 		.4byte	0x1ef1
 12866 057d 544D 5230 		.string	"TMR0_CNT"
 12866      5F43 4E54 
 12866      00
GAS LISTING /tmp/ccvQL2RB.s 			page 231


 12867 0586 051F 0000 		.4byte	0x1f05
 12868 058a 544D 5230 		.string	"TMR0_RA"
 12868      5F52 4100 
 12869 0592 191F 0000 		.4byte	0x1f19
 12870 0596 544D 5230 		.string	"TMR0_RB"
 12870      5F52 4200 
 12871 059e 2D1F 0000 		.4byte	0x1f2d
 12872 05a2 544D 5230 		.string	"TMR0_RC"
 12872      5F52 4300 
 12873 05aa 521F 0000 		.4byte	0x1f52
 12874 05ae 636D 644C 		.string	"cmdListBi"
 12874      6973 7442 
 12874      6900 
 12875 05b8 771F 0000 		.4byte	0x1f77
 12876 05bc 636D 644C 		.string	"cmdListBi2"
 12876      6973 7442 
 12876      6932 00
 12877 05c7 9C1F 0000 		.4byte	0x1f9c
 12878 05cb 636D 644C 		.string	"cmdList2N"
 12878      6973 7432 
 12878      4E00 
 12879 05d5 C11F 0000 		.4byte	0x1fc1
 12880 05d9 6D61 7468 		.string	"mathStack"
 12880      5374 6163 
 12880      6B00 
 12881 05e3 E11F 0000 		.4byte	0x1fe1
 12882 05e7 6164 6472 		.string	"addrStack"
 12882      5374 6163 
 12882      6B00 
 12883 05f1 F11F 0000 		.4byte	0x1ff1
 12884 05f5 6164 6472 		.string	"addrStackPtr"
 12884      5374 6163 
 12884      6B50 7472 
 12884      00
 12885 0602 1120 0000 		.4byte	0x2011
 12886 0606 7072 6F67 		.string	"prog"
 12886      00
 12887 060b 2120 0000 		.4byte	0x2021
 12888 060f 7072 6F67 		.string	"progPtr"
 12888      5074 7200 
 12889 0617 3120 0000 		.4byte	0x2031
 12890 061b 7072 6F67 		.string	"progOps"
 12890      4F70 7300 
 12891 0623 4120 0000 		.4byte	0x2041
 12892 0627 7072 6F67 		.string	"progOpsPtr"
 12892      4F70 7350 
 12892      7472 00
 12893 0632 6120 0000 		.4byte	0x2061
 12894 0636 636D 644C 		.string	"cmdList"
 12894      6973 7400 
 12895 063e 7120 0000 		.4byte	0x2071
 12896 0642 636D 644C 		.string	"cmdListPtr"
 12896      6973 7450 
 12896      7472 00
 12897 064d 8120 0000 		.4byte	0x2081
 12898 0651 7375 6253 		.string	"subSecondClock"
 12898      6563 6F6E 
GAS LISTING /tmp/ccvQL2RB.s 			page 232


 12898      6443 6C6F 
 12898      636B 00
 12899 0660 9120 0000 		.4byte	0x2091
 12900 0664 6661 7374 		.string	"fastTimer"
 12900      5469 6D65 
 12900      7200 
 12901 066e A120 0000 		.4byte	0x20a1
 12902 0672 736C 6F77 		.string	"slowTimer"
 12902      5469 6D65 
 12902      7200 
 12903 067c B120 0000 		.4byte	0x20b1
 12904 0680 6469 724D 		.string	"dirMemory"
 12904      656D 6F72 
 12904      7900 
 12905 068a D820 0000 		.4byte	0x20d8
 12906 068e 6275 636B 		.string	"buckets"
 12906      6574 7300 
 12907 0696 F820 0000 		.4byte	0x20f8
 12908 069a 7072 6F67 		.string	"progBi"
 12908      4269 00
 12909 06a1 0D21 0000 		.4byte	0x210d
 12910 06a5 7072 6F67 		.string	"progCounter"
 12910      436F 756E 
 12910      7465 7200 
 12911 06b1 1E21 0000 		.4byte	0x211e
 12912 06b5 6C69 6E65 		.string	"lineBuffer"
 12912      4275 6666 
 12912      6572 00
 12913 06c0 2F21 0000 		.4byte	0x212f
 12914 06c4 6C69 6E65 		.string	"lineBufferPtr"
 12914      4275 6666 
 12914      6572 5074 
 12914      7200 
 12915 06d2 5021 0000 		.4byte	0x2150
 12916 06d6 776F 7264 		.string	"wordBuffer"
 12916      4275 6666 
 12916      6572 00
 12917 06e1 6121 0000 		.4byte	0x2161
 12918 06e5 6F75 7470 		.string	"outputCharN"
 12918      7574 4368 
 12918      6172 4E00 
 12919 06f1 7721 0000 		.4byte	0x2177
 12920 06f5 6F75 7470 		.string	"outputCharCntrN"
 12920      7574 4368 
 12920      6172 436E 
 12920      7472 4E00 
 12921 0705 8821 0000 		.4byte	0x2188
 12922 0709 6F75 7470 		.string	"outputChar"
 12922      7574 4368 
 12922      6172 00
 12923 0714 9921 0000 		.4byte	0x2199
 12924 0718 6F75 7470 		.string	"outputCharCntr"
 12924      7574 4368 
 12924      6172 436E 
 12924      7472 00
 12925 0727 AA21 0000 		.4byte	0x21aa
 12926 072b 636C 6963 		.string	"clicks"
GAS LISTING /tmp/ccvQL2RB.s 			page 233


 12926      6B73 00
 12927 0732 CB21 0000 		.4byte	0x21cb
 12928 0736 6F75 7470 		.string	"outputRing"
 12928      7574 5269 
 12928      6E67 00
 12929 0741 DC21 0000 		.4byte	0x21dc
 12930 0745 6F75 7470 		.string	"outputRingPtrXin"
 12930      7574 5269 
 12930      6E67 5074 
 12930      7258 696E 
 12930      00
 12931 0756 ED21 0000 		.4byte	0x21ed
 12932 075a 6F75 7470 		.string	"outputRingPtrXout"
 12932      7574 5269 
 12932      6E67 5074 
 12932      7258 6F75 
 12932      7400 
 12933 076c FE21 0000 		.4byte	0x21fe
 12934 0770 696E 7075 		.string	"inputChar"
 12934      7443 6861 
 12934      7200 
 12935 077a 0F22 0000 		.4byte	0x220f
 12936 077e 696E 7075 		.string	"inputCharX"
 12936      7443 6861 
 12936      7258 00
 12937 0789 2022 0000 		.4byte	0x2220
 12938 078d 696E 7075 		.string	"inputCharCntr"
 12938      7443 6861 
 12938      7243 6E74 
 12938      7200 
 12939 079b 3122 0000 		.4byte	0x2231
 12940 079f 696E 7075 		.string	"inputCharBit"
 12940      7443 6861 
 12940      7242 6974 
 12940      00
 12941 07ac 5222 0000 		.4byte	0x2252
 12942 07b0 696E 7075 		.string	"inputRing"
 12942      7452 696E 
 12942      6700 
 12943 07ba 6322 0000 		.4byte	0x2263
 12944 07be 696E 7075 		.string	"inputRingPtrXin"
 12944      7452 696E 
 12944      6750 7472 
 12944      5869 6E00 
 12945 07ce 7422 0000 		.4byte	0x2274
 12946 07d2 696E 7075 		.string	"inputRingPtrXout"
 12946      7452 696E 
 12946      6750 7472 
 12946      586F 7574 
 12946      00
 12947 07e3 8522 0000 		.4byte	0x2285
 12948 07e7 696E 7075 		.string	"inputBuf"
 12948      7442 7566 
 12948      00
 12949 07f0 9622 0000 		.4byte	0x2296
 12950 07f4 696E 7075 		.string	"inputBufPtr"
 12950      7442 7566 
GAS LISTING /tmp/ccvQL2RB.s 			page 234


 12950      5074 7200 
 12951 0800 B722 0000 		.4byte	0x22b7
 12952 0804 6665 6353 		.string	"fecShadow"
 12952      6861 646F 
 12952      7700 
 12953 080e C822 0000 		.4byte	0x22c8
 12954 0812 6164 5F69 		.string	"ad_int_tmp"
 12954      6E74 5F74 
 12954      6D70 00
 12955 081d EB22 0000 		.4byte	0x22eb
 12956 0821 496E 7465 		.string	"InterruptVectors"
 12956      7272 7570 
 12956      7456 6563 
 12956      746F 7273 
 12956      00
 12957 0832 0000 0000 		.4byte	0x0
 12958               		.section	.debug_aranges,"",@progbits
 12959 0000 1000 0000 		.4byte	0x10
 12960 0004 0200      		.2byte	0x2
 12961 0006 0000 0000 		.4byte	.Ldebug_info0
 12962 000a 02        		.byte	0x2
 12963 000b 00        		.byte	0x0
 12964 000c 0000      		.2byte	.Ltext0
 12965 000e EC1A      		.2byte	.Letext0-.Ltext0
 12966 0010 0000      		.2byte	0x0
 12967 0012 0000      		.2byte	0x0
 12968               		.section	.debug_ranges,"",@progbits
 12969               	.Ldebug_ranges0:
 12970 0000 7804      		.2byte	.LBB268-.Ltext0
 12971 0002 8004      		.2byte	.LBE268-.Ltext0
 12972 0004 8404      		.2byte	.LBB271-.Ltext0
 12973 0006 8A04      		.2byte	.LBE271-.Ltext0
 12974 0008 0000      		.2byte	0x0
 12975 000a 0000      		.2byte	0x0
 12976 000c 7804      		.2byte	.LBB269-.Ltext0
 12977 000e 8004      		.2byte	.LBE269-.Ltext0
 12978 0010 8404      		.2byte	.LBB270-.Ltext0
 12979 0012 8A04      		.2byte	.LBE270-.Ltext0
 12980 0014 0000      		.2byte	0x0
 12981 0016 0000      		.2byte	0x0
 12982 0018 8E07      		.2byte	.LBB292-.Ltext0
 12983 001a 9207      		.2byte	.LBE292-.Ltext0
 12984 001c FE07      		.2byte	.LBB301-.Ltext0
 12985 001e 0E08      		.2byte	.LBE301-.Ltext0
 12986 0020 0000      		.2byte	0x0
 12987 0022 0000      		.2byte	0x0
 12988 0024 8E07      		.2byte	.LBB293-.Ltext0
 12989 0026 9207      		.2byte	.LBE293-.Ltext0
 12990 0028 FE07      		.2byte	.LBB294-.Ltext0
 12991 002a 0E08      		.2byte	.LBE294-.Ltext0
 12992 002c 0000      		.2byte	0x0
 12993 002e 0000      		.2byte	0x0
 12994 0030 460A      		.2byte	.LBB314-.Ltext0
 12995 0032 500A      		.2byte	.LBE314-.Ltext0
 12996 0034 E00A      		.2byte	.LBB321-.Ltext0
 12997 0036 1A0B      		.2byte	.LBE321-.Ltext0
 12998 0038 0000      		.2byte	0x0
GAS LISTING /tmp/ccvQL2RB.s 			page 235


 12999 003a 0000      		.2byte	0x0
 13000 003c 460A      		.2byte	.LBB315-.Ltext0
 13001 003e 500A      		.2byte	.LBE315-.Ltext0
 13002 0040 E00A      		.2byte	.LBB316-.Ltext0
 13003 0042 1A0B      		.2byte	.LBE316-.Ltext0
 13004 0044 0000      		.2byte	0x0
 13005 0046 0000      		.2byte	0x0
 13006 0048 660D      		.2byte	.LBB340-.Ltext0
 13007 004a 940D      		.2byte	.LBE340-.Ltext0
 13008 004c 2A17      		.2byte	.LBB499-.Ltext0
 13009 004e 3617      		.2byte	.LBE499-.Ltext0
 13010 0050 0000      		.2byte	0x0
 13011 0052 0000      		.2byte	0x0
 13012 0054 660D      		.2byte	.LBB341-.Ltext0
 13013 0056 940D      		.2byte	.LBE341-.Ltext0
 13014 0058 2A17      		.2byte	.LBB344-.Ltext0
 13015 005a 3617      		.2byte	.LBE344-.Ltext0
 13016 005c 0000      		.2byte	0x0
 13017 005e 0000      		.2byte	0x0
 13018 0060 940D      		.2byte	.LBB345-.Ltext0
 13019 0062 980D      		.2byte	.LBE345-.Ltext0
 13020 0064 4813      		.2byte	.LBB448-.Ltext0
 13021 0066 5013      		.2byte	.LBE448-.Ltext0
 13022 0068 1412      		.2byte	.LBB417-.Ltext0
 13023 006a 2812      		.2byte	.LBE417-.Ltext0
 13024 006c BC11      		.2byte	.LBB414-.Ltext0
 13025 006e C411      		.2byte	.LBE414-.Ltext0
 13026 0070 D810      		.2byte	.LBB393-.Ltext0
 13027 0072 E010      		.2byte	.LBE393-.Ltext0
 13028 0074 6A10      		.2byte	.LBB384-.Ltext0
 13029 0076 7210      		.2byte	.LBE384-.Ltext0
 13030 0078 0000      		.2byte	0x0
 13031 007a 0000      		.2byte	0x0
 13032 007c 940D      		.2byte	.LBB348-.Ltext0
 13033 007e 980D      		.2byte	.LBE348-.Ltext0
 13034 0080 4813      		.2byte	.LBB351-.Ltext0
 13035 0082 5013      		.2byte	.LBE351-.Ltext0
 13036 0084 1412      		.2byte	.LBB346-.Ltext0
 13037 0086 2812      		.2byte	.LBE346-.Ltext0
 13038 0088 BC11      		.2byte	.LBB350-.Ltext0
 13039 008a C411      		.2byte	.LBE350-.Ltext0
 13040 008c D810      		.2byte	.LBB347-.Ltext0
 13041 008e E010      		.2byte	.LBE347-.Ltext0
 13042 0090 6A10      		.2byte	.LBB349-.Ltext0
 13043 0092 7210      		.2byte	.LBE349-.Ltext0
 13044 0094 0000      		.2byte	0x0
 13045 0096 0000      		.2byte	0x0
 13046 0098 B20D      		.2byte	.LBB352-.Ltext0
 13047 009a C20D      		.2byte	.LBE352-.Ltext0
 13048 009c C416      		.2byte	.LBB492-.Ltext0
 13049 009e CC16      		.2byte	.LBE492-.Ltext0
 13050 00a0 7E15      		.2byte	.LBB475-.Ltext0
 13051 00a2 8615      		.2byte	.LBE475-.Ltext0
 13052 00a4 0000      		.2byte	0x0
 13053 00a6 0000      		.2byte	0x0
 13054 00a8 B20D      		.2byte	.LBB354-.Ltext0
 13055 00aa C20D      		.2byte	.LBE354-.Ltext0
GAS LISTING /tmp/ccvQL2RB.s 			page 236


 13056 00ac C416      		.2byte	.LBB355-.Ltext0
 13057 00ae CC16      		.2byte	.LBE355-.Ltext0
 13058 00b0 7E15      		.2byte	.LBB353-.Ltext0
 13059 00b2 8615      		.2byte	.LBE353-.Ltext0
 13060 00b4 0000      		.2byte	0x0
 13061 00b6 0000      		.2byte	0x0
 13062 00b8 3A11      		.2byte	.LBB400-.Ltext0
 13063 00ba 4611      		.2byte	.LBE400-.Ltext0
 13064 00bc 4A11      		.2byte	.LBB405-.Ltext0
 13065 00be 9011      		.2byte	.LBE405-.Ltext0
 13066 00c0 0000      		.2byte	0x0
 13067 00c2 0000      		.2byte	0x0
 13068 00c4 9411      		.2byte	.LBB406-.Ltext0
 13069 00c6 A411      		.2byte	.LBE406-.Ltext0
 13070 00c8 1017      		.2byte	.LBB498-.Ltext0
 13071 00ca 1817      		.2byte	.LBE498-.Ltext0
 13072 00cc EA16      		.2byte	.LBB495-.Ltext0
 13073 00ce F216      		.2byte	.LBE495-.Ltext0
 13074 00d0 0000      		.2byte	0x0
 13075 00d2 0000      		.2byte	0x0
 13076 00d4 9411      		.2byte	.LBB408-.Ltext0
 13077 00d6 A411      		.2byte	.LBE408-.Ltext0
 13078 00d8 1017      		.2byte	.LBB409-.Ltext0
 13079 00da 1817      		.2byte	.LBE409-.Ltext0
 13080 00dc EA16      		.2byte	.LBB407-.Ltext0
 13081 00de F216      		.2byte	.LBE407-.Ltext0
 13082 00e0 0000      		.2byte	0x0
 13083 00e2 0000      		.2byte	0x0
 13084               		.section	.debug_line
 13085 0000 4818 0000 		.4byte	.LELT0-.LSLT0
 13086               	.LSLT0:
 13087 0004 0200      		.2byte	0x2
 13088 0006 5201 0000 		.4byte	.LELTP0-.LASLTP0
 13089               	.LASLTP0:
 13090 000a 01        		.byte	0x1
 13091 000b 01        		.byte	0x1
 13092 000c F6        		.byte	0xf6
 13093 000d F5        		.byte	0xf5
 13094 000e 0A        		.byte	0xa
 13095 000f 00        		.byte	0x0
 13096 0010 01        		.byte	0x1
 13097 0011 01        		.byte	0x1
 13098 0012 01        		.byte	0x1
 13099 0013 01        		.byte	0x1
 13100 0014 00        		.byte	0x0
 13101 0015 00        		.byte	0x0
 13102 0016 00        		.byte	0x0
 13103 0017 01        		.byte	0x1
 13104 0018 2F75 7372 		.ascii	"/usr/lib/gcc/msp430/4.4.2/../../../../msp430/include"
 13104      2F6C 6962 
 13104      2F67 6363 
 13104      2F6D 7370 
 13104      3433 302F 
 13105 004c 00        		.byte	0
 13106 004d 2F75 7372 		.ascii	"/usr/lib/gcc/msp430/4.4.2/../../../../msp430/include/msp430"
 13106      2F6C 6962 
 13106      2F67 6363 
GAS LISTING /tmp/ccvQL2RB.s 			page 237


 13106      2F6D 7370 
 13106      3433 302F 
 13107 0088 00        		.byte	0
 13108 0089 2F75 7372 		.ascii	"/usr/lib/gcc/msp430/4.4.2/../../../../msp430/include/sys"
 13108      2F6C 6962 
 13108      2F67 6363 
 13108      2F6D 7370 
 13108      3433 302F 
 13109 00c1 00        		.byte	0
 13110 00c2 00        		.byte	0x0
 13111 00c3 782E 6300 		.string	"x.c"
 13112 00c7 00        		.uleb128 0x0
 13113 00c8 00        		.uleb128 0x0
 13114 00c9 00        		.uleb128 0x0
 13115 00ca 7379 732F 		.string	"sys/inttypes.h"
 13115      696E 7474 
 13115      7970 6573 
 13115      2E68 00
 13116 00d9 01        		.uleb128 0x1
 13117 00da 00        		.uleb128 0x0
 13118 00db 00        		.uleb128 0x0
 13119 00dc 7469 6D65 		.string	"timera.h"
 13119      7261 2E68 
 13119      00
 13120 00e5 02        		.uleb128 0x2
 13121 00e6 00        		.uleb128 0x0
 13122 00e7 00        		.uleb128 0x0
 13123 00e8 696F 7374 		.string	"iostructures.h"
 13123      7275 6374 
 13123      7572 6573 
 13123      2E68 00
 13124 00f7 02        		.uleb128 0x2
 13125 00f8 00        		.uleb128 0x0
 13126 00f9 00        		.uleb128 0x0
 13127 00fa 6261 7369 		.string	"basic_clock.h"
 13127      635F 636C 
 13127      6F63 6B2E 
 13127      6800 
 13128 0108 02        		.uleb128 0x2
 13129 0109 00        		.uleb128 0x0
 13130 010a 00        		.uleb128 0x0
 13131 010b 666C 6173 		.string	"flash.h"
 13131      682E 6800 
 13132 0113 02        		.uleb128 0x2
 13133 0114 00        		.uleb128 0x0
 13134 0115 00        		.uleb128 0x0
 13135 0116 6570 726F 		.string	"eprom.h"
 13135      6D2E 6800 
 13136 011e 02        		.uleb128 0x2
 13137 011f 00        		.uleb128 0x0
 13138 0120 00        		.uleb128 0x0
 13139 0121 6770 696F 		.string	"gpio.h"
 13139      2E68 00
 13140 0128 02        		.uleb128 0x2
 13141 0129 00        		.uleb128 0x0
 13142 012a 00        		.uleb128 0x0
 13143 012b 7364 3136 		.string	"sd16.h"
GAS LISTING /tmp/ccvQL2RB.s 			page 238


 13143      2E68 00
 13144 0132 02        		.uleb128 0x2
 13145 0133 00        		.uleb128 0x0
 13146 0134 00        		.uleb128 0x0
 13147 0135 7573 692E 		.string	"usi.h"
 13147      6800 
 13148 013b 02        		.uleb128 0x2
 13149 013c 00        		.uleb128 0x0
 13150 013d 00        		.uleb128 0x0
 13151 013e 636F 6D6D 		.string	"common.h"
 13151      6F6E 2E68 
 13151      00
 13152 0147 02        		.uleb128 0x2
 13153 0148 00        		.uleb128 0x0
 13154 0149 00        		.uleb128 0x0
 13155 014a 6D73 7034 		.string	"msp430x20x3.h"
 13155      3330 7832 
 13155      3078 332E 
 13155      6800 
 13156 0158 01        		.uleb128 0x1
 13157 0159 00        		.uleb128 0x0
 13158 015a 00        		.uleb128 0x0
 13159 015b 00        		.byte	0x0
 13160               	.LELTP0:
 13161 015c 00        		.byte	0x0
 13162 015d 03        		.uleb128 0x3
 13163 015e 02        		.byte	0x2
 13164 015f 0000      		.2byte	.LM1
 13165 0161 03        		.byte	0x3
 13166 0162 FE02      		.sleb128 382
 13167 0164 01        		.byte	0x1
 13168 0165 00        		.byte	0x0
 13169 0166 03        		.uleb128 0x3
 13170 0167 02        		.byte	0x2
 13171 0168 0000      		.2byte	.LM2
 13172 016a 15        		.byte	0x15
 13173 016b 00        		.byte	0x0
 13174 016c 03        		.uleb128 0x3
 13175 016d 02        		.byte	0x2
 13176 016e 0000      		.2byte	.LM3
 13177 0170 15        		.byte	0x15
 13178 0171 00        		.byte	0x0
 13179 0172 03        		.uleb128 0x3
 13180 0173 02        		.byte	0x2
 13181 0174 0000      		.2byte	.LM4
 13182 0176 1C        		.byte	0x1c
 13183 0177 00        		.byte	0x0
 13184 0178 03        		.uleb128 0x3
 13185 0179 02        		.byte	0x2
 13186 017a 0000      		.2byte	.LM5
 13187 017c 17        		.byte	0x17
 13188 017d 00        		.byte	0x0
 13189 017e 03        		.uleb128 0x3
 13190 017f 02        		.byte	0x2
 13191 0180 0000      		.2byte	.LM6
 13192 0182 16        		.byte	0x16
 13193 0183 00        		.byte	0x0
GAS LISTING /tmp/ccvQL2RB.s 			page 239


 13194 0184 03        		.uleb128 0x3
 13195 0185 02        		.byte	0x2
 13196 0186 0000      		.2byte	.LM7
 13197 0188 16        		.byte	0x16
 13198 0189 00        		.byte	0x0
 13199 018a 03        		.uleb128 0x3
 13200 018b 02        		.byte	0x2
 13201 018c 0000      		.2byte	.LM8
 13202 018e 17        		.byte	0x17
 13203 018f 00        		.byte	0x0
 13204 0190 03        		.uleb128 0x3
 13205 0191 02        		.byte	0x2
 13206 0192 0000      		.2byte	.LM9
 13207 0194 1B        		.byte	0x1b
 13208 0195 00        		.byte	0x0
 13209 0196 03        		.uleb128 0x3
 13210 0197 02        		.byte	0x2
 13211 0198 0000      		.2byte	.LM10
 13212 019a 16        		.byte	0x16
 13213 019b 00        		.byte	0x0
 13214 019c 03        		.uleb128 0x3
 13215 019d 02        		.byte	0x2
 13216 019e 0000      		.2byte	.LM11
 13217 01a0 16        		.byte	0x16
 13218 01a1 00        		.byte	0x0
 13219 01a2 03        		.uleb128 0x3
 13220 01a3 02        		.byte	0x2
 13221 01a4 0000      		.2byte	.LM12
 13222 01a6 16        		.byte	0x16
 13223 01a7 00        		.byte	0x0
 13224 01a8 03        		.uleb128 0x3
 13225 01a9 02        		.byte	0x2
 13226 01aa 0000      		.2byte	.LM13
 13227 01ac 16        		.byte	0x16
 13228 01ad 00        		.byte	0x0
 13229 01ae 03        		.uleb128 0x3
 13230 01af 02        		.byte	0x2
 13231 01b0 0000      		.2byte	.LM14
 13232 01b2 17        		.byte	0x17
 13233 01b3 00        		.byte	0x0
 13234 01b4 03        		.uleb128 0x3
 13235 01b5 02        		.byte	0x2
 13236 01b6 0000      		.2byte	.LM15
 13237 01b8 15        		.byte	0x15
 13238 01b9 00        		.byte	0x0
 13239 01ba 03        		.uleb128 0x3
 13240 01bb 02        		.byte	0x2
 13241 01bc 0000      		.2byte	.LM16
 13242 01be 15        		.byte	0x15
 13243 01bf 00        		.byte	0x0
 13244 01c0 03        		.uleb128 0x3
 13245 01c1 02        		.byte	0x2
 13246 01c2 0000      		.2byte	.LM17
 13247 01c4 18        		.byte	0x18
 13248 01c5 00        		.byte	0x0
 13249 01c6 03        		.uleb128 0x3
 13250 01c7 02        		.byte	0x2
GAS LISTING /tmp/ccvQL2RB.s 			page 240


 13251 01c8 0000      		.2byte	.LM18
 13252 01ca 15        		.byte	0x15
 13253 01cb 00        		.byte	0x0
 13254 01cc 03        		.uleb128 0x3
 13255 01cd 02        		.byte	0x2
 13256 01ce 0000      		.2byte	.LM19
 13257 01d0 22        		.byte	0x22
 13258 01d1 00        		.byte	0x0
 13259 01d2 03        		.uleb128 0x3
 13260 01d3 02        		.byte	0x2
 13261 01d4 0000      		.2byte	.LM20
 13262 01d6 15        		.byte	0x15
 13263 01d7 00        		.byte	0x0
 13264 01d8 03        		.uleb128 0x3
 13265 01d9 02        		.byte	0x2
 13266 01da 0000      		.2byte	.LM21
 13267 01dc 16        		.byte	0x16
 13268 01dd 00        		.byte	0x0
 13269 01de 03        		.uleb128 0x3
 13270 01df 02        		.byte	0x2
 13271 01e0 0000      		.2byte	.LM22
 13272 01e2 15        		.byte	0x15
 13273 01e3 00        		.byte	0x0
 13274 01e4 03        		.uleb128 0x3
 13275 01e5 02        		.byte	0x2
 13276 01e6 0000      		.2byte	.LM23
 13277 01e8 15        		.byte	0x15
 13278 01e9 00        		.byte	0x0
 13279 01ea 03        		.uleb128 0x3
 13280 01eb 02        		.byte	0x2
 13281 01ec 0000      		.2byte	.LM24
 13282 01ee 15        		.byte	0x15
 13283 01ef 00        		.byte	0x0
 13284 01f0 03        		.uleb128 0x3
 13285 01f1 02        		.byte	0x2
 13286 01f2 0000      		.2byte	.LM25
 13287 01f4 1A        		.byte	0x1a
 13288 01f5 00        		.byte	0x0
 13289 01f6 03        		.uleb128 0x3
 13290 01f7 02        		.byte	0x2
 13291 01f8 0000      		.2byte	.LM26
 13292 01fa 16        		.byte	0x16
 13293 01fb 00        		.byte	0x0
 13294 01fc 03        		.uleb128 0x3
 13295 01fd 02        		.byte	0x2
 13296 01fe 0000      		.2byte	.LM27
 13297 0200 16        		.byte	0x16
 13298 0201 00        		.byte	0x0
 13299 0202 03        		.uleb128 0x3
 13300 0203 02        		.byte	0x2
 13301 0204 0000      		.2byte	.LM28
 13302 0206 15        		.byte	0x15
 13303 0207 00        		.byte	0x0
 13304 0208 03        		.uleb128 0x3
 13305 0209 02        		.byte	0x2
 13306 020a 0000      		.2byte	.LM29
 13307 020c 16        		.byte	0x16
GAS LISTING /tmp/ccvQL2RB.s 			page 241


 13308 020d 00        		.byte	0x0
 13309 020e 03        		.uleb128 0x3
 13310 020f 02        		.byte	0x2
 13311 0210 0000      		.2byte	.LM30
 13312 0212 16        		.byte	0x16
 13313 0213 00        		.byte	0x0
 13314 0214 03        		.uleb128 0x3
 13315 0215 02        		.byte	0x2
 13316 0216 0000      		.2byte	.LM31
 13317 0218 16        		.byte	0x16
 13318 0219 00        		.byte	0x0
 13319 021a 03        		.uleb128 0x3
 13320 021b 02        		.byte	0x2
 13321 021c 0000      		.2byte	.LM32
 13322 021e 15        		.byte	0x15
 13323 021f 00        		.byte	0x0
 13324 0220 03        		.uleb128 0x3
 13325 0221 02        		.byte	0x2
 13326 0222 0000      		.2byte	.LM33
 13327 0224 15        		.byte	0x15
 13328 0225 00        		.byte	0x0
 13329 0226 03        		.uleb128 0x3
 13330 0227 02        		.byte	0x2
 13331 0228 0000      		.2byte	.LM34
 13332 022a 26        		.byte	0x26
 13333 022b 00        		.byte	0x0
 13334 022c 03        		.uleb128 0x3
 13335 022d 02        		.byte	0x2
 13336 022e 0000      		.2byte	.LM35
 13337 0230 03        		.byte	0x3
 13338 0231 75        		.sleb128 -11
 13339 0232 01        		.byte	0x1
 13340 0233 00        		.byte	0x0
 13341 0234 03        		.uleb128 0x3
 13342 0235 02        		.byte	0x2
 13343 0236 0000      		.2byte	.LM36
 13344 0238 16        		.byte	0x16
 13345 0239 00        		.byte	0x0
 13346 023a 03        		.uleb128 0x3
 13347 023b 02        		.byte	0x2
 13348 023c 0000      		.2byte	.LM37
 13349 023e 15        		.byte	0x15
 13350 023f 00        		.byte	0x0
 13351 0240 03        		.uleb128 0x3
 13352 0241 02        		.byte	0x2
 13353 0242 0000      		.2byte	.LM38
 13354 0244 1C        		.byte	0x1c
 13355 0245 00        		.byte	0x0
 13356 0246 03        		.uleb128 0x3
 13357 0247 02        		.byte	0x2
 13358 0248 0000      		.2byte	.LM39
 13359 024a 03        		.byte	0x3
 13360 024b 4A        		.sleb128 -54
 13361 024c 01        		.byte	0x1
 13362 024d 00        		.byte	0x0
 13363 024e 03        		.uleb128 0x3
 13364 024f 02        		.byte	0x2
GAS LISTING /tmp/ccvQL2RB.s 			page 242


 13365 0250 0000      		.2byte	.LM40
 13366 0252 15        		.byte	0x15
 13367 0253 00        		.byte	0x0
 13368 0254 03        		.uleb128 0x3
 13369 0255 02        		.byte	0x2
 13370 0256 0000      		.2byte	.LM41
 13371 0258 15        		.byte	0x15
 13372 0259 00        		.byte	0x0
 13373 025a 03        		.uleb128 0x3
 13374 025b 02        		.byte	0x2
 13375 025c 0000      		.2byte	.LM42
 13376 025e 15        		.byte	0x15
 13377 025f 00        		.byte	0x0
 13378 0260 03        		.uleb128 0x3
 13379 0261 02        		.byte	0x2
 13380 0262 0000      		.2byte	.LM43
 13381 0264 15        		.byte	0x15
 13382 0265 00        		.byte	0x0
 13383 0266 03        		.uleb128 0x3
 13384 0267 02        		.byte	0x2
 13385 0268 0000      		.2byte	.LM44
 13386 026a 15        		.byte	0x15
 13387 026b 00        		.byte	0x0
 13388 026c 03        		.uleb128 0x3
 13389 026d 02        		.byte	0x2
 13390 026e 0000      		.2byte	.LM45
 13391 0270 15        		.byte	0x15
 13392 0271 00        		.byte	0x0
 13393 0272 03        		.uleb128 0x3
 13394 0273 02        		.byte	0x2
 13395 0274 0000      		.2byte	.LM46
 13396 0276 20        		.byte	0x20
 13397 0277 00        		.byte	0x0
 13398 0278 03        		.uleb128 0x3
 13399 0279 02        		.byte	0x2
 13400 027a 0000      		.2byte	.LM47
 13401 027c 03        		.byte	0x3
 13402 027d 68        		.sleb128 -24
 13403 027e 01        		.byte	0x1
 13404 027f 00        		.byte	0x0
 13405 0280 03        		.uleb128 0x3
 13406 0281 02        		.byte	0x2
 13407 0282 0000      		.2byte	.LM48
 13408 0284 5A        		.byte	0x5a
 13409 0285 00        		.byte	0x0
 13410 0286 03        		.uleb128 0x3
 13411 0287 02        		.byte	0x2
 13412 0288 0000      		.2byte	.LM49
 13413 028a 16        		.byte	0x16
 13414 028b 00        		.byte	0x0
 13415 028c 03        		.uleb128 0x3
 13416 028d 02        		.byte	0x2
 13417 028e 0000      		.2byte	.LM50
 13418 0290 16        		.byte	0x16
 13419 0291 00        		.byte	0x0
 13420 0292 03        		.uleb128 0x3
 13421 0293 02        		.byte	0x2
GAS LISTING /tmp/ccvQL2RB.s 			page 243


 13422 0294 0000      		.2byte	.LM51
 13423 0296 15        		.byte	0x15
 13424 0297 00        		.byte	0x0
 13425 0298 03        		.uleb128 0x3
 13426 0299 02        		.byte	0x2
 13427 029a 0000      		.2byte	.LM52
 13428 029c 13        		.byte	0x13
 13429 029d 00        		.byte	0x0
 13430 029e 03        		.uleb128 0x3
 13431 029f 02        		.byte	0x2
 13432 02a0 0000      		.2byte	.LM53
 13433 02a2 17        		.byte	0x17
 13434 02a3 00        		.byte	0x0
 13435 02a4 03        		.uleb128 0x3
 13436 02a5 02        		.byte	0x2
 13437 02a6 0000      		.2byte	.LM54
 13438 02a8 10        		.byte	0x10
 13439 02a9 00        		.byte	0x0
 13440 02aa 03        		.uleb128 0x3
 13441 02ab 02        		.byte	0x2
 13442 02ac 0000      		.2byte	.LM55
 13443 02ae 19        		.byte	0x19
 13444 02af 00        		.byte	0x0
 13445 02b0 03        		.uleb128 0x3
 13446 02b1 02        		.byte	0x2
 13447 02b2 0000      		.2byte	.LM56
 13448 02b4 15        		.byte	0x15
 13449 02b5 00        		.byte	0x0
 13450 02b6 03        		.uleb128 0x3
 13451 02b7 02        		.byte	0x2
 13452 02b8 0000      		.2byte	.LM57
 13453 02ba 17        		.byte	0x17
 13454 02bb 00        		.byte	0x0
 13455 02bc 03        		.uleb128 0x3
 13456 02bd 02        		.byte	0x2
 13457 02be 0000      		.2byte	.LM58
 13458 02c0 18        		.byte	0x18
 13459 02c1 00        		.byte	0x0
 13460 02c2 03        		.uleb128 0x3
 13461 02c3 02        		.byte	0x2
 13462 02c4 0000      		.2byte	.LM59
 13463 02c6 13        		.byte	0x13
 13464 02c7 00        		.byte	0x0
 13465 02c8 03        		.uleb128 0x3
 13466 02c9 02        		.byte	0x2
 13467 02ca 0000      		.2byte	.LM60
 13468 02cc 17        		.byte	0x17
 13469 02cd 00        		.byte	0x0
 13470 02ce 03        		.uleb128 0x3
 13471 02cf 02        		.byte	0x2
 13472 02d0 0000      		.2byte	.LM61
 13473 02d2 15        		.byte	0x15
 13474 02d3 00        		.byte	0x0
 13475 02d4 03        		.uleb128 0x3
 13476 02d5 02        		.byte	0x2
 13477 02d6 0000      		.2byte	.LM62
 13478 02d8 16        		.byte	0x16
GAS LISTING /tmp/ccvQL2RB.s 			page 244


 13479 02d9 00        		.byte	0x0
 13480 02da 03        		.uleb128 0x3
 13481 02db 02        		.byte	0x2
 13482 02dc 0000      		.2byte	.LM63
 13483 02de 19        		.byte	0x19
 13484 02df 00        		.byte	0x0
 13485 02e0 03        		.uleb128 0x3
 13486 02e1 02        		.byte	0x2
 13487 02e2 0000      		.2byte	.LM64
 13488 02e4 18        		.byte	0x18
 13489 02e5 00        		.byte	0x0
 13490 02e6 03        		.uleb128 0x3
 13491 02e7 02        		.byte	0x2
 13492 02e8 0000      		.2byte	.LM65
 13493 02ea 16        		.byte	0x16
 13494 02eb 00        		.byte	0x0
 13495 02ec 03        		.uleb128 0x3
 13496 02ed 02        		.byte	0x2
 13497 02ee 0000      		.2byte	.LM66
 13498 02f0 15        		.byte	0x15
 13499 02f1 00        		.byte	0x0
 13500 02f2 03        		.uleb128 0x3
 13501 02f3 02        		.byte	0x2
 13502 02f4 0000      		.2byte	.LM67
 13503 02f6 16        		.byte	0x16
 13504 02f7 00        		.byte	0x0
 13505 02f8 03        		.uleb128 0x3
 13506 02f9 02        		.byte	0x2
 13507 02fa 0000      		.2byte	.LM68
 13508 02fc 15        		.byte	0x15
 13509 02fd 00        		.byte	0x0
 13510 02fe 03        		.uleb128 0x3
 13511 02ff 02        		.byte	0x2
 13512 0300 0000      		.2byte	.LM69
 13513 0302 16        		.byte	0x16
 13514 0303 00        		.byte	0x0
 13515 0304 03        		.uleb128 0x3
 13516 0305 02        		.byte	0x2
 13517 0306 0000      		.2byte	.LM70
 13518 0308 15        		.byte	0x15
 13519 0309 00        		.byte	0x0
 13520 030a 03        		.uleb128 0x3
 13521 030b 02        		.byte	0x2
 13522 030c 0000      		.2byte	.LM71
 13523 030e 16        		.byte	0x16
 13524 030f 00        		.byte	0x0
 13525 0310 03        		.uleb128 0x3
 13526 0311 02        		.byte	0x2
 13527 0312 0000      		.2byte	.LM72
 13528 0314 18        		.byte	0x18
 13529 0315 00        		.byte	0x0
 13530 0316 03        		.uleb128 0x3
 13531 0317 02        		.byte	0x2
 13532 0318 0000      		.2byte	.LM73
 13533 031a 17        		.byte	0x17
 13534 031b 00        		.byte	0x0
 13535 031c 03        		.uleb128 0x3
GAS LISTING /tmp/ccvQL2RB.s 			page 245


 13536 031d 02        		.byte	0x2
 13537 031e 0000      		.2byte	.LM74
 13538 0320 16        		.byte	0x16
 13539 0321 00        		.byte	0x0
 13540 0322 03        		.uleb128 0x3
 13541 0323 02        		.byte	0x2
 13542 0324 0000      		.2byte	.LM75
 13543 0326 15        		.byte	0x15
 13544 0327 00        		.byte	0x0
 13545 0328 03        		.uleb128 0x3
 13546 0329 02        		.byte	0x2
 13547 032a 0000      		.2byte	.LM76
 13548 032c 16        		.byte	0x16
 13549 032d 00        		.byte	0x0
 13550 032e 03        		.uleb128 0x3
 13551 032f 02        		.byte	0x2
 13552 0330 0000      		.2byte	.LM77
 13553 0332 1D        		.byte	0x1d
 13554 0333 00        		.byte	0x0
 13555 0334 03        		.uleb128 0x3
 13556 0335 02        		.byte	0x2
 13557 0336 0000      		.2byte	.LM78
 13558 0338 16        		.byte	0x16
 13559 0339 00        		.byte	0x0
 13560 033a 03        		.uleb128 0x3
 13561 033b 02        		.byte	0x2
 13562 033c 0000      		.2byte	.LM79
 13563 033e 03        		.byte	0x3
 13564 033f 42        		.sleb128 -62
 13565 0340 01        		.byte	0x1
 13566 0341 00        		.byte	0x0
 13567 0342 03        		.uleb128 0x3
 13568 0343 02        		.byte	0x2
 13569 0344 0000      		.2byte	.LM80
 13570 0346 16        		.byte	0x16
 13571 0347 00        		.byte	0x0
 13572 0348 03        		.uleb128 0x3
 13573 0349 02        		.byte	0x2
 13574 034a 0000      		.2byte	.LM81
 13575 034c 15        		.byte	0x15
 13576 034d 00        		.byte	0x0
 13577 034e 03        		.uleb128 0x3
 13578 034f 02        		.byte	0x2
 13579 0350 0000      		.2byte	.LM82
 13580 0352 13        		.byte	0x13
 13581 0353 00        		.byte	0x0
 13582 0354 03        		.uleb128 0x3
 13583 0355 02        		.byte	0x2
 13584 0356 0000      		.2byte	.LM83
 13585 0358 17        		.byte	0x17
 13586 0359 00        		.byte	0x0
 13587 035a 03        		.uleb128 0x3
 13588 035b 02        		.byte	0x2
 13589 035c 0000      		.2byte	.LM84
 13590 035e 10        		.byte	0x10
 13591 035f 00        		.byte	0x0
 13592 0360 03        		.uleb128 0x3
GAS LISTING /tmp/ccvQL2RB.s 			page 246


 13593 0361 02        		.byte	0x2
 13594 0362 0000      		.2byte	.LM85
 13595 0364 19        		.byte	0x19
 13596 0365 00        		.byte	0x0
 13597 0366 03        		.uleb128 0x3
 13598 0367 02        		.byte	0x2
 13599 0368 0000      		.2byte	.LM86
 13600 036a 0E        		.byte	0xe
 13601 036b 00        		.byte	0x0
 13602 036c 03        		.uleb128 0x3
 13603 036d 02        		.byte	0x2
 13604 036e 0000      		.2byte	.LM87
 13605 0370 16        		.byte	0x16
 13606 0371 00        		.byte	0x0
 13607 0372 03        		.uleb128 0x3
 13608 0373 02        		.byte	0x2
 13609 0374 0000      		.2byte	.LM88
 13610 0376 15        		.byte	0x15
 13611 0377 00        		.byte	0x0
 13612 0378 03        		.uleb128 0x3
 13613 0379 02        		.byte	0x2
 13614 037a 0000      		.2byte	.LM89
 13615 037c 13        		.byte	0x13
 13616 037d 00        		.byte	0x0
 13617 037e 03        		.uleb128 0x3
 13618 037f 02        		.byte	0x2
 13619 0380 0000      		.2byte	.LM90
 13620 0382 17        		.byte	0x17
 13621 0383 00        		.byte	0x0
 13622 0384 03        		.uleb128 0x3
 13623 0385 02        		.byte	0x2
 13624 0386 0000      		.2byte	.LM91
 13625 0388 10        		.byte	0x10
 13626 0389 00        		.byte	0x0
 13627 038a 03        		.uleb128 0x3
 13628 038b 02        		.byte	0x2
 13629 038c 0000      		.2byte	.LM92
 13630 038e 19        		.byte	0x19
 13631 038f 00        		.byte	0x0
 13632 0390 03        		.uleb128 0x3
 13633 0391 02        		.byte	0x2
 13634 0392 0000      		.2byte	.LM93
 13635 0394 0E        		.byte	0xe
 13636 0395 00        		.byte	0x0
 13637 0396 03        		.uleb128 0x3
 13638 0397 02        		.byte	0x2
 13639 0398 0000      		.2byte	.LM94
 13640 039a 16        		.byte	0x16
 13641 039b 00        		.byte	0x0
 13642 039c 03        		.uleb128 0x3
 13643 039d 02        		.byte	0x2
 13644 039e 0000      		.2byte	.LM95
 13645 03a0 15        		.byte	0x15
 13646 03a1 00        		.byte	0x0
 13647 03a2 03        		.uleb128 0x3
 13648 03a3 02        		.byte	0x2
 13649 03a4 0000      		.2byte	.LM96
GAS LISTING /tmp/ccvQL2RB.s 			page 247


 13650 03a6 13        		.byte	0x13
 13651 03a7 00        		.byte	0x0
 13652 03a8 03        		.uleb128 0x3
 13653 03a9 02        		.byte	0x2
 13654 03aa 0000      		.2byte	.LM97
 13655 03ac 17        		.byte	0x17
 13656 03ad 00        		.byte	0x0
 13657 03ae 03        		.uleb128 0x3
 13658 03af 02        		.byte	0x2
 13659 03b0 0000      		.2byte	.LM98
 13660 03b2 10        		.byte	0x10
 13661 03b3 00        		.byte	0x0
 13662 03b4 03        		.uleb128 0x3
 13663 03b5 02        		.byte	0x2
 13664 03b6 0000      		.2byte	.LM99
 13665 03b8 19        		.byte	0x19
 13666 03b9 00        		.byte	0x0
 13667 03ba 03        		.uleb128 0x3
 13668 03bb 02        		.byte	0x2
 13669 03bc 0000      		.2byte	.LM100
 13670 03be 67        		.byte	0x67
 13671 03bf 00        		.byte	0x0
 13672 03c0 03        		.uleb128 0x3
 13673 03c1 02        		.byte	0x2
 13674 03c2 0000      		.2byte	.LM101
 13675 03c4 03        		.byte	0x3
 13676 03c5 B57F      		.sleb128 -75
 13677 03c7 01        		.byte	0x1
 13678 03c8 00        		.byte	0x0
 13679 03c9 03        		.uleb128 0x3
 13680 03ca 02        		.byte	0x2
 13681 03cb 0000      		.2byte	.LM102
 13682 03cd 13        		.byte	0x13
 13683 03ce 00        		.byte	0x0
 13684 03cf 03        		.uleb128 0x3
 13685 03d0 02        		.byte	0x2
 13686 03d1 0000      		.2byte	.LM103
 13687 03d3 17        		.byte	0x17
 13688 03d4 00        		.byte	0x0
 13689 03d5 03        		.uleb128 0x3
 13690 03d6 02        		.byte	0x2
 13691 03d7 0000      		.2byte	.LM104
 13692 03d9 15        		.byte	0x15
 13693 03da 00        		.byte	0x0
 13694 03db 03        		.uleb128 0x3
 13695 03dc 02        		.byte	0x2
 13696 03dd 0000      		.2byte	.LM105
 13697 03df 49        		.byte	0x49
 13698 03e0 00        		.byte	0x0
 13699 03e1 03        		.uleb128 0x3
 13700 03e2 02        		.byte	0x2
 13701 03e3 0000      		.2byte	.LM106
 13702 03e5 15        		.byte	0x15
 13703 03e6 00        		.byte	0x0
 13704 03e7 03        		.uleb128 0x3
 13705 03e8 02        		.byte	0x2
 13706 03e9 0000      		.2byte	.LM107
GAS LISTING /tmp/ccvQL2RB.s 			page 248


 13707 03eb 03        		.byte	0x3
 13708 03ec B97F      		.sleb128 -71
 13709 03ee 01        		.byte	0x1
 13710 03ef 00        		.byte	0x0
 13711 03f0 03        		.uleb128 0x3
 13712 03f1 02        		.byte	0x2
 13713 03f2 0000      		.2byte	.LM108
 13714 03f4 16        		.byte	0x16
 13715 03f5 00        		.byte	0x0
 13716 03f6 03        		.uleb128 0x3
 13717 03f7 02        		.byte	0x2
 13718 03f8 0000      		.2byte	.LM109
 13719 03fa 15        		.byte	0x15
 13720 03fb 00        		.byte	0x0
 13721 03fc 03        		.uleb128 0x3
 13722 03fd 02        		.byte	0x2
 13723 03fe 0000      		.2byte	.LM110
 13724 0400 13        		.byte	0x13
 13725 0401 00        		.byte	0x0
 13726 0402 03        		.uleb128 0x3
 13727 0403 02        		.byte	0x2
 13728 0404 0000      		.2byte	.LM111
 13729 0406 17        		.byte	0x17
 13730 0407 00        		.byte	0x0
 13731 0408 03        		.uleb128 0x3
 13732 0409 02        		.byte	0x2
 13733 040a 0000      		.2byte	.LM112
 13734 040c 10        		.byte	0x10
 13735 040d 00        		.byte	0x0
 13736 040e 03        		.uleb128 0x3
 13737 040f 02        		.byte	0x2
 13738 0410 0000      		.2byte	.LM113
 13739 0412 19        		.byte	0x19
 13740 0413 00        		.byte	0x0
 13741 0414 03        		.uleb128 0x3
 13742 0415 02        		.byte	0x2
 13743 0416 0000      		.2byte	.LM114
 13744 0418 5E        		.byte	0x5e
 13745 0419 00        		.byte	0x0
 13746 041a 03        		.uleb128 0x3
 13747 041b 02        		.byte	0x2
 13748 041c 0000      		.2byte	.LM115
 13749 041e 1A        		.byte	0x1a
 13750 041f 00        		.byte	0x0
 13751 0420 03        		.uleb128 0x3
 13752 0421 02        		.byte	0x2
 13753 0422 0000      		.2byte	.LM116
 13754 0424 15        		.byte	0x15
 13755 0425 00        		.byte	0x0
 13756 0426 03        		.uleb128 0x3
 13757 0427 02        		.byte	0x2
 13758 0428 0000      		.2byte	.LM117
 13759 042a 16        		.byte	0x16
 13760 042b 00        		.byte	0x0
 13761 042c 03        		.uleb128 0x3
 13762 042d 02        		.byte	0x2
 13763 042e 0000      		.2byte	.LM118
GAS LISTING /tmp/ccvQL2RB.s 			page 249


 13764 0430 03        		.byte	0x3
 13765 0431 6C        		.sleb128 -20
 13766 0432 01        		.byte	0x1
 13767 0433 00        		.byte	0x0
 13768 0434 03        		.uleb128 0x3
 13769 0435 02        		.byte	0x2
 13770 0436 0000      		.2byte	.LM119
 13771 0438 03        		.byte	0x3
 13772 0439 BB7F      		.sleb128 -69
 13773 043b 01        		.byte	0x1
 13774 043c 00        		.byte	0x0
 13775 043d 03        		.uleb128 0x3
 13776 043e 02        		.byte	0x2
 13777 043f 0000      		.2byte	.LM120
 13778 0441 16        		.byte	0x16
 13779 0442 00        		.byte	0x0
 13780 0443 03        		.uleb128 0x3
 13781 0444 02        		.byte	0x2
 13782 0445 0000      		.2byte	.LM121
 13783 0447 15        		.byte	0x15
 13784 0448 00        		.byte	0x0
 13785 0449 03        		.uleb128 0x3
 13786 044a 02        		.byte	0x2
 13787 044b 0000      		.2byte	.LM122
 13788 044d 13        		.byte	0x13
 13789 044e 00        		.byte	0x0
 13790 044f 03        		.uleb128 0x3
 13791 0450 02        		.byte	0x2
 13792 0451 0000      		.2byte	.LM123
 13793 0453 17        		.byte	0x17
 13794 0454 00        		.byte	0x0
 13795 0455 03        		.uleb128 0x3
 13796 0456 02        		.byte	0x2
 13797 0457 0000      		.2byte	.LM124
 13798 0459 10        		.byte	0x10
 13799 045a 00        		.byte	0x0
 13800 045b 03        		.uleb128 0x3
 13801 045c 02        		.byte	0x2
 13802 045d 0000      		.2byte	.LM125
 13803 045f 19        		.byte	0x19
 13804 0460 00        		.byte	0x0
 13805 0461 03        		.uleb128 0x3
 13806 0462 02        		.byte	0x2
 13807 0463 0000      		.2byte	.LM126
 13808 0465 6E        		.byte	0x6e
 13809 0466 00        		.byte	0x0
 13810 0467 03        		.uleb128 0x3
 13811 0468 02        		.byte	0x2
 13812 0469 0000      		.2byte	.LM127
 13813 046b 15        		.byte	0x15
 13814 046c 00        		.byte	0x0
 13815 046d 03        		.uleb128 0x3
 13816 046e 02        		.byte	0x2
 13817 046f 0000      		.2byte	.LM128
 13818 0471 03        		.byte	0x3
 13819 0472 67        		.sleb128 -25
 13820 0473 01        		.byte	0x1
GAS LISTING /tmp/ccvQL2RB.s 			page 250


 13821 0474 00        		.byte	0x0
 13822 0475 03        		.uleb128 0x3
 13823 0476 02        		.byte	0x2
 13824 0477 0000      		.2byte	.LM129
 13825 0479 03        		.byte	0x3
 13826 047a B87F      		.sleb128 -72
 13827 047c 01        		.byte	0x1
 13828 047d 00        		.byte	0x0
 13829 047e 03        		.uleb128 0x3
 13830 047f 02        		.byte	0x2
 13831 0480 0000      		.2byte	.LM130
 13832 0482 16        		.byte	0x16
 13833 0483 00        		.byte	0x0
 13834 0484 03        		.uleb128 0x3
 13835 0485 02        		.byte	0x2
 13836 0486 0000      		.2byte	.LM131
 13837 0488 15        		.byte	0x15
 13838 0489 00        		.byte	0x0
 13839 048a 03        		.uleb128 0x3
 13840 048b 02        		.byte	0x2
 13841 048c 0000      		.2byte	.LM132
 13842 048e 13        		.byte	0x13
 13843 048f 00        		.byte	0x0
 13844 0490 03        		.uleb128 0x3
 13845 0491 02        		.byte	0x2
 13846 0492 0000      		.2byte	.LM133
 13847 0494 17        		.byte	0x17
 13848 0495 00        		.byte	0x0
 13849 0496 03        		.uleb128 0x3
 13850 0497 02        		.byte	0x2
 13851 0498 0000      		.2byte	.LM134
 13852 049a 10        		.byte	0x10
 13853 049b 00        		.byte	0x0
 13854 049c 03        		.uleb128 0x3
 13855 049d 02        		.byte	0x2
 13856 049e 0000      		.2byte	.LM135
 13857 04a0 19        		.byte	0x19
 13858 04a1 00        		.byte	0x0
 13859 04a2 03        		.uleb128 0x3
 13860 04a3 02        		.byte	0x2
 13861 04a4 0000      		.2byte	.LM136
 13862 04a6 0E        		.byte	0xe
 13863 04a7 00        		.byte	0x0
 13864 04a8 03        		.uleb128 0x3
 13865 04a9 02        		.byte	0x2
 13866 04aa 0000      		.2byte	.LM137
 13867 04ac 16        		.byte	0x16
 13868 04ad 00        		.byte	0x0
 13869 04ae 03        		.uleb128 0x3
 13870 04af 02        		.byte	0x2
 13871 04b0 0000      		.2byte	.LM138
 13872 04b2 15        		.byte	0x15
 13873 04b3 00        		.byte	0x0
 13874 04b4 03        		.uleb128 0x3
 13875 04b5 02        		.byte	0x2
 13876 04b6 0000      		.2byte	.LM139
 13877 04b8 13        		.byte	0x13
GAS LISTING /tmp/ccvQL2RB.s 			page 251


 13878 04b9 00        		.byte	0x0
 13879 04ba 03        		.uleb128 0x3
 13880 04bb 02        		.byte	0x2
 13881 04bc 0000      		.2byte	.LM140
 13882 04be 17        		.byte	0x17
 13883 04bf 00        		.byte	0x0
 13884 04c0 03        		.uleb128 0x3
 13885 04c1 02        		.byte	0x2
 13886 04c2 0000      		.2byte	.LM141
 13887 04c4 10        		.byte	0x10
 13888 04c5 00        		.byte	0x0
 13889 04c6 03        		.uleb128 0x3
 13890 04c7 02        		.byte	0x2
 13891 04c8 0000      		.2byte	.LM142
 13892 04ca 19        		.byte	0x19
 13893 04cb 00        		.byte	0x0
 13894 04cc 03        		.uleb128 0x3
 13895 04cd 02        		.byte	0x2
 13896 04ce 0000      		.2byte	.LM143
 13897 04d0 0E        		.byte	0xe
 13898 04d1 00        		.byte	0x0
 13899 04d2 03        		.uleb128 0x3
 13900 04d3 02        		.byte	0x2
 13901 04d4 0000      		.2byte	.LM144
 13902 04d6 16        		.byte	0x16
 13903 04d7 00        		.byte	0x0
 13904 04d8 03        		.uleb128 0x3
 13905 04d9 02        		.byte	0x2
 13906 04da 0000      		.2byte	.LM145
 13907 04dc 15        		.byte	0x15
 13908 04dd 00        		.byte	0x0
 13909 04de 03        		.uleb128 0x3
 13910 04df 02        		.byte	0x2
 13911 04e0 0000      		.2byte	.LM146
 13912 04e2 13        		.byte	0x13
 13913 04e3 00        		.byte	0x0
 13914 04e4 03        		.uleb128 0x3
 13915 04e5 02        		.byte	0x2
 13916 04e6 0000      		.2byte	.LM147
 13917 04e8 17        		.byte	0x17
 13918 04e9 00        		.byte	0x0
 13919 04ea 03        		.uleb128 0x3
 13920 04eb 02        		.byte	0x2
 13921 04ec 0000      		.2byte	.LM148
 13922 04ee 10        		.byte	0x10
 13923 04ef 00        		.byte	0x0
 13924 04f0 03        		.uleb128 0x3
 13925 04f1 02        		.byte	0x2
 13926 04f2 0000      		.2byte	.LM149
 13927 04f4 19        		.byte	0x19
 13928 04f5 00        		.byte	0x0
 13929 04f6 03        		.uleb128 0x3
 13930 04f7 02        		.byte	0x2
 13931 04f8 0000      		.2byte	.LM150
 13932 04fa 5A        		.byte	0x5a
 13933 04fb 00        		.byte	0x0
 13934 04fc 03        		.uleb128 0x3
GAS LISTING /tmp/ccvQL2RB.s 			page 252


 13935 04fd 02        		.byte	0x2
 13936 04fe 0000      		.2byte	.LM151
 13937 0500 18        		.byte	0x18
 13938 0501 00        		.byte	0x0
 13939 0502 03        		.uleb128 0x3
 13940 0503 02        		.byte	0x2
 13941 0504 0000      		.2byte	.LM152
 13942 0506 16        		.byte	0x16
 13943 0507 00        		.byte	0x0
 13944 0508 03        		.uleb128 0x3
 13945 0509 02        		.byte	0x2
 13946 050a 0000      		.2byte	.LM153
 13947 050c 26        		.byte	0x26
 13948 050d 00        		.byte	0x0
 13949 050e 03        		.uleb128 0x3
 13950 050f 02        		.byte	0x2
 13951 0510 0000      		.2byte	.LM154
 13952 0512 17        		.byte	0x17
 13953 0513 00        		.byte	0x0
 13954 0514 03        		.uleb128 0x3
 13955 0515 02        		.byte	0x2
 13956 0516 0000      		.2byte	.LM155
 13957 0518 18        		.byte	0x18
 13958 0519 00        		.byte	0x0
 13959 051a 03        		.uleb128 0x3
 13960 051b 02        		.byte	0x2
 13961 051c 0000      		.2byte	.LM156
 13962 051e 1D        		.byte	0x1d
 13963 051f 00        		.byte	0x0
 13964 0520 03        		.uleb128 0x3
 13965 0521 02        		.byte	0x2
 13966 0522 0000      		.2byte	.LM157
 13967 0524 03        		.byte	0x3
 13968 0525 BC7F      		.sleb128 -68
 13969 0527 01        		.byte	0x1
 13970 0528 00        		.byte	0x0
 13971 0529 03        		.uleb128 0x3
 13972 052a 02        		.byte	0x2
 13973 052b 0000      		.2byte	.LM158
 13974 052d 15        		.byte	0x15
 13975 052e 00        		.byte	0x0
 13976 052f 03        		.uleb128 0x3
 13977 0530 02        		.byte	0x2
 13978 0531 0000      		.2byte	.LM159
 13979 0533 4E        		.byte	0x4e
 13980 0534 00        		.byte	0x0
 13981 0535 03        		.uleb128 0x3
 13982 0536 02        		.byte	0x2
 13983 0537 0000      		.2byte	.LM160
 13984 0539 03        		.byte	0x3
 13985 053a 45        		.sleb128 -59
 13986 053b 01        		.byte	0x1
 13987 053c 00        		.byte	0x0
 13988 053d 03        		.uleb128 0x3
 13989 053e 02        		.byte	0x2
 13990 053f 0000      		.2byte	.LM161
 13991 0541 15        		.byte	0x15
GAS LISTING /tmp/ccvQL2RB.s 			page 253


 13992 0542 00        		.byte	0x0
 13993 0543 03        		.uleb128 0x3
 13994 0544 02        		.byte	0x2
 13995 0545 0000      		.2byte	.LM162
 13996 0547 4E        		.byte	0x4e
 13997 0548 00        		.byte	0x0
 13998 0549 03        		.uleb128 0x3
 13999 054a 02        		.byte	0x2
 14000 054b 0000      		.2byte	.LM163
 14001 054d 15        		.byte	0x15
 14002 054e 00        		.byte	0x0
 14003 054f 03        		.uleb128 0x3
 14004 0550 02        		.byte	0x2
 14005 0551 0000      		.2byte	.LM164
 14006 0553 15        		.byte	0x15
 14007 0554 00        		.byte	0x0
 14008 0555 03        		.uleb128 0x3
 14009 0556 02        		.byte	0x2
 14010 0557 0000      		.2byte	.LM165
 14011 0559 1B        		.byte	0x1b
 14012 055a 00        		.byte	0x0
 14013 055b 03        		.uleb128 0x3
 14014 055c 02        		.byte	0x2
 14015 055d 0000      		.2byte	.LM166
 14016 055f 0F        		.byte	0xf
 14017 0560 00        		.byte	0x0
 14018 0561 03        		.uleb128 0x3
 14019 0562 02        		.byte	0x2
 14020 0563 0000      		.2byte	.LM167
 14021 0565 1A        		.byte	0x1a
 14022 0566 00        		.byte	0x0
 14023 0567 03        		.uleb128 0x3
 14024 0568 02        		.byte	0x2
 14025 0569 0000      		.2byte	.LM168
 14026 056b 03        		.byte	0x3
 14027 056c BB7F      		.sleb128 -69
 14028 056e 01        		.byte	0x1
 14029 056f 00        		.byte	0x0
 14030 0570 03        		.uleb128 0x3
 14031 0571 02        		.byte	0x2
 14032 0572 0000      		.2byte	.LM169
 14033 0574 15        		.byte	0x15
 14034 0575 00        		.byte	0x0
 14035 0576 03        		.uleb128 0x3
 14036 0577 02        		.byte	0x2
 14037 0578 0000      		.2byte	.LM170
 14038 057a 57        		.byte	0x57
 14039 057b 00        		.byte	0x0
 14040 057c 03        		.uleb128 0x3
 14041 057d 02        		.byte	0x2
 14042 057e 0000      		.2byte	.LM171
 14043 0580 19        		.byte	0x19
 14044 0581 00        		.byte	0x0
 14045 0582 03        		.uleb128 0x3
 14046 0583 02        		.byte	0x2
 14047 0584 0000      		.2byte	.LM172
 14048 0586 03        		.byte	0x3
GAS LISTING /tmp/ccvQL2RB.s 			page 254


 14049 0587 6F        		.sleb128 -17
 14050 0588 01        		.byte	0x1
 14051 0589 00        		.byte	0x0
 14052 058a 03        		.uleb128 0x3
 14053 058b 02        		.byte	0x2
 14054 058c 0000      		.2byte	.LM173
 14055 058e 2B        		.byte	0x2b
 14056 058f 00        		.byte	0x0
 14057 0590 03        		.uleb128 0x3
 14058 0591 02        		.byte	0x2
 14059 0592 0000      		.2byte	.LM174
 14060 0594 10        		.byte	0x10
 14061 0595 00        		.byte	0x0
 14062 0596 03        		.uleb128 0x3
 14063 0597 02        		.byte	0x2
 14064 0598 0000      		.2byte	.LM175
 14065 059a 15        		.byte	0x15
 14066 059b 00        		.byte	0x0
 14067 059c 03        		.uleb128 0x3
 14068 059d 02        		.byte	0x2
 14069 059e 0000      		.2byte	.LM176
 14070 05a0 03        		.byte	0x3
 14071 05a1 B47F      		.sleb128 -76
 14072 05a3 01        		.byte	0x1
 14073 05a4 00        		.byte	0x0
 14074 05a5 03        		.uleb128 0x3
 14075 05a6 02        		.byte	0x2
 14076 05a7 0000      		.2byte	.LM177
 14077 05a9 15        		.byte	0x15
 14078 05aa 00        		.byte	0x0
 14079 05ab 03        		.uleb128 0x3
 14080 05ac 02        		.byte	0x2
 14081 05ad 0000      		.2byte	.LM178
 14082 05af 57        		.byte	0x57
 14083 05b0 00        		.byte	0x0
 14084 05b1 03        		.uleb128 0x3
 14085 05b2 02        		.byte	0x2
 14086 05b3 0000      		.2byte	.LM179
 14087 05b5 03        		.byte	0x3
 14088 05b6 BD7F      		.sleb128 -67
 14089 05b8 01        		.byte	0x1
 14090 05b9 00        		.byte	0x0
 14091 05ba 03        		.uleb128 0x3
 14092 05bb 02        		.byte	0x2
 14093 05bc 0000      		.2byte	.LM180
 14094 05be 52        		.byte	0x52
 14095 05bf 00        		.byte	0x0
 14096 05c0 03        		.uleb128 0x3
 14097 05c1 02        		.byte	0x2
 14098 05c2 0000      		.2byte	.LM181
 14099 05c4 15        		.byte	0x15
 14100 05c5 00        		.byte	0x0
 14101 05c6 03        		.uleb128 0x3
 14102 05c7 02        		.byte	0x2
 14103 05c8 0000      		.2byte	.LM182
 14104 05ca 03        		.byte	0x3
 14105 05cb 40        		.sleb128 -64
GAS LISTING /tmp/ccvQL2RB.s 			page 255


 14106 05cc 01        		.byte	0x1
 14107 05cd 00        		.byte	0x0
 14108 05ce 03        		.uleb128 0x3
 14109 05cf 02        		.byte	0x2
 14110 05d0 0000      		.2byte	.LM183
 14111 05d2 15        		.byte	0x15
 14112 05d3 00        		.byte	0x0
 14113 05d4 03        		.uleb128 0x3
 14114 05d5 02        		.byte	0x2
 14115 05d6 0000      		.2byte	.LM184
 14116 05d8 52        		.byte	0x52
 14117 05d9 00        		.byte	0x0
 14118 05da 03        		.uleb128 0x3
 14119 05db 02        		.byte	0x2
 14120 05dc 0000      		.2byte	.LM185
 14121 05de 24        		.byte	0x24
 14122 05df 00        		.byte	0x0
 14123 05e0 03        		.uleb128 0x3
 14124 05e1 02        		.byte	0x2
 14125 05e2 0000      		.2byte	.LM186
 14126 05e4 16        		.byte	0x16
 14127 05e5 00        		.byte	0x0
 14128 05e6 03        		.uleb128 0x3
 14129 05e7 02        		.byte	0x2
 14130 05e8 0000      		.2byte	.LM187
 14131 05ea 15        		.byte	0x15
 14132 05eb 00        		.byte	0x0
 14133 05ec 03        		.uleb128 0x3
 14134 05ed 02        		.byte	0x2
 14135 05ee 0000      		.2byte	.LM188
 14136 05f0 03        		.byte	0x3
 14137 05f1 FE7E      		.sleb128 -130
 14138 05f3 01        		.byte	0x1
 14139 05f4 00        		.byte	0x0
 14140 05f5 03        		.uleb128 0x3
 14141 05f6 02        		.byte	0x2
 14142 05f7 0000      		.2byte	.LM189
 14143 05f9 16        		.byte	0x16
 14144 05fa 00        		.byte	0x0
 14145 05fb 03        		.uleb128 0x3
 14146 05fc 02        		.byte	0x2
 14147 05fd 0000      		.2byte	.LM190
 14148 05ff 15        		.byte	0x15
 14149 0600 00        		.byte	0x0
 14150 0601 03        		.uleb128 0x3
 14151 0602 02        		.byte	0x2
 14152 0603 0000      		.2byte	.LM191
 14153 0605 13        		.byte	0x13
 14154 0606 00        		.byte	0x0
 14155 0607 03        		.uleb128 0x3
 14156 0608 02        		.byte	0x2
 14157 0609 0000      		.2byte	.LM192
 14158 060b 17        		.byte	0x17
 14159 060c 00        		.byte	0x0
 14160 060d 03        		.uleb128 0x3
 14161 060e 02        		.byte	0x2
 14162 060f 0000      		.2byte	.LM193
GAS LISTING /tmp/ccvQL2RB.s 			page 256


 14163 0611 10        		.byte	0x10
 14164 0612 00        		.byte	0x0
 14165 0613 03        		.uleb128 0x3
 14166 0614 02        		.byte	0x2
 14167 0615 0000      		.2byte	.LM194
 14168 0617 19        		.byte	0x19
 14169 0618 00        		.byte	0x0
 14170 0619 03        		.uleb128 0x3
 14171 061a 02        		.byte	0x2
 14172 061b 0000      		.2byte	.LM195
 14173 061d 92        		.byte	0x92
 14174 061e 00        		.byte	0x0
 14175 061f 03        		.uleb128 0x3
 14176 0620 02        		.byte	0x2
 14177 0621 0000      		.2byte	.LM196
 14178 0623 12        		.byte	0x12
 14179 0624 00        		.byte	0x0
 14180 0625 03        		.uleb128 0x3
 14181 0626 02        		.byte	0x2
 14182 0627 0000      		.2byte	.LM197
 14183 0629 18        		.byte	0x18
 14184 062a 00        		.byte	0x0
 14185 062b 03        		.uleb128 0x3
 14186 062c 02        		.byte	0x2
 14187 062d 0000      		.2byte	.LM198
 14188 062f 17        		.byte	0x17
 14189 0630 00        		.byte	0x0
 14190 0631 03        		.uleb128 0x3
 14191 0632 02        		.byte	0x2
 14192 0633 0000      		.2byte	.LM199
 14193 0635 17        		.byte	0x17
 14194 0636 00        		.byte	0x0
 14195 0637 03        		.uleb128 0x3
 14196 0638 02        		.byte	0x2
 14197 0639 0000      		.2byte	.LM200
 14198 063b 19        		.byte	0x19
 14199 063c 00        		.byte	0x0
 14200 063d 03        		.uleb128 0x3
 14201 063e 02        		.byte	0x2
 14202 063f 0000      		.2byte	.LM201
 14203 0641 0F        		.byte	0xf
 14204 0642 00        		.byte	0x0
 14205 0643 03        		.uleb128 0x3
 14206 0644 02        		.byte	0x2
 14207 0645 0000      		.2byte	.LM202
 14208 0647 15        		.byte	0x15
 14209 0648 00        		.byte	0x0
 14210 0649 03        		.uleb128 0x3
 14211 064a 02        		.byte	0x2
 14212 064b 0000      		.2byte	.LM203
 14213 064d 17        		.byte	0x17
 14214 064e 00        		.byte	0x0
 14215 064f 03        		.uleb128 0x3
 14216 0650 02        		.byte	0x2
 14217 0651 0000      		.2byte	.LM204
 14218 0653 10        		.byte	0x10
 14219 0654 00        		.byte	0x0
GAS LISTING /tmp/ccvQL2RB.s 			page 257


 14220 0655 03        		.uleb128 0x3
 14221 0656 02        		.byte	0x2
 14222 0657 0000      		.2byte	.LM205
 14223 0659 1C        		.byte	0x1c
 14224 065a 00        		.byte	0x0
 14225 065b 03        		.uleb128 0x3
 14226 065c 02        		.byte	0x2
 14227 065d 0000      		.2byte	.LM206
 14228 065f 0C        		.byte	0xc
 14229 0660 00        		.byte	0x0
 14230 0661 03        		.uleb128 0x3
 14231 0662 02        		.byte	0x2
 14232 0663 0000      		.2byte	.LM207
 14233 0665 1E        		.byte	0x1e
 14234 0666 00        		.byte	0x0
 14235 0667 03        		.uleb128 0x3
 14236 0668 02        		.byte	0x2
 14237 0669 0000      		.2byte	.LM208
 14238 066b 01        		.byte	0x1
 14239 066c 00        		.byte	0x0
 14240 066d 03        		.uleb128 0x3
 14241 066e 02        		.byte	0x2
 14242 066f 0000      		.2byte	.LM209
 14243 0671 03        		.byte	0x3
 14244 0672 EA7E      		.sleb128 -150
 14245 0674 01        		.byte	0x1
 14246 0675 00        		.byte	0x0
 14247 0676 03        		.uleb128 0x3
 14248 0677 02        		.byte	0x2
 14249 0678 0000      		.2byte	.LM210
 14250 067a 16        		.byte	0x16
 14251 067b 00        		.byte	0x0
 14252 067c 03        		.uleb128 0x3
 14253 067d 02        		.byte	0x2
 14254 067e 0000      		.2byte	.LM211
 14255 0680 15        		.byte	0x15
 14256 0681 00        		.byte	0x0
 14257 0682 03        		.uleb128 0x3
 14258 0683 02        		.byte	0x2
 14259 0684 0000      		.2byte	.LM212
 14260 0686 13        		.byte	0x13
 14261 0687 00        		.byte	0x0
 14262 0688 03        		.uleb128 0x3
 14263 0689 02        		.byte	0x2
 14264 068a 0000      		.2byte	.LM213
 14265 068c 17        		.byte	0x17
 14266 068d 00        		.byte	0x0
 14267 068e 03        		.uleb128 0x3
 14268 068f 02        		.byte	0x2
 14269 0690 0000      		.2byte	.LM214
 14270 0692 10        		.byte	0x10
 14271 0693 00        		.byte	0x0
 14272 0694 03        		.uleb128 0x3
 14273 0695 02        		.byte	0x2
 14274 0696 0000      		.2byte	.LM215
 14275 0698 19        		.byte	0x19
 14276 0699 00        		.byte	0x0
GAS LISTING /tmp/ccvQL2RB.s 			page 258


 14277 069a 03        		.uleb128 0x3
 14278 069b 02        		.byte	0x2
 14279 069c 0000      		.2byte	.LM216
 14280 069e 92        		.byte	0x92
 14281 069f 00        		.byte	0x0
 14282 06a0 03        		.uleb128 0x3
 14283 06a1 02        		.byte	0x2
 14284 06a2 0000      		.2byte	.LM217
 14285 06a4 12        		.byte	0x12
 14286 06a5 00        		.byte	0x0
 14287 06a6 03        		.uleb128 0x3
 14288 06a7 02        		.byte	0x2
 14289 06a8 0000      		.2byte	.LM218
 14290 06aa 03        		.byte	0x3
 14291 06ab FE7E      		.sleb128 -130
 14292 06ad 01        		.byte	0x1
 14293 06ae 00        		.byte	0x0
 14294 06af 03        		.uleb128 0x3
 14295 06b0 02        		.byte	0x2
 14296 06b1 0000      		.2byte	.LM219
 14297 06b3 16        		.byte	0x16
 14298 06b4 00        		.byte	0x0
 14299 06b5 03        		.uleb128 0x3
 14300 06b6 02        		.byte	0x2
 14301 06b7 0000      		.2byte	.LM220
 14302 06b9 15        		.byte	0x15
 14303 06ba 00        		.byte	0x0
 14304 06bb 03        		.uleb128 0x3
 14305 06bc 02        		.byte	0x2
 14306 06bd 0000      		.2byte	.LM221
 14307 06bf 13        		.byte	0x13
 14308 06c0 00        		.byte	0x0
 14309 06c1 03        		.uleb128 0x3
 14310 06c2 02        		.byte	0x2
 14311 06c3 0000      		.2byte	.LM222
 14312 06c5 17        		.byte	0x17
 14313 06c6 00        		.byte	0x0
 14314 06c7 03        		.uleb128 0x3
 14315 06c8 02        		.byte	0x2
 14316 06c9 0000      		.2byte	.LM223
 14317 06cb 10        		.byte	0x10
 14318 06cc 00        		.byte	0x0
 14319 06cd 03        		.uleb128 0x3
 14320 06ce 02        		.byte	0x2
 14321 06cf 0000      		.2byte	.LM224
 14322 06d1 19        		.byte	0x19
 14323 06d2 00        		.byte	0x0
 14324 06d3 03        		.uleb128 0x3
 14325 06d4 02        		.byte	0x2
 14326 06d5 0000      		.2byte	.LM225
 14327 06d7 92        		.byte	0x92
 14328 06d8 00        		.byte	0x0
 14329 06d9 03        		.uleb128 0x3
 14330 06da 02        		.byte	0x2
 14331 06db 0000      		.2byte	.LM226
 14332 06dd 12        		.byte	0x12
 14333 06de 00        		.byte	0x0
GAS LISTING /tmp/ccvQL2RB.s 			page 259


 14334 06df 03        		.uleb128 0x3
 14335 06e0 02        		.byte	0x2
 14336 06e1 0000      		.2byte	.LM227
 14337 06e3 03        		.byte	0x3
 14338 06e4 FE7E      		.sleb128 -130
 14339 06e6 01        		.byte	0x1
 14340 06e7 00        		.byte	0x0
 14341 06e8 03        		.uleb128 0x3
 14342 06e9 02        		.byte	0x2
 14343 06ea 0000      		.2byte	.LM228
 14344 06ec 16        		.byte	0x16
 14345 06ed 00        		.byte	0x0
 14346 06ee 03        		.uleb128 0x3
 14347 06ef 02        		.byte	0x2
 14348 06f0 0000      		.2byte	.LM229
 14349 06f2 15        		.byte	0x15
 14350 06f3 00        		.byte	0x0
 14351 06f4 03        		.uleb128 0x3
 14352 06f5 02        		.byte	0x2
 14353 06f6 0000      		.2byte	.LM230
 14354 06f8 13        		.byte	0x13
 14355 06f9 00        		.byte	0x0
 14356 06fa 03        		.uleb128 0x3
 14357 06fb 02        		.byte	0x2
 14358 06fc 0000      		.2byte	.LM231
 14359 06fe 17        		.byte	0x17
 14360 06ff 00        		.byte	0x0
 14361 0700 03        		.uleb128 0x3
 14362 0701 02        		.byte	0x2
 14363 0702 0000      		.2byte	.LM232
 14364 0704 10        		.byte	0x10
 14365 0705 00        		.byte	0x0
 14366 0706 03        		.uleb128 0x3
 14367 0707 02        		.byte	0x2
 14368 0708 0000      		.2byte	.LM233
 14369 070a 19        		.byte	0x19
 14370 070b 00        		.byte	0x0
 14371 070c 03        		.uleb128 0x3
 14372 070d 02        		.byte	0x2
 14373 070e 0000      		.2byte	.LM234
 14374 0710 92        		.byte	0x92
 14375 0711 00        		.byte	0x0
 14376 0712 03        		.uleb128 0x3
 14377 0713 02        		.byte	0x2
 14378 0714 0000      		.2byte	.LM235
 14379 0716 12        		.byte	0x12
 14380 0717 00        		.byte	0x0
 14381 0718 03        		.uleb128 0x3
 14382 0719 02        		.byte	0x2
 14383 071a 0000      		.2byte	.LM236
 14384 071c 2C        		.byte	0x2c
 14385 071d 00        		.byte	0x0
 14386 071e 03        		.uleb128 0x3
 14387 071f 02        		.byte	0x2
 14388 0720 0000      		.2byte	.LM237
 14389 0722 16        		.byte	0x16
 14390 0723 00        		.byte	0x0
GAS LISTING /tmp/ccvQL2RB.s 			page 260


 14391 0724 03        		.uleb128 0x3
 14392 0725 02        		.byte	0x2
 14393 0726 0000      		.2byte	.LM238
 14394 0728 17        		.byte	0x17
 14395 0729 00        		.byte	0x0
 14396 072a 03        		.uleb128 0x3
 14397 072b 02        		.byte	0x2
 14398 072c 0000      		.2byte	.LM239
 14399 072e 16        		.byte	0x16
 14400 072f 00        		.byte	0x0
 14401 0730 03        		.uleb128 0x3
 14402 0731 02        		.byte	0x2
 14403 0732 0000      		.2byte	.LM240
 14404 0734 13        		.byte	0x13
 14405 0735 00        		.byte	0x0
 14406 0736 03        		.uleb128 0x3
 14407 0737 02        		.byte	0x2
 14408 0738 0000      		.2byte	.LM241
 14409 073a 19        		.byte	0x19
 14410 073b 00        		.byte	0x0
 14411 073c 03        		.uleb128 0x3
 14412 073d 02        		.byte	0x2
 14413 073e 0000      		.2byte	.LM242
 14414 0740 16        		.byte	0x16
 14415 0741 00        		.byte	0x0
 14416 0742 03        		.uleb128 0x3
 14417 0743 02        		.byte	0x2
 14418 0744 0000      		.2byte	.LM243
 14419 0746 01        		.byte	0x1
 14420 0747 00        		.byte	0x0
 14421 0748 03        		.uleb128 0x3
 14422 0749 02        		.byte	0x2
 14423 074a 0000      		.2byte	.LM244
 14424 074c 17        		.byte	0x17
 14425 074d 00        		.byte	0x0
 14426 074e 03        		.uleb128 0x3
 14427 074f 02        		.byte	0x2
 14428 0750 0000      		.2byte	.LM245
 14429 0752 13        		.byte	0x13
 14430 0753 00        		.byte	0x0
 14431 0754 03        		.uleb128 0x3
 14432 0755 02        		.byte	0x2
 14433 0756 0000      		.2byte	.LM246
 14434 0758 17        		.byte	0x17
 14435 0759 00        		.byte	0x0
 14436 075a 03        		.uleb128 0x3
 14437 075b 02        		.byte	0x2
 14438 075c 0000      		.2byte	.LM247
 14439 075e 15        		.byte	0x15
 14440 075f 00        		.byte	0x0
 14441 0760 03        		.uleb128 0x3
 14442 0761 02        		.byte	0x2
 14443 0762 0000      		.2byte	.LM248
 14444 0764 16        		.byte	0x16
 14445 0765 00        		.byte	0x0
 14446 0766 03        		.uleb128 0x3
 14447 0767 02        		.byte	0x2
GAS LISTING /tmp/ccvQL2RB.s 			page 261


 14448 0768 0000      		.2byte	.LM249
 14449 076a 16        		.byte	0x16
 14450 076b 00        		.byte	0x0
 14451 076c 03        		.uleb128 0x3
 14452 076d 02        		.byte	0x2
 14453 076e 0000      		.2byte	.LM250
 14454 0770 15        		.byte	0x15
 14455 0771 00        		.byte	0x0
 14456 0772 03        		.uleb128 0x3
 14457 0773 02        		.byte	0x2
 14458 0774 0000      		.2byte	.LM251
 14459 0776 16        		.byte	0x16
 14460 0777 00        		.byte	0x0
 14461 0778 03        		.uleb128 0x3
 14462 0779 02        		.byte	0x2
 14463 077a 0000      		.2byte	.LM252
 14464 077c 16        		.byte	0x16
 14465 077d 00        		.byte	0x0
 14466 077e 03        		.uleb128 0x3
 14467 077f 02        		.byte	0x2
 14468 0780 0000      		.2byte	.LM253
 14469 0782 15        		.byte	0x15
 14470 0783 00        		.byte	0x0
 14471 0784 03        		.uleb128 0x3
 14472 0785 02        		.byte	0x2
 14473 0786 0000      		.2byte	.LM254
 14474 0788 15        		.byte	0x15
 14475 0789 00        		.byte	0x0
 14476 078a 03        		.uleb128 0x3
 14477 078b 02        		.byte	0x2
 14478 078c 0000      		.2byte	.LM255
 14479 078e 15        		.byte	0x15
 14480 078f 00        		.byte	0x0
 14481 0790 03        		.uleb128 0x3
 14482 0791 02        		.byte	0x2
 14483 0792 0000      		.2byte	.LM256
 14484 0794 16        		.byte	0x16
 14485 0795 00        		.byte	0x0
 14486 0796 03        		.uleb128 0x3
 14487 0797 02        		.byte	0x2
 14488 0798 0000      		.2byte	.LM257
 14489 079a 1A        		.byte	0x1a
 14490 079b 00        		.byte	0x0
 14491 079c 03        		.uleb128 0x3
 14492 079d 02        		.byte	0x2
 14493 079e 0000      		.2byte	.LM258
 14494 07a0 27        		.byte	0x27
 14495 07a1 00        		.byte	0x0
 14496 07a2 03        		.uleb128 0x3
 14497 07a3 02        		.byte	0x2
 14498 07a4 0000      		.2byte	.LM259
 14499 07a6 03        		.byte	0x3
 14500 07a7 6E        		.sleb128 -18
 14501 07a8 01        		.byte	0x1
 14502 07a9 00        		.byte	0x0
 14503 07aa 03        		.uleb128 0x3
 14504 07ab 02        		.byte	0x2
GAS LISTING /tmp/ccvQL2RB.s 			page 262


 14505 07ac 0000      		.2byte	.LM260
 14506 07ae 16        		.byte	0x16
 14507 07af 00        		.byte	0x0
 14508 07b0 03        		.uleb128 0x3
 14509 07b1 02        		.byte	0x2
 14510 07b2 0000      		.2byte	.LM261
 14511 07b4 1A        		.byte	0x1a
 14512 07b5 00        		.byte	0x0
 14513 07b6 03        		.uleb128 0x3
 14514 07b7 02        		.byte	0x2
 14515 07b8 0000      		.2byte	.LM262
 14516 07ba 18        		.byte	0x18
 14517 07bb 00        		.byte	0x0
 14518 07bc 03        		.uleb128 0x3
 14519 07bd 02        		.byte	0x2
 14520 07be 0000      		.2byte	.LM263
 14521 07c0 11        		.byte	0x11
 14522 07c1 00        		.byte	0x0
 14523 07c2 03        		.uleb128 0x3
 14524 07c3 02        		.byte	0x2
 14525 07c4 0000      		.2byte	.LM264
 14526 07c6 17        		.byte	0x17
 14527 07c7 00        		.byte	0x0
 14528 07c8 03        		.uleb128 0x3
 14529 07c9 02        		.byte	0x2
 14530 07ca 0000      		.2byte	.LM265
 14531 07cc 15        		.byte	0x15
 14532 07cd 00        		.byte	0x0
 14533 07ce 03        		.uleb128 0x3
 14534 07cf 02        		.byte	0x2
 14535 07d0 0000      		.2byte	.LM266
 14536 07d2 27        		.byte	0x27
 14537 07d3 00        		.byte	0x0
 14538 07d4 03        		.uleb128 0x3
 14539 07d5 02        		.byte	0x2
 14540 07d6 0000      		.2byte	.LM267
 14541 07d8 03        		.byte	0x3
 14542 07d9 5F        		.sleb128 -33
 14543 07da 01        		.byte	0x1
 14544 07db 00        		.byte	0x0
 14545 07dc 03        		.uleb128 0x3
 14546 07dd 02        		.byte	0x2
 14547 07de 0000      		.2byte	.LM268
 14548 07e0 39        		.byte	0x39
 14549 07e1 00        		.byte	0x0
 14550 07e2 03        		.uleb128 0x3
 14551 07e3 02        		.byte	0x2
 14552 07e4 0000      		.2byte	.LM269
 14553 07e6 03        		.byte	0x3
 14554 07e7 6E        		.sleb128 -18
 14555 07e8 01        		.byte	0x1
 14556 07e9 00        		.byte	0x0
 14557 07ea 03        		.uleb128 0x3
 14558 07eb 02        		.byte	0x2
 14559 07ec 0000      		.2byte	.LM270
 14560 07ee 1D        		.byte	0x1d
 14561 07ef 00        		.byte	0x0
GAS LISTING /tmp/ccvQL2RB.s 			page 263


 14562 07f0 03        		.uleb128 0x3
 14563 07f1 02        		.byte	0x2
 14564 07f2 0000      		.2byte	.LM271
 14565 07f4 15        		.byte	0x15
 14566 07f5 00        		.byte	0x0
 14567 07f6 03        		.uleb128 0x3
 14568 07f7 02        		.byte	0x2
 14569 07f8 0000      		.2byte	.LM272
 14570 07fa 0D        		.byte	0xd
 14571 07fb 00        		.byte	0x0
 14572 07fc 03        		.uleb128 0x3
 14573 07fd 02        		.byte	0x2
 14574 07fe 0000      		.2byte	.LM273
 14575 0800 15        		.byte	0x15
 14576 0801 00        		.byte	0x0
 14577 0802 03        		.uleb128 0x3
 14578 0803 02        		.byte	0x2
 14579 0804 0000      		.2byte	.LM274
 14580 0806 13        		.byte	0x13
 14581 0807 00        		.byte	0x0
 14582 0808 03        		.uleb128 0x3
 14583 0809 02        		.byte	0x2
 14584 080a 0000      		.2byte	.LM275
 14585 080c 1B        		.byte	0x1b
 14586 080d 00        		.byte	0x0
 14587 080e 03        		.uleb128 0x3
 14588 080f 02        		.byte	0x2
 14589 0810 0000      		.2byte	.LM276
 14590 0812 03        		.byte	0x3
 14591 0813 69        		.sleb128 -23
 14592 0814 01        		.byte	0x1
 14593 0815 00        		.byte	0x0
 14594 0816 03        		.uleb128 0x3
 14595 0817 02        		.byte	0x2
 14596 0818 0000      		.2byte	.LM277
 14597 081a 15        		.byte	0x15
 14598 081b 00        		.byte	0x0
 14599 081c 03        		.uleb128 0x3
 14600 081d 02        		.byte	0x2
 14601 081e 0000      		.2byte	.LM278
 14602 0820 2A        		.byte	0x2a
 14603 0821 00        		.byte	0x0
 14604 0822 03        		.uleb128 0x3
 14605 0823 02        		.byte	0x2
 14606 0824 0000      		.2byte	.LM279
 14607 0826 03        		.byte	0x3
 14608 0827 6D        		.sleb128 -19
 14609 0828 01        		.byte	0x1
 14610 0829 00        		.byte	0x0
 14611 082a 03        		.uleb128 0x3
 14612 082b 02        		.byte	0x2
 14613 082c 0000      		.2byte	.LM280
 14614 082e 0A        		.byte	0xa
 14615 082f 00        		.byte	0x0
 14616 0830 03        		.uleb128 0x3
 14617 0831 02        		.byte	0x2
 14618 0832 0000      		.2byte	.LM281
GAS LISTING /tmp/ccvQL2RB.s 			page 264


 14619 0834 3B        		.byte	0x3b
 14620 0835 00        		.byte	0x0
 14621 0836 03        		.uleb128 0x3
 14622 0837 02        		.byte	0x2
 14623 0838 0000      		.2byte	.LM282
 14624 083a 17        		.byte	0x17
 14625 083b 00        		.byte	0x0
 14626 083c 03        		.uleb128 0x3
 14627 083d 02        		.byte	0x2
 14628 083e 0000      		.2byte	.LM283
 14629 0840 16        		.byte	0x16
 14630 0841 00        		.byte	0x0
 14631 0842 03        		.uleb128 0x3
 14632 0843 02        		.byte	0x2
 14633 0844 0000      		.2byte	.LM284
 14634 0846 0F        		.byte	0xf
 14635 0847 00        		.byte	0x0
 14636 0848 03        		.uleb128 0x3
 14637 0849 02        		.byte	0x2
 14638 084a 0000      		.2byte	.LM285
 14639 084c 03        		.byte	0x3
 14640 084d 42        		.sleb128 -62
 14641 084e 01        		.byte	0x1
 14642 084f 00        		.byte	0x0
 14643 0850 03        		.uleb128 0x3
 14644 0851 02        		.byte	0x2
 14645 0852 0000      		.2byte	.LM286
 14646 0854 13        		.byte	0x13
 14647 0855 00        		.byte	0x0
 14648 0856 03        		.uleb128 0x3
 14649 0857 02        		.byte	0x2
 14650 0858 0000      		.2byte	.LM287
 14651 085a 17        		.byte	0x17
 14652 085b 00        		.byte	0x0
 14653 085c 03        		.uleb128 0x3
 14654 085d 02        		.byte	0x2
 14655 085e 0000      		.2byte	.LM288
 14656 0860 12        		.byte	0x12
 14657 0861 00        		.byte	0x0
 14658 0862 03        		.uleb128 0x3
 14659 0863 02        		.byte	0x2
 14660 0864 0000      		.2byte	.LM289
 14661 0866 13        		.byte	0x13
 14662 0867 00        		.byte	0x0
 14663 0868 03        		.uleb128 0x3
 14664 0869 02        		.byte	0x2
 14665 086a 0000      		.2byte	.LM290
 14666 086c 17        		.byte	0x17
 14667 086d 00        		.byte	0x0
 14668 086e 03        		.uleb128 0x3
 14669 086f 02        		.byte	0x2
 14670 0870 0000      		.2byte	.LM291
 14671 0872 6A        		.byte	0x6a
 14672 0873 00        		.byte	0x0
 14673 0874 03        		.uleb128 0x3
 14674 0875 02        		.byte	0x2
 14675 0876 0000      		.2byte	.LM292
GAS LISTING /tmp/ccvQL2RB.s 			page 265


 14676 0878 03        		.byte	0x3
 14677 0879 71        		.sleb128 -15
 14678 087a 01        		.byte	0x1
 14679 087b 00        		.byte	0x0
 14680 087c 03        		.uleb128 0x3
 14681 087d 02        		.byte	0x2
 14682 087e 0000      		.2byte	.LM293
 14683 0880 15        		.byte	0x15
 14684 0881 00        		.byte	0x0
 14685 0882 03        		.uleb128 0x3
 14686 0883 02        		.byte	0x2
 14687 0884 0000      		.2byte	.LM294
 14688 0886 03        		.byte	0x3
 14689 0887 74        		.sleb128 -12
 14690 0888 01        		.byte	0x1
 14691 0889 00        		.byte	0x0
 14692 088a 03        		.uleb128 0x3
 14693 088b 02        		.byte	0x2
 14694 088c 0000      		.2byte	.LM295
 14695 088e 03        		.byte	0x3
 14696 088f 42        		.sleb128 -62
 14697 0890 01        		.byte	0x1
 14698 0891 00        		.byte	0x0
 14699 0892 03        		.uleb128 0x3
 14700 0893 02        		.byte	0x2
 14701 0894 0000      		.2byte	.LM296
 14702 0896 13        		.byte	0x13
 14703 0897 00        		.byte	0x0
 14704 0898 03        		.uleb128 0x3
 14705 0899 02        		.byte	0x2
 14706 089a 0000      		.2byte	.LM297
 14707 089c 17        		.byte	0x17
 14708 089d 00        		.byte	0x0
 14709 089e 03        		.uleb128 0x3
 14710 089f 02        		.byte	0x2
 14711 08a0 0000      		.2byte	.LM298
 14712 08a2 12        		.byte	0x12
 14713 08a3 00        		.byte	0x0
 14714 08a4 03        		.uleb128 0x3
 14715 08a5 02        		.byte	0x2
 14716 08a6 0000      		.2byte	.LM299
 14717 08a8 13        		.byte	0x13
 14718 08a9 00        		.byte	0x0
 14719 08aa 03        		.uleb128 0x3
 14720 08ab 02        		.byte	0x2
 14721 08ac 0000      		.2byte	.LM300
 14722 08ae 64        		.byte	0x64
 14723 08af 00        		.byte	0x0
 14724 08b0 03        		.uleb128 0x3
 14725 08b1 02        		.byte	0x2
 14726 08b2 0000      		.2byte	.LM301
 14727 08b4 15        		.byte	0x15
 14728 08b5 00        		.byte	0x0
 14729 08b6 03        		.uleb128 0x3
 14730 08b7 02        		.byte	0x2
 14731 08b8 0000      		.2byte	.LM302
 14732 08ba 03        		.byte	0x3
GAS LISTING /tmp/ccvQL2RB.s 			page 266


 14733 08bb 6E        		.sleb128 -18
 14734 08bc 01        		.byte	0x1
 14735 08bd 00        		.byte	0x0
 14736 08be 03        		.uleb128 0x3
 14737 08bf 02        		.byte	0x2
 14738 08c0 0000      		.2byte	.LM303
 14739 08c2 03        		.byte	0x3
 14740 08c3 42        		.sleb128 -62
 14741 08c4 01        		.byte	0x1
 14742 08c5 00        		.byte	0x0
 14743 08c6 03        		.uleb128 0x3
 14744 08c7 02        		.byte	0x2
 14745 08c8 0000      		.2byte	.LM304
 14746 08ca 13        		.byte	0x13
 14747 08cb 00        		.byte	0x0
 14748 08cc 03        		.uleb128 0x3
 14749 08cd 02        		.byte	0x2
 14750 08ce 0000      		.2byte	.LM305
 14751 08d0 17        		.byte	0x17
 14752 08d1 00        		.byte	0x0
 14753 08d2 03        		.uleb128 0x3
 14754 08d3 02        		.byte	0x2
 14755 08d4 0000      		.2byte	.LM306
 14756 08d6 12        		.byte	0x12
 14757 08d7 00        		.byte	0x0
 14758 08d8 03        		.uleb128 0x3
 14759 08d9 02        		.byte	0x2
 14760 08da 0000      		.2byte	.LM307
 14761 08dc 13        		.byte	0x13
 14762 08dd 00        		.byte	0x0
 14763 08de 03        		.uleb128 0x3
 14764 08df 02        		.byte	0x2
 14765 08e0 0000      		.2byte	.LM308
 14766 08e2 17        		.byte	0x17
 14767 08e3 00        		.byte	0x0
 14768 08e4 03        		.uleb128 0x3
 14769 08e5 02        		.byte	0x2
 14770 08e6 0000      		.2byte	.LM309
 14771 08e8 12        		.byte	0x12
 14772 08e9 00        		.byte	0x0
 14773 08ea 03        		.uleb128 0x3
 14774 08eb 02        		.byte	0x2
 14775 08ec 0000      		.2byte	.LM310
 14776 08ee 13        		.byte	0x13
 14777 08ef 00        		.byte	0x0
 14778 08f0 03        		.uleb128 0x3
 14779 08f1 02        		.byte	0x2
 14780 08f2 0000      		.2byte	.LM311
 14781 08f4 17        		.byte	0x17
 14782 08f5 00        		.byte	0x0
 14783 08f6 03        		.uleb128 0x3
 14784 08f7 02        		.byte	0x2
 14785 08f8 0000      		.2byte	.LM312
 14786 08fa 6C        		.byte	0x6c
 14787 08fb 00        		.byte	0x0
 14788 08fc 03        		.uleb128 0x3
 14789 08fd 02        		.byte	0x2
GAS LISTING /tmp/ccvQL2RB.s 			page 267


 14790 08fe 0000      		.2byte	.LM313
 14791 0900 18        		.byte	0x18
 14792 0901 00        		.byte	0x0
 14793 0902 03        		.uleb128 0x3
 14794 0903 02        		.byte	0x2
 14795 0904 0000      		.2byte	.LM314
 14796 0906 10        		.byte	0x10
 14797 0907 00        		.byte	0x0
 14798 0908 03        		.uleb128 0x3
 14799 0909 02        		.byte	0x2
 14800 090a 0000      		.2byte	.LM315
 14801 090c 1B        		.byte	0x1b
 14802 090d 00        		.byte	0x0
 14803 090e 03        		.uleb128 0x3
 14804 090f 02        		.byte	0x2
 14805 0910 0000      		.2byte	.LM316
 14806 0912 2D        		.byte	0x2d
 14807 0913 00        		.byte	0x0
 14808 0914 03        		.uleb128 0x3
 14809 0915 02        		.byte	0x2
 14810 0916 0000      		.2byte	.LM317
 14811 0918 03        		.byte	0x3
 14812 0919 60        		.sleb128 -32
 14813 091a 01        		.byte	0x1
 14814 091b 00        		.byte	0x0
 14815 091c 03        		.uleb128 0x3
 14816 091d 02        		.byte	0x2
 14817 091e 0000      		.2byte	.LM318
 14818 0920 03        		.byte	0x3
 14819 0921 A67F      		.sleb128 -90
 14820 0923 01        		.byte	0x1
 14821 0924 00        		.byte	0x0
 14822 0925 03        		.uleb128 0x3
 14823 0926 02        		.byte	0x2
 14824 0927 0000      		.2byte	.LM319
 14825 0929 13        		.byte	0x13
 14826 092a 00        		.byte	0x0
 14827 092b 03        		.uleb128 0x3
 14828 092c 02        		.byte	0x2
 14829 092d 0000      		.2byte	.LM320
 14830 092f 17        		.byte	0x17
 14831 0930 00        		.byte	0x0
 14832 0931 03        		.uleb128 0x3
 14833 0932 02        		.byte	0x2
 14834 0933 0000      		.2byte	.LM321
 14835 0935 12        		.byte	0x12
 14836 0936 00        		.byte	0x0
 14837 0937 03        		.uleb128 0x3
 14838 0938 02        		.byte	0x2
 14839 0939 0000      		.2byte	.LM322
 14840 093b 13        		.byte	0x13
 14841 093c 00        		.byte	0x0
 14842 093d 03        		.uleb128 0x3
 14843 093e 02        		.byte	0x2
 14844 093f 0000      		.2byte	.LM323
 14845 0941 17        		.byte	0x17
 14846 0942 00        		.byte	0x0
GAS LISTING /tmp/ccvQL2RB.s 			page 268


 14847 0943 03        		.uleb128 0x3
 14848 0944 02        		.byte	0x2
 14849 0945 0000      		.2byte	.LM324
 14850 0947 95        		.byte	0x95
 14851 0948 00        		.byte	0x0
 14852 0949 03        		.uleb128 0x3
 14853 094a 02        		.byte	0x2
 14854 094b 0000      		.2byte	.LM325
 14855 094d 03        		.byte	0x3
 14856 094e 62        		.sleb128 -30
 14857 094f 01        		.byte	0x1
 14858 0950 00        		.byte	0x0
 14859 0951 03        		.uleb128 0x3
 14860 0952 02        		.byte	0x2
 14861 0953 0000      		.2byte	.LM326
 14862 0955 18        		.byte	0x18
 14863 0956 00        		.byte	0x0
 14864 0957 03        		.uleb128 0x3
 14865 0958 02        		.byte	0x2
 14866 0959 0000      		.2byte	.LM327
 14867 095b 21        		.byte	0x21
 14868 095c 00        		.byte	0x0
 14869 095d 03        		.uleb128 0x3
 14870 095e 02        		.byte	0x2
 14871 095f 0000      		.2byte	.LM328
 14872 0961 12        		.byte	0x12
 14873 0962 00        		.byte	0x0
 14874 0963 03        		.uleb128 0x3
 14875 0964 02        		.byte	0x2
 14876 0965 0000      		.2byte	.LM329
 14877 0967 19        		.byte	0x19
 14878 0968 00        		.byte	0x0
 14879 0969 03        		.uleb128 0x3
 14880 096a 02        		.byte	0x2
 14881 096b 0000      		.2byte	.LM330
 14882 096d 15        		.byte	0x15
 14883 096e 00        		.byte	0x0
 14884 096f 03        		.uleb128 0x3
 14885 0970 02        		.byte	0x2
 14886 0971 0000      		.2byte	.LM331
 14887 0973 03        		.byte	0x3
 14888 0974 60        		.sleb128 -32
 14889 0975 01        		.byte	0x1
 14890 0976 00        		.byte	0x0
 14891 0977 03        		.uleb128 0x3
 14892 0978 02        		.byte	0x2
 14893 0979 0000      		.2byte	.LM332
 14894 097b 1F        		.byte	0x1f
 14895 097c 00        		.byte	0x0
 14896 097d 03        		.uleb128 0x3
 14897 097e 02        		.byte	0x2
 14898 097f 0000      		.2byte	.LM333
 14899 0981 18        		.byte	0x18
 14900 0982 00        		.byte	0x0
 14901 0983 03        		.uleb128 0x3
 14902 0984 02        		.byte	0x2
 14903 0985 0000      		.2byte	.LM334
GAS LISTING /tmp/ccvQL2RB.s 			page 269


 14904 0987 17        		.byte	0x17
 14905 0988 00        		.byte	0x0
 14906 0989 03        		.uleb128 0x3
 14907 098a 02        		.byte	0x2
 14908 098b 0000      		.2byte	.LM335
 14909 098d 13        		.byte	0x13
 14910 098e 00        		.byte	0x0
 14911 098f 03        		.uleb128 0x3
 14912 0990 02        		.byte	0x2
 14913 0991 0000      		.2byte	.LM336
 14914 0993 15        		.byte	0x15
 14915 0994 00        		.byte	0x0
 14916 0995 03        		.uleb128 0x3
 14917 0996 02        		.byte	0x2
 14918 0997 0000      		.2byte	.LM337
 14919 0999 15        		.byte	0x15
 14920 099a 00        		.byte	0x0
 14921 099b 03        		.uleb128 0x3
 14922 099c 02        		.byte	0x2
 14923 099d 0000      		.2byte	.LM338
 14924 099f 10        		.byte	0x10
 14925 09a0 00        		.byte	0x0
 14926 09a1 03        		.uleb128 0x3
 14927 09a2 02        		.byte	0x2
 14928 09a3 0000      		.2byte	.LM339
 14929 09a5 25        		.byte	0x25
 14930 09a6 00        		.byte	0x0
 14931 09a7 03        		.uleb128 0x3
 14932 09a8 02        		.byte	0x2
 14933 09a9 0000      		.2byte	.LM340
 14934 09ab 03        		.byte	0x3
 14935 09ac 6F        		.sleb128 -17
 14936 09ad 01        		.byte	0x1
 14937 09ae 00        		.byte	0x0
 14938 09af 03        		.uleb128 0x3
 14939 09b0 02        		.byte	0x2
 14940 09b1 0000      		.2byte	.LM341
 14941 09b3 30        		.byte	0x30
 14942 09b4 00        		.byte	0x0
 14943 09b5 03        		.uleb128 0x3
 14944 09b6 02        		.byte	0x2
 14945 09b7 0000      		.2byte	.LM342
 14946 09b9 17        		.byte	0x17
 14947 09ba 00        		.byte	0x0
 14948 09bb 03        		.uleb128 0x3
 14949 09bc 02        		.byte	0x2
 14950 09bd 0000      		.2byte	.LM343
 14951 09bf 15        		.byte	0x15
 14952 09c0 00        		.byte	0x0
 14953 09c1 03        		.uleb128 0x3
 14954 09c2 02        		.byte	0x2
 14955 09c3 0000      		.2byte	.LM344
 14956 09c5 18        		.byte	0x18
 14957 09c6 00        		.byte	0x0
 14958 09c7 03        		.uleb128 0x3
 14959 09c8 02        		.byte	0x2
 14960 09c9 0000      		.2byte	.LM345
GAS LISTING /tmp/ccvQL2RB.s 			page 270


 14961 09cb 16        		.byte	0x16
 14962 09cc 00        		.byte	0x0
 14963 09cd 03        		.uleb128 0x3
 14964 09ce 02        		.byte	0x2
 14965 09cf 0000      		.2byte	.LM346
 14966 09d1 03        		.byte	0x3
 14967 09d2 E67E      		.sleb128 -154
 14968 09d4 01        		.byte	0x1
 14969 09d5 00        		.byte	0x0
 14970 09d6 03        		.uleb128 0x3
 14971 09d7 02        		.byte	0x2
 14972 09d8 0000      		.2byte	.LM347
 14973 09da 16        		.byte	0x16
 14974 09db 00        		.byte	0x0
 14975 09dc 03        		.uleb128 0x3
 14976 09dd 02        		.byte	0x2
 14977 09de 0000      		.2byte	.LM348
 14978 09e0 13        		.byte	0x13
 14979 09e1 00        		.byte	0x0
 14980 09e2 03        		.uleb128 0x3
 14981 09e3 02        		.byte	0x2
 14982 09e4 0000      		.2byte	.LM349
 14983 09e6 B3        		.byte	0xb3
 14984 09e7 00        		.byte	0x0
 14985 09e8 03        		.uleb128 0x3
 14986 09e9 02        		.byte	0x2
 14987 09ea 0000      		.2byte	.LM350
 14988 09ec 15        		.byte	0x15
 14989 09ed 00        		.byte	0x0
 14990 09ee 03        		.uleb128 0x3
 14991 09ef 02        		.byte	0x2
 14992 09f0 0000      		.2byte	.LM351
 14993 09f2 03        		.byte	0x3
 14994 09f3 75        		.sleb128 -11
 14995 09f4 01        		.byte	0x1
 14996 09f5 00        		.byte	0x0
 14997 09f6 03        		.uleb128 0x3
 14998 09f7 02        		.byte	0x2
 14999 09f8 0000      		.2byte	.LM352
 15000 09fa 16        		.byte	0x16
 15001 09fb 00        		.byte	0x0
 15002 09fc 03        		.uleb128 0x3
 15003 09fd 02        		.byte	0x2
 15004 09fe 0000      		.2byte	.LM353
 15005 0a00 16        		.byte	0x16
 15006 0a01 00        		.byte	0x0
 15007 0a02 03        		.uleb128 0x3
 15008 0a03 02        		.byte	0x2
 15009 0a04 0000      		.2byte	.LM354
 15010 0a06 16        		.byte	0x16
 15011 0a07 00        		.byte	0x0
 15012 0a08 03        		.uleb128 0x3
 15013 0a09 02        		.byte	0x2
 15014 0a0a 0000      		.2byte	.LM355
 15015 0a0c 1E        		.byte	0x1e
 15016 0a0d 00        		.byte	0x0
 15017 0a0e 03        		.uleb128 0x3
GAS LISTING /tmp/ccvQL2RB.s 			page 271


 15018 0a0f 02        		.byte	0x2
 15019 0a10 0000      		.2byte	.LM356
 15020 0a12 16        		.byte	0x16
 15021 0a13 00        		.byte	0x0
 15022 0a14 03        		.uleb128 0x3
 15023 0a15 02        		.byte	0x2
 15024 0a16 0000      		.2byte	.LM357
 15025 0a18 15        		.byte	0x15
 15026 0a19 00        		.byte	0x0
 15027 0a1a 03        		.uleb128 0x3
 15028 0a1b 02        		.byte	0x2
 15029 0a1c 0000      		.2byte	.LM358
 15030 0a1e 18        		.byte	0x18
 15031 0a1f 00        		.byte	0x0
 15032 0a20 03        		.uleb128 0x3
 15033 0a21 02        		.byte	0x2
 15034 0a22 0000      		.2byte	.LM359
 15035 0a24 03        		.byte	0x3
 15036 0a25 DE7E      		.sleb128 -162
 15037 0a27 01        		.byte	0x1
 15038 0a28 00        		.byte	0x0
 15039 0a29 03        		.uleb128 0x3
 15040 0a2a 02        		.byte	0x2
 15041 0a2b 0000      		.2byte	.LM360
 15042 0a2d 13        		.byte	0x13
 15043 0a2e 00        		.byte	0x0
 15044 0a2f 03        		.uleb128 0x3
 15045 0a30 02        		.byte	0x2
 15046 0a31 0000      		.2byte	.LM361
 15047 0a33 17        		.byte	0x17
 15048 0a34 00        		.byte	0x0
 15049 0a35 03        		.uleb128 0x3
 15050 0a36 02        		.byte	0x2
 15051 0a37 0000      		.2byte	.LM362
 15052 0a39 B6        		.byte	0xb6
 15053 0a3a 00        		.byte	0x0
 15054 0a3b 03        		.uleb128 0x3
 15055 0a3c 02        		.byte	0x2
 15056 0a3d 0000      		.2byte	.LM363
 15057 0a3f 10        		.byte	0x10
 15058 0a40 00        		.byte	0x0
 15059 0a41 03        		.uleb128 0x3
 15060 0a42 02        		.byte	0x2
 15061 0a43 0000      		.2byte	.LM364
 15062 0a45 1A        		.byte	0x1a
 15063 0a46 00        		.byte	0x0
 15064 0a47 03        		.uleb128 0x3
 15065 0a48 02        		.byte	0x2
 15066 0a49 0000      		.2byte	.LM365
 15067 0a4b 16        		.byte	0x16
 15068 0a4c 00        		.byte	0x0
 15069 0a4d 03        		.uleb128 0x3
 15070 0a4e 02        		.byte	0x2
 15071 0a4f 0000      		.2byte	.LM366
 15072 0a51 03        		.byte	0x3
 15073 0a52 D87E      		.sleb128 -168
 15074 0a54 01        		.byte	0x1
GAS LISTING /tmp/ccvQL2RB.s 			page 272


 15075 0a55 00        		.byte	0x0
 15076 0a56 03        		.uleb128 0x3
 15077 0a57 02        		.byte	0x2
 15078 0a58 0000      		.2byte	.LM367
 15079 0a5a 13        		.byte	0x13
 15080 0a5b 00        		.byte	0x0
 15081 0a5c 03        		.uleb128 0x3
 15082 0a5d 02        		.byte	0x2
 15083 0a5e 0000      		.2byte	.LM368
 15084 0a60 17        		.byte	0x17
 15085 0a61 00        		.byte	0x0
 15086 0a62 03        		.uleb128 0x3
 15087 0a63 02        		.byte	0x2
 15088 0a64 0000      		.2byte	.LM369
 15089 0a66 BC        		.byte	0xbc
 15090 0a67 00        		.byte	0x0
 15091 0a68 03        		.uleb128 0x3
 15092 0a69 02        		.byte	0x2
 15093 0a6a 0000      		.2byte	.LM370
 15094 0a6c 16        		.byte	0x16
 15095 0a6d 00        		.byte	0x0
 15096 0a6e 03        		.uleb128 0x3
 15097 0a6f 02        		.byte	0x2
 15098 0a70 0000      		.2byte	.LM371
 15099 0a72 18        		.byte	0x18
 15100 0a73 00        		.byte	0x0
 15101 0a74 03        		.uleb128 0x3
 15102 0a75 02        		.byte	0x2
 15103 0a76 0000      		.2byte	.LM372
 15104 0a78 15        		.byte	0x15
 15105 0a79 00        		.byte	0x0
 15106 0a7a 03        		.uleb128 0x3
 15107 0a7b 02        		.byte	0x2
 15108 0a7c 0000      		.2byte	.LM373
 15109 0a7e 15        		.byte	0x15
 15110 0a7f 00        		.byte	0x0
 15111 0a80 03        		.uleb128 0x3
 15112 0a81 02        		.byte	0x2
 15113 0a82 0000      		.2byte	.LM374
 15114 0a84 12        		.byte	0x12
 15115 0a85 00        		.byte	0x0
 15116 0a86 03        		.uleb128 0x3
 15117 0a87 02        		.byte	0x2
 15118 0a88 0000      		.2byte	.LM375
 15119 0a8a 18        		.byte	0x18
 15120 0a8b 00        		.byte	0x0
 15121 0a8c 03        		.uleb128 0x3
 15122 0a8d 02        		.byte	0x2
 15123 0a8e 0000      		.2byte	.LM376
 15124 0a90 15        		.byte	0x15
 15125 0a91 00        		.byte	0x0
 15126 0a92 03        		.uleb128 0x3
 15127 0a93 02        		.byte	0x2
 15128 0a94 0000      		.2byte	.LM377
 15129 0a96 15        		.byte	0x15
 15130 0a97 00        		.byte	0x0
 15131 0a98 03        		.uleb128 0x3
GAS LISTING /tmp/ccvQL2RB.s 			page 273


 15132 0a99 02        		.byte	0x2
 15133 0a9a 0000      		.2byte	.LM378
 15134 0a9c 15        		.byte	0x15
 15135 0a9d 00        		.byte	0x0
 15136 0a9e 03        		.uleb128 0x3
 15137 0a9f 02        		.byte	0x2
 15138 0aa0 0000      		.2byte	.LM379
 15139 0aa2 15        		.byte	0x15
 15140 0aa3 00        		.byte	0x0
 15141 0aa4 03        		.uleb128 0x3
 15142 0aa5 02        		.byte	0x2
 15143 0aa6 0000      		.2byte	.LM380
 15144 0aa8 0C        		.byte	0xc
 15145 0aa9 00        		.byte	0x0
 15146 0aaa 03        		.uleb128 0x3
 15147 0aab 02        		.byte	0x2
 15148 0aac 0000      		.2byte	.LM381
 15149 0aae 1F        		.byte	0x1f
 15150 0aaf 00        		.byte	0x0
 15151 0ab0 03        		.uleb128 0x3
 15152 0ab1 02        		.byte	0x2
 15153 0ab2 0000      		.2byte	.LM382
 15154 0ab4 01        		.byte	0x1
 15155 0ab5 00        		.byte	0x0
 15156 0ab6 03        		.uleb128 0x3
 15157 0ab7 02        		.byte	0x2
 15158 0ab8 0000      		.2byte	.LM383
 15159 0aba 22        		.byte	0x22
 15160 0abb 00        		.byte	0x0
 15161 0abc 03        		.uleb128 0x3
 15162 0abd 02        		.byte	0x2
 15163 0abe 0000      		.2byte	.LM384
 15164 0ac0 10        		.byte	0x10
 15165 0ac1 00        		.byte	0x0
 15166 0ac2 03        		.uleb128 0x3
 15167 0ac3 02        		.byte	0x2
 15168 0ac4 0000      		.2byte	.LM385
 15169 0ac6 15        		.byte	0x15
 15170 0ac7 00        		.byte	0x0
 15171 0ac8 03        		.uleb128 0x3
 15172 0ac9 02        		.byte	0x2
 15173 0aca 0000      		.2byte	.LM386
 15174 0acc 16        		.byte	0x16
 15175 0acd 00        		.byte	0x0
 15176 0ace 03        		.uleb128 0x3
 15177 0acf 02        		.byte	0x2
 15178 0ad0 0000      		.2byte	.LM387
 15179 0ad2 15        		.byte	0x15
 15180 0ad3 00        		.byte	0x0
 15181 0ad4 03        		.uleb128 0x3
 15182 0ad5 02        		.byte	0x2
 15183 0ad6 0000      		.2byte	.LM388
 15184 0ad8 17        		.byte	0x17
 15185 0ad9 00        		.byte	0x0
 15186 0ada 03        		.uleb128 0x3
 15187 0adb 02        		.byte	0x2
 15188 0adc 0000      		.2byte	.LM389
GAS LISTING /tmp/ccvQL2RB.s 			page 274


 15189 0ade 03        		.byte	0x3
 15190 0adf 907D      		.sleb128 -368
 15191 0ae1 01        		.byte	0x1
 15192 0ae2 00        		.byte	0x0
 15193 0ae3 03        		.uleb128 0x3
 15194 0ae4 02        		.byte	0x2
 15195 0ae5 0000      		.2byte	.LM390
 15196 0ae7 0E        		.byte	0xe
 15197 0ae8 00        		.byte	0x0
 15198 0ae9 03        		.uleb128 0x3
 15199 0aea 02        		.byte	0x2
 15200 0aeb 0000      		.2byte	.LM391
 15201 0aed 16        		.byte	0x16
 15202 0aee 00        		.byte	0x0
 15203 0aef 03        		.uleb128 0x3
 15204 0af0 02        		.byte	0x2
 15205 0af1 0000      		.2byte	.LM392
 15206 0af3 15        		.byte	0x15
 15207 0af4 00        		.byte	0x0
 15208 0af5 03        		.uleb128 0x3
 15209 0af6 02        		.byte	0x2
 15210 0af7 0000      		.2byte	.LM393
 15211 0af9 13        		.byte	0x13
 15212 0afa 00        		.byte	0x0
 15213 0afb 03        		.uleb128 0x3
 15214 0afc 02        		.byte	0x2
 15215 0afd 0000      		.2byte	.LM394
 15216 0aff 17        		.byte	0x17
 15217 0b00 00        		.byte	0x0
 15218 0b01 03        		.uleb128 0x3
 15219 0b02 02        		.byte	0x2
 15220 0b03 0000      		.2byte	.LM395
 15221 0b05 10        		.byte	0x10
 15222 0b06 00        		.byte	0x0
 15223 0b07 03        		.uleb128 0x3
 15224 0b08 02        		.byte	0x2
 15225 0b09 0000      		.2byte	.LM396
 15226 0b0b 19        		.byte	0x19
 15227 0b0c 00        		.byte	0x0
 15228 0b0d 03        		.uleb128 0x3
 15229 0b0e 02        		.byte	0x2
 15230 0b0f 0000      		.2byte	.LM397
 15231 0b11 03        		.byte	0x3
 15232 0b12 F502      		.sleb128 373
 15233 0b14 01        		.byte	0x1
 15234 0b15 00        		.byte	0x0
 15235 0b16 03        		.uleb128 0x3
 15236 0b17 02        		.byte	0x2
 15237 0b18 0000      		.2byte	.LM398
 15238 0b1a 03        		.byte	0x3
 15239 0b1b 857D      		.sleb128 -379
 15240 0b1d 01        		.byte	0x1
 15241 0b1e 00        		.byte	0x0
 15242 0b1f 03        		.uleb128 0x3
 15243 0b20 02        		.byte	0x2
 15244 0b21 0000      		.2byte	.LM399
 15245 0b23 16        		.byte	0x16
GAS LISTING /tmp/ccvQL2RB.s 			page 275


 15246 0b24 00        		.byte	0x0
 15247 0b25 03        		.uleb128 0x3
 15248 0b26 02        		.byte	0x2
 15249 0b27 0000      		.2byte	.LM400
 15250 0b29 15        		.byte	0x15
 15251 0b2a 00        		.byte	0x0
 15252 0b2b 03        		.uleb128 0x3
 15253 0b2c 02        		.byte	0x2
 15254 0b2d 0000      		.2byte	.LM401
 15255 0b2f 13        		.byte	0x13
 15256 0b30 00        		.byte	0x0
 15257 0b31 03        		.uleb128 0x3
 15258 0b32 02        		.byte	0x2
 15259 0b33 0000      		.2byte	.LM402
 15260 0b35 17        		.byte	0x17
 15261 0b36 00        		.byte	0x0
 15262 0b37 03        		.uleb128 0x3
 15263 0b38 02        		.byte	0x2
 15264 0b39 0000      		.2byte	.LM403
 15265 0b3b 10        		.byte	0x10
 15266 0b3c 00        		.byte	0x0
 15267 0b3d 03        		.uleb128 0x3
 15268 0b3e 02        		.byte	0x2
 15269 0b3f 0000      		.2byte	.LM404
 15270 0b41 19        		.byte	0x19
 15271 0b42 00        		.byte	0x0
 15272 0b43 03        		.uleb128 0x3
 15273 0b44 02        		.byte	0x2
 15274 0b45 0000      		.2byte	.LM405
 15275 0b47 03        		.byte	0x3
 15276 0b48 F702      		.sleb128 375
 15277 0b4a 01        		.byte	0x1
 15278 0b4b 00        		.byte	0x0
 15279 0b4c 03        		.uleb128 0x3
 15280 0b4d 02        		.byte	0x2
 15281 0b4e 0000      		.2byte	.LM406
 15282 0b50 03        		.byte	0x3
 15283 0b51 837D      		.sleb128 -381
 15284 0b53 01        		.byte	0x1
 15285 0b54 00        		.byte	0x0
 15286 0b55 03        		.uleb128 0x3
 15287 0b56 02        		.byte	0x2
 15288 0b57 0000      		.2byte	.LM407
 15289 0b59 16        		.byte	0x16
 15290 0b5a 00        		.byte	0x0
 15291 0b5b 03        		.uleb128 0x3
 15292 0b5c 02        		.byte	0x2
 15293 0b5d 0000      		.2byte	.LM408
 15294 0b5f 15        		.byte	0x15
 15295 0b60 00        		.byte	0x0
 15296 0b61 03        		.uleb128 0x3
 15297 0b62 02        		.byte	0x2
 15298 0b63 0000      		.2byte	.LM409
 15299 0b65 13        		.byte	0x13
 15300 0b66 00        		.byte	0x0
 15301 0b67 03        		.uleb128 0x3
 15302 0b68 02        		.byte	0x2
GAS LISTING /tmp/ccvQL2RB.s 			page 276


 15303 0b69 0000      		.2byte	.LM410
 15304 0b6b 17        		.byte	0x17
 15305 0b6c 00        		.byte	0x0
 15306 0b6d 03        		.uleb128 0x3
 15307 0b6e 02        		.byte	0x2
 15308 0b6f 0000      		.2byte	.LM411
 15309 0b71 10        		.byte	0x10
 15310 0b72 00        		.byte	0x0
 15311 0b73 03        		.uleb128 0x3
 15312 0b74 02        		.byte	0x2
 15313 0b75 0000      		.2byte	.LM412
 15314 0b77 19        		.byte	0x19
 15315 0b78 00        		.byte	0x0
 15316 0b79 03        		.uleb128 0x3
 15317 0b7a 02        		.byte	0x2
 15318 0b7b 0000      		.2byte	.LM413
 15319 0b7d 03        		.byte	0x3
 15320 0b7e F902      		.sleb128 377
 15321 0b80 01        		.byte	0x1
 15322 0b81 00        		.byte	0x0
 15323 0b82 03        		.uleb128 0x3
 15324 0b83 02        		.byte	0x2
 15325 0b84 0000      		.2byte	.LM414
 15326 0b86 15        		.byte	0x15
 15327 0b87 00        		.byte	0x0
 15328 0b88 03        		.uleb128 0x3
 15329 0b89 02        		.byte	0x2
 15330 0b8a 0000      		.2byte	.LM415
 15331 0b8c 15        		.byte	0x15
 15332 0b8d 00        		.byte	0x0
 15333 0b8e 03        		.uleb128 0x3
 15334 0b8f 02        		.byte	0x2
 15335 0b90 0000      		.2byte	.LM416
 15336 0b92 15        		.byte	0x15
 15337 0b93 00        		.byte	0x0
 15338 0b94 03        		.uleb128 0x3
 15339 0b95 02        		.byte	0x2
 15340 0b96 0000      		.2byte	.LM417
 15341 0b98 03        		.byte	0x3
 15342 0b99 FE7C      		.sleb128 -386
 15343 0b9b 01        		.byte	0x1
 15344 0b9c 00        		.byte	0x0
 15345 0b9d 03        		.uleb128 0x3
 15346 0b9e 02        		.byte	0x2
 15347 0b9f 0000      		.2byte	.LM418
 15348 0ba1 16        		.byte	0x16
 15349 0ba2 00        		.byte	0x0
 15350 0ba3 03        		.uleb128 0x3
 15351 0ba4 02        		.byte	0x2
 15352 0ba5 0000      		.2byte	.LM419
 15353 0ba7 15        		.byte	0x15
 15354 0ba8 00        		.byte	0x0
 15355 0ba9 03        		.uleb128 0x3
 15356 0baa 02        		.byte	0x2
 15357 0bab 0000      		.2byte	.LM420
 15358 0bad 13        		.byte	0x13
 15359 0bae 00        		.byte	0x0
GAS LISTING /tmp/ccvQL2RB.s 			page 277


 15360 0baf 03        		.uleb128 0x3
 15361 0bb0 02        		.byte	0x2
 15362 0bb1 0000      		.2byte	.LM421
 15363 0bb3 17        		.byte	0x17
 15364 0bb4 00        		.byte	0x0
 15365 0bb5 03        		.uleb128 0x3
 15366 0bb6 02        		.byte	0x2
 15367 0bb7 0000      		.2byte	.LM422
 15368 0bb9 10        		.byte	0x10
 15369 0bba 00        		.byte	0x0
 15370 0bbb 03        		.uleb128 0x3
 15371 0bbc 02        		.byte	0x2
 15372 0bbd 0000      		.2byte	.LM423
 15373 0bbf 19        		.byte	0x19
 15374 0bc0 00        		.byte	0x0
 15375 0bc1 03        		.uleb128 0x3
 15376 0bc2 02        		.byte	0x2
 15377 0bc3 0000      		.2byte	.LM424
 15378 0bc5 03        		.byte	0x3
 15379 0bc6 8003      		.sleb128 384
 15380 0bc8 01        		.byte	0x1
 15381 0bc9 00        		.byte	0x0
 15382 0bca 03        		.uleb128 0x3
 15383 0bcb 02        		.byte	0x2
 15384 0bcc 0000      		.2byte	.LM425
 15385 0bce 16        		.byte	0x16
 15386 0bcf 00        		.byte	0x0
 15387 0bd0 03        		.uleb128 0x3
 15388 0bd1 02        		.byte	0x2
 15389 0bd2 0000      		.2byte	.LM426
 15390 0bd4 15        		.byte	0x15
 15391 0bd5 00        		.byte	0x0
 15392 0bd6 03        		.uleb128 0x3
 15393 0bd7 02        		.byte	0x2
 15394 0bd8 0000      		.2byte	.LM427
 15395 0bda 0B        		.byte	0xb
 15396 0bdb 00        		.byte	0x0
 15397 0bdc 03        		.uleb128 0x3
 15398 0bdd 02        		.byte	0x2
 15399 0bde 0000      		.2byte	.LM428
 15400 0be0 15        		.byte	0x15
 15401 0be1 00        		.byte	0x0
 15402 0be2 03        		.uleb128 0x3
 15403 0be3 02        		.byte	0x2
 15404 0be4 0000      		.2byte	.LM429
 15405 0be6 15        		.byte	0x15
 15406 0be7 00        		.byte	0x0
 15407 0be8 03        		.uleb128 0x3
 15408 0be9 02        		.byte	0x2
 15409 0bea 0000      		.2byte	.LM430
 15410 0bec 03        		.byte	0x3
 15411 0bed FE7C      		.sleb128 -386
 15412 0bef 01        		.byte	0x1
 15413 0bf0 00        		.byte	0x0
 15414 0bf1 03        		.uleb128 0x3
 15415 0bf2 02        		.byte	0x2
 15416 0bf3 0000      		.2byte	.LM431
GAS LISTING /tmp/ccvQL2RB.s 			page 278


 15417 0bf5 16        		.byte	0x16
 15418 0bf6 00        		.byte	0x0
 15419 0bf7 03        		.uleb128 0x3
 15420 0bf8 02        		.byte	0x2
 15421 0bf9 0000      		.2byte	.LM432
 15422 0bfb 15        		.byte	0x15
 15423 0bfc 00        		.byte	0x0
 15424 0bfd 03        		.uleb128 0x3
 15425 0bfe 02        		.byte	0x2
 15426 0bff 0000      		.2byte	.LM433
 15427 0c01 13        		.byte	0x13
 15428 0c02 00        		.byte	0x0
 15429 0c03 03        		.uleb128 0x3
 15430 0c04 02        		.byte	0x2
 15431 0c05 0000      		.2byte	.LM434
 15432 0c07 17        		.byte	0x17
 15433 0c08 00        		.byte	0x0
 15434 0c09 03        		.uleb128 0x3
 15435 0c0a 02        		.byte	0x2
 15436 0c0b 0000      		.2byte	.LM435
 15437 0c0d 10        		.byte	0x10
 15438 0c0e 00        		.byte	0x0
 15439 0c0f 03        		.uleb128 0x3
 15440 0c10 02        		.byte	0x2
 15441 0c11 0000      		.2byte	.LM436
 15442 0c13 19        		.byte	0x19
 15443 0c14 00        		.byte	0x0
 15444 0c15 03        		.uleb128 0x3
 15445 0c16 02        		.byte	0x2
 15446 0c17 0000      		.2byte	.LM437
 15447 0c19 03        		.byte	0x3
 15448 0c1a FA02      		.sleb128 378
 15449 0c1c 01        		.byte	0x1
 15450 0c1d 00        		.byte	0x0
 15451 0c1e 03        		.uleb128 0x3
 15452 0c1f 02        		.byte	0x2
 15453 0c20 0000      		.2byte	.LM438
 15454 0c22 15        		.byte	0x15
 15455 0c23 00        		.byte	0x0
 15456 0c24 03        		.uleb128 0x3
 15457 0c25 02        		.byte	0x2
 15458 0c26 0000      		.2byte	.LM439
 15459 0c28 15        		.byte	0x15
 15460 0c29 00        		.byte	0x0
 15461 0c2a 03        		.uleb128 0x3
 15462 0c2b 02        		.byte	0x2
 15463 0c2c 0000      		.2byte	.LM440
 15464 0c2e 03        		.byte	0x3
 15465 0c2f FE7C      		.sleb128 -386
 15466 0c31 01        		.byte	0x1
 15467 0c32 00        		.byte	0x0
 15468 0c33 03        		.uleb128 0x3
 15469 0c34 02        		.byte	0x2
 15470 0c35 0000      		.2byte	.LM441
 15471 0c37 16        		.byte	0x16
 15472 0c38 00        		.byte	0x0
 15473 0c39 03        		.uleb128 0x3
GAS LISTING /tmp/ccvQL2RB.s 			page 279


 15474 0c3a 02        		.byte	0x2
 15475 0c3b 0000      		.2byte	.LM442
 15476 0c3d 15        		.byte	0x15
 15477 0c3e 00        		.byte	0x0
 15478 0c3f 03        		.uleb128 0x3
 15479 0c40 02        		.byte	0x2
 15480 0c41 0000      		.2byte	.LM443
 15481 0c43 13        		.byte	0x13
 15482 0c44 00        		.byte	0x0
 15483 0c45 03        		.uleb128 0x3
 15484 0c46 02        		.byte	0x2
 15485 0c47 0000      		.2byte	.LM444
 15486 0c49 17        		.byte	0x17
 15487 0c4a 00        		.byte	0x0
 15488 0c4b 03        		.uleb128 0x3
 15489 0c4c 02        		.byte	0x2
 15490 0c4d 0000      		.2byte	.LM445
 15491 0c4f 10        		.byte	0x10
 15492 0c50 00        		.byte	0x0
 15493 0c51 03        		.uleb128 0x3
 15494 0c52 02        		.byte	0x2
 15495 0c53 0000      		.2byte	.LM446
 15496 0c55 19        		.byte	0x19
 15497 0c56 00        		.byte	0x0
 15498 0c57 03        		.uleb128 0x3
 15499 0c58 02        		.byte	0x2
 15500 0c59 0000      		.2byte	.LM447
 15501 0c5b 03        		.byte	0x3
 15502 0c5c 8603      		.sleb128 390
 15503 0c5e 01        		.byte	0x1
 15504 0c5f 00        		.byte	0x0
 15505 0c60 03        		.uleb128 0x3
 15506 0c61 02        		.byte	0x2
 15507 0c62 0000      		.2byte	.LM448
 15508 0c64 16        		.byte	0x16
 15509 0c65 00        		.byte	0x0
 15510 0c66 03        		.uleb128 0x3
 15511 0c67 02        		.byte	0x2
 15512 0c68 0000      		.2byte	.LM449
 15513 0c6a 15        		.byte	0x15
 15514 0c6b 00        		.byte	0x0
 15515 0c6c 03        		.uleb128 0x3
 15516 0c6d 02        		.byte	0x2
 15517 0c6e 0000      		.2byte	.LM450
 15518 0c70 15        		.byte	0x15
 15519 0c71 00        		.byte	0x0
 15520 0c72 03        		.uleb128 0x3
 15521 0c73 02        		.byte	0x2
 15522 0c74 0000      		.2byte	.LM451
 15523 0c76 15        		.byte	0x15
 15524 0c77 00        		.byte	0x0
 15525 0c78 03        		.uleb128 0x3
 15526 0c79 02        		.byte	0x2
 15527 0c7a 0000      		.2byte	.LM452
 15528 0c7c 30        		.byte	0x30
 15529 0c7d 00        		.byte	0x0
 15530 0c7e 03        		.uleb128 0x3
GAS LISTING /tmp/ccvQL2RB.s 			page 280


 15531 0c7f 02        		.byte	0x2
 15532 0c80 0000      		.2byte	.LM453
 15533 0c82 17        		.byte	0x17
 15534 0c83 00        		.byte	0x0
 15535 0c84 03        		.uleb128 0x3
 15536 0c85 02        		.byte	0x2
 15537 0c86 0000      		.2byte	.LM454
 15538 0c88 03        		.byte	0x3
 15539 0c89 EC02      		.sleb128 364
 15540 0c8b 01        		.byte	0x1
 15541 0c8c 00        		.byte	0x0
 15542 0c8d 03        		.uleb128 0x3
 15543 0c8e 02        		.byte	0x2
 15544 0c8f 0000      		.2byte	.LM455
 15545 0c91 03        		.byte	0x3
 15546 0c92 E67A      		.sleb128 -666
 15547 0c94 01        		.byte	0x1
 15548 0c95 00        		.byte	0x0
 15549 0c96 03        		.uleb128 0x3
 15550 0c97 02        		.byte	0x2
 15551 0c98 0000      		.2byte	.LM456
 15552 0c9a 03        		.byte	0x3
 15553 0c9b FE7E      		.sleb128 -130
 15554 0c9d 01        		.byte	0x1
 15555 0c9e 00        		.byte	0x0
 15556 0c9f 03        		.uleb128 0x3
 15557 0ca0 02        		.byte	0x2
 15558 0ca1 0000      		.2byte	.LM457
 15559 0ca3 16        		.byte	0x16
 15560 0ca4 00        		.byte	0x0
 15561 0ca5 03        		.uleb128 0x3
 15562 0ca6 02        		.byte	0x2
 15563 0ca7 0000      		.2byte	.LM458
 15564 0ca9 15        		.byte	0x15
 15565 0caa 00        		.byte	0x0
 15566 0cab 03        		.uleb128 0x3
 15567 0cac 02        		.byte	0x2
 15568 0cad 0000      		.2byte	.LM459
 15569 0caf 13        		.byte	0x13
 15570 0cb0 00        		.byte	0x0
 15571 0cb1 03        		.uleb128 0x3
 15572 0cb2 02        		.byte	0x2
 15573 0cb3 0000      		.2byte	.LM460
 15574 0cb5 17        		.byte	0x17
 15575 0cb6 00        		.byte	0x0
 15576 0cb7 03        		.uleb128 0x3
 15577 0cb8 02        		.byte	0x2
 15578 0cb9 0000      		.2byte	.LM461
 15579 0cbb 10        		.byte	0x10
 15580 0cbc 00        		.byte	0x0
 15581 0cbd 03        		.uleb128 0x3
 15582 0cbe 02        		.byte	0x2
 15583 0cbf 0000      		.2byte	.LM462
 15584 0cc1 19        		.byte	0x19
 15585 0cc2 00        		.byte	0x0
 15586 0cc3 03        		.uleb128 0x3
 15587 0cc4 02        		.byte	0x2
GAS LISTING /tmp/ccvQL2RB.s 			page 281


 15588 0cc5 0000      		.2byte	.LM463
 15589 0cc7 92        		.byte	0x92
 15590 0cc8 00        		.byte	0x0
 15591 0cc9 03        		.uleb128 0x3
 15592 0cca 02        		.byte	0x2
 15593 0ccb 0000      		.2byte	.LM464
 15594 0ccd 12        		.byte	0x12
 15595 0cce 00        		.byte	0x0
 15596 0ccf 03        		.uleb128 0x3
 15597 0cd0 02        		.byte	0x2
 15598 0cd1 0000      		.2byte	.LM465
 15599 0cd3 03        		.byte	0x3
 15600 0cd4 9D05      		.sleb128 669
 15601 0cd6 01        		.byte	0x1
 15602 0cd7 00        		.byte	0x0
 15603 0cd8 03        		.uleb128 0x3
 15604 0cd9 02        		.byte	0x2
 15605 0cda 0000      		.2byte	.LM466
 15606 0cdc 03        		.byte	0x3
 15607 0cdd 917D      		.sleb128 -367
 15608 0cdf 01        		.byte	0x1
 15609 0ce0 00        		.byte	0x0
 15610 0ce1 03        		.uleb128 0x3
 15611 0ce2 02        		.byte	0x2
 15612 0ce3 0000      		.2byte	.LM467
 15613 0ce5 03        		.byte	0x3
 15614 0ce6 DE7C      		.sleb128 -418
 15615 0ce8 01        		.byte	0x1
 15616 0ce9 00        		.byte	0x0
 15617 0cea 03        		.uleb128 0x3
 15618 0ceb 02        		.byte	0x2
 15619 0cec 0000      		.2byte	.LM468
 15620 0cee 13        		.byte	0x13
 15621 0cef 00        		.byte	0x0
 15622 0cf0 03        		.uleb128 0x3
 15623 0cf1 02        		.byte	0x2
 15624 0cf2 0000      		.2byte	.LM469
 15625 0cf4 17        		.byte	0x17
 15626 0cf5 00        		.byte	0x0
 15627 0cf6 03        		.uleb128 0x3
 15628 0cf7 02        		.byte	0x2
 15629 0cf8 0000      		.2byte	.LM470
 15630 0cfa 15        		.byte	0x15
 15631 0cfb 00        		.byte	0x0
 15632 0cfc 03        		.uleb128 0x3
 15633 0cfd 02        		.byte	0x2
 15634 0cfe 0000      		.2byte	.LM471
 15635 0d00 AD        		.byte	0xad
 15636 0d01 00        		.byte	0x0
 15637 0d02 03        		.uleb128 0x3
 15638 0d03 02        		.byte	0x2
 15639 0d04 0000      		.2byte	.LM472
 15640 0d06 13        		.byte	0x13
 15641 0d07 00        		.byte	0x0
 15642 0d08 03        		.uleb128 0x3
 15643 0d09 02        		.byte	0x2
 15644 0d0a 0000      		.2byte	.LM473
GAS LISTING /tmp/ccvQL2RB.s 			page 282


 15645 0d0c 17        		.byte	0x17
 15646 0d0d 00        		.byte	0x0
 15647 0d0e 03        		.uleb128 0x3
 15648 0d0f 02        		.byte	0x2
 15649 0d10 0000      		.2byte	.LM474
 15650 0d12 03        		.byte	0x3
 15651 0d13 9A04      		.sleb128 538
 15652 0d15 01        		.byte	0x1
 15653 0d16 00        		.byte	0x0
 15654 0d17 03        		.uleb128 0x3
 15655 0d18 02        		.byte	0x2
 15656 0d19 0000      		.2byte	.LM475
 15657 0d1b 1D        		.byte	0x1d
 15658 0d1c 00        		.byte	0x0
 15659 0d1d 03        		.uleb128 0x3
 15660 0d1e 02        		.byte	0x2
 15661 0d1f 0000      		.2byte	.LM476
 15662 0d21 15        		.byte	0x15
 15663 0d22 00        		.byte	0x0
 15664 0d23 03        		.uleb128 0x3
 15665 0d24 02        		.byte	0x2
 15666 0d25 0000      		.2byte	.LM477
 15667 0d27 03        		.byte	0x3
 15668 0d28 F77C      		.sleb128 -393
 15669 0d2a 01        		.byte	0x1
 15670 0d2b 00        		.byte	0x0
 15671 0d2c 03        		.uleb128 0x3
 15672 0d2d 02        		.byte	0x2
 15673 0d2e 0000      		.2byte	.LM478
 15674 0d30 15        		.byte	0x15
 15675 0d31 00        		.byte	0x0
 15676 0d32 03        		.uleb128 0x3
 15677 0d33 02        		.byte	0x2
 15678 0d34 0000      		.2byte	.LM479
 15679 0d36 18        		.byte	0x18
 15680 0d37 00        		.byte	0x0
 15681 0d38 03        		.uleb128 0x3
 15682 0d39 02        		.byte	0x2
 15683 0d3a 0000      		.2byte	.LM480
 15684 0d3c 03        		.byte	0x3
 15685 0d3d DE7E      		.sleb128 -162
 15686 0d3f 01        		.byte	0x1
 15687 0d40 00        		.byte	0x0
 15688 0d41 03        		.uleb128 0x3
 15689 0d42 02        		.byte	0x2
 15690 0d43 0000      		.2byte	.LM481
 15691 0d45 13        		.byte	0x13
 15692 0d46 00        		.byte	0x0
 15693 0d47 03        		.uleb128 0x3
 15694 0d48 02        		.byte	0x2
 15695 0d49 0000      		.2byte	.LM482
 15696 0d4b 17        		.byte	0x17
 15697 0d4c 00        		.byte	0x0
 15698 0d4d 03        		.uleb128 0x3
 15699 0d4e 02        		.byte	0x2
 15700 0d4f 0000      		.2byte	.LM483
 15701 0d51 03        		.byte	0x3
GAS LISTING /tmp/ccvQL2RB.s 			page 283


 15702 0d52 F903      		.sleb128 505
 15703 0d54 01        		.byte	0x1
 15704 0d55 00        		.byte	0x0
 15705 0d56 03        		.uleb128 0x3
 15706 0d57 02        		.byte	0x2
 15707 0d58 0000      		.2byte	.LM484
 15708 0d5a 03        		.byte	0x3
 15709 0d5b B47F      		.sleb128 -76
 15710 0d5d 01        		.byte	0x1
 15711 0d5e 00        		.byte	0x0
 15712 0d5f 03        		.uleb128 0x3
 15713 0d60 02        		.byte	0x2
 15714 0d61 0000      		.2byte	.LM485
 15715 0d63 15        		.byte	0x15
 15716 0d64 00        		.byte	0x0
 15717 0d65 03        		.uleb128 0x3
 15718 0d66 02        		.byte	0x2
 15719 0d67 0000      		.2byte	.LM486
 15720 0d69 0F        		.byte	0xf
 15721 0d6a 00        		.byte	0x0
 15722 0d6b 03        		.uleb128 0x3
 15723 0d6c 02        		.byte	0x2
 15724 0d6d 0000      		.2byte	.LM487
 15725 0d6f 15        		.byte	0x15
 15726 0d70 00        		.byte	0x0
 15727 0d71 03        		.uleb128 0x3
 15728 0d72 02        		.byte	0x2
 15729 0d73 0000      		.2byte	.LM488
 15730 0d75 0F        		.byte	0xf
 15731 0d76 00        		.byte	0x0
 15732 0d77 03        		.uleb128 0x3
 15733 0d78 02        		.byte	0x2
 15734 0d79 0000      		.2byte	.LM489
 15735 0d7b 15        		.byte	0x15
 15736 0d7c 00        		.byte	0x0
 15737 0d7d 03        		.uleb128 0x3
 15738 0d7e 02        		.byte	0x2
 15739 0d7f 0000      		.2byte	.LM490
 15740 0d81 0C        		.byte	0xc
 15741 0d82 00        		.byte	0x0
 15742 0d83 03        		.uleb128 0x3
 15743 0d84 02        		.byte	0x2
 15744 0d85 0000      		.2byte	.LM491
 15745 0d87 03        		.byte	0x3
 15746 0d88 E07C      		.sleb128 -416
 15747 0d8a 01        		.byte	0x1
 15748 0d8b 00        		.byte	0x0
 15749 0d8c 03        		.uleb128 0x3
 15750 0d8d 02        		.byte	0x2
 15751 0d8e 0000      		.2byte	.LM492
 15752 0d90 13        		.byte	0x13
 15753 0d91 00        		.byte	0x0
 15754 0d92 03        		.uleb128 0x3
 15755 0d93 02        		.byte	0x2
 15756 0d94 0000      		.2byte	.LM493
 15757 0d96 17        		.byte	0x17
 15758 0d97 00        		.byte	0x0
GAS LISTING /tmp/ccvQL2RB.s 			page 284


 15759 0d98 03        		.uleb128 0x3
 15760 0d99 02        		.byte	0x2
 15761 0d9a 0000      		.2byte	.LM494
 15762 0d9c 03        		.byte	0x3
 15763 0d9d A203      		.sleb128 418
 15764 0d9f 01        		.byte	0x1
 15765 0da0 00        		.byte	0x0
 15766 0da1 03        		.uleb128 0x3
 15767 0da2 02        		.byte	0x2
 15768 0da3 0000      		.2byte	.LM495
 15769 0da5 0F        		.byte	0xf
 15770 0da6 00        		.byte	0x0
 15771 0da7 03        		.uleb128 0x3
 15772 0da8 02        		.byte	0x2
 15773 0da9 0000      		.2byte	.LM496
 15774 0dab 15        		.byte	0x15
 15775 0dac 00        		.byte	0x0
 15776 0dad 03        		.uleb128 0x3
 15777 0dae 02        		.byte	0x2
 15778 0daf 0000      		.2byte	.LM497
 15779 0db1 03        		.byte	0x3
 15780 0db2 D57C      		.sleb128 -427
 15781 0db4 01        		.byte	0x1
 15782 0db5 00        		.byte	0x0
 15783 0db6 03        		.uleb128 0x3
 15784 0db7 02        		.byte	0x2
 15785 0db8 0000      		.2byte	.LM498
 15786 0dba 16        		.byte	0x16
 15787 0dbb 00        		.byte	0x0
 15788 0dbc 03        		.uleb128 0x3
 15789 0dbd 02        		.byte	0x2
 15790 0dbe 0000      		.2byte	.LM499
 15791 0dc0 13        		.byte	0x13
 15792 0dc1 00        		.byte	0x0
 15793 0dc2 03        		.uleb128 0x3
 15794 0dc3 02        		.byte	0x2
 15795 0dc4 0000      		.2byte	.LM500
 15796 0dc6 03        		.byte	0x3
 15797 0dc7 DC04      		.sleb128 604
 15798 0dc9 01        		.byte	0x1
 15799 0dca 00        		.byte	0x0
 15800 0dcb 03        		.uleb128 0x3
 15801 0dcc 02        		.byte	0x2
 15802 0dcd 0000      		.2byte	.LM501
 15803 0dcf 15        		.byte	0x15
 15804 0dd0 00        		.byte	0x0
 15805 0dd1 03        		.uleb128 0x3
 15806 0dd2 02        		.byte	0x2
 15807 0dd3 0000      		.2byte	.LM502
 15808 0dd5 03        		.byte	0x3
 15809 0dd6 BC7E      		.sleb128 -196
 15810 0dd8 01        		.byte	0x1
 15811 0dd9 00        		.byte	0x0
 15812 0dda 03        		.uleb128 0x3
 15813 0ddb 02        		.byte	0x2
 15814 0ddc 0000      		.2byte	.LM503
 15815 0dde 1A        		.byte	0x1a
GAS LISTING /tmp/ccvQL2RB.s 			page 285


 15816 0ddf 00        		.byte	0x0
 15817 0de0 03        		.uleb128 0x3
 15818 0de1 02        		.byte	0x2
 15819 0de2 0000      		.2byte	.LM504
 15820 0de4 13        		.byte	0x13
 15821 0de5 00        		.byte	0x0
 15822 0de6 03        		.uleb128 0x3
 15823 0de7 02        		.byte	0x2
 15824 0de8 0000      		.2byte	.LM505
 15825 0dea 03        		.byte	0x3
 15826 0deb F37C      		.sleb128 -397
 15827 0ded 01        		.byte	0x1
 15828 0dee 00        		.byte	0x0
 15829 0def 03        		.uleb128 0x3
 15830 0df0 02        		.byte	0x2
 15831 0df1 0000      		.2byte	.LM506
 15832 0df3 15        		.byte	0x15
 15833 0df4 00        		.byte	0x0
 15834 0df5 03        		.uleb128 0x3
 15835 0df6 02        		.byte	0x2
 15836 0df7 0000      		.2byte	.LM507
 15837 0df9 03        		.byte	0x3
 15838 0dfa 6D        		.sleb128 -19
 15839 0dfb 01        		.byte	0x1
 15840 0dfc 00        		.byte	0x0
 15841 0dfd 03        		.uleb128 0x3
 15842 0dfe 02        		.byte	0x2
 15843 0dff 0000      		.2byte	.LM508
 15844 0e01 16        		.byte	0x16
 15845 0e02 00        		.byte	0x0
 15846 0e03 03        		.uleb128 0x3
 15847 0e04 02        		.byte	0x2
 15848 0e05 0000      		.2byte	.LM509
 15849 0e07 13        		.byte	0x13
 15850 0e08 00        		.byte	0x0
 15851 0e09 03        		.uleb128 0x3
 15852 0e0a 02        		.byte	0x2
 15853 0e0b 0000      		.2byte	.LM510
 15854 0e0d 03        		.byte	0x3
 15855 0e0e 9703      		.sleb128 407
 15856 0e10 01        		.byte	0x1
 15857 0e11 00        		.byte	0x0
 15858 0e12 03        		.uleb128 0x3
 15859 0e13 02        		.byte	0x2
 15860 0e14 0000      		.2byte	.LM511
 15861 0e16 15        		.byte	0x15
 15862 0e17 00        		.byte	0x0
 15863 0e18 03        		.uleb128 0x3
 15864 0e19 02        		.byte	0x2
 15865 0e1a 0000      		.2byte	.LM512
 15866 0e1c 15        		.byte	0x15
 15867 0e1d 00        		.byte	0x0
 15868 0e1e 03        		.uleb128 0x3
 15869 0e1f 02        		.byte	0x2
 15870 0e20 0000      		.2byte	.LM513
 15871 0e22 03        		.byte	0x3
 15872 0e23 FE7C      		.sleb128 -386
GAS LISTING /tmp/ccvQL2RB.s 			page 286


 15873 0e25 01        		.byte	0x1
 15874 0e26 00        		.byte	0x0
 15875 0e27 03        		.uleb128 0x3
 15876 0e28 02        		.byte	0x2
 15877 0e29 0000      		.2byte	.LM514
 15878 0e2b 15        		.byte	0x15
 15879 0e2c 00        		.byte	0x0
 15880 0e2d 03        		.uleb128 0x3
 15881 0e2e 02        		.byte	0x2
 15882 0e2f 0000      		.2byte	.LM515
 15883 0e31 03        		.byte	0x3
 15884 0e32 FE01      		.sleb128 254
 15885 0e34 01        		.byte	0x1
 15886 0e35 00        		.byte	0x0
 15887 0e36 03        		.uleb128 0x3
 15888 0e37 02        		.byte	0x2
 15889 0e38 0000      		.2byte	.LM516
 15890 0e3a 03        		.byte	0x3
 15891 0e3b EA7D      		.sleb128 -278
 15892 0e3d 01        		.byte	0x1
 15893 0e3e 00        		.byte	0x0
 15894 0e3f 03        		.uleb128 0x3
 15895 0e40 02        		.byte	0x2
 15896 0e41 0000      		.2byte	.LM517
 15897 0e43 15        		.byte	0x15
 15898 0e44 00        		.byte	0x0
 15899 0e45 03        		.uleb128 0x3
 15900 0e46 02        		.byte	0x2
 15901 0e47 0000      		.2byte	.LM518
 15902 0e49 13        		.byte	0x13
 15903 0e4a 00        		.byte	0x0
 15904 0e4b 03        		.uleb128 0x3
 15905 0e4c 02        		.byte	0x2
 15906 0e4d 0000      		.2byte	.LM519
 15907 0e4f 03        		.byte	0x3
 15908 0e50 E07E      		.sleb128 -160
 15909 0e52 01        		.byte	0x1
 15910 0e53 00        		.byte	0x0
 15911 0e54 03        		.uleb128 0x3
 15912 0e55 02        		.byte	0x2
 15913 0e56 0000      		.2byte	.LM520
 15914 0e58 16        		.byte	0x16
 15915 0e59 00        		.byte	0x0
 15916 0e5a 03        		.uleb128 0x3
 15917 0e5b 02        		.byte	0x2
 15918 0e5c 0000      		.2byte	.LM521
 15919 0e5e 15        		.byte	0x15
 15920 0e5f 00        		.byte	0x0
 15921 0e60 03        		.uleb128 0x3
 15922 0e61 02        		.byte	0x2
 15923 0e62 0000      		.2byte	.LM522
 15924 0e64 13        		.byte	0x13
 15925 0e65 00        		.byte	0x0
 15926 0e66 03        		.uleb128 0x3
 15927 0e67 02        		.byte	0x2
 15928 0e68 0000      		.2byte	.LM523
 15929 0e6a 17        		.byte	0x17
GAS LISTING /tmp/ccvQL2RB.s 			page 287


 15930 0e6b 00        		.byte	0x0
 15931 0e6c 03        		.uleb128 0x3
 15932 0e6d 02        		.byte	0x2
 15933 0e6e 0000      		.2byte	.LM524
 15934 0e70 10        		.byte	0x10
 15935 0e71 00        		.byte	0x0
 15936 0e72 03        		.uleb128 0x3
 15937 0e73 02        		.byte	0x2
 15938 0e74 0000      		.2byte	.LM525
 15939 0e76 19        		.byte	0x19
 15940 0e77 00        		.byte	0x0
 15941 0e78 03        		.uleb128 0x3
 15942 0e79 02        		.byte	0x2
 15943 0e7a 0000      		.2byte	.LM526
 15944 0e7c 0E        		.byte	0xe
 15945 0e7d 00        		.byte	0x0
 15946 0e7e 03        		.uleb128 0x3
 15947 0e7f 02        		.byte	0x2
 15948 0e80 0000      		.2byte	.LM527
 15949 0e82 16        		.byte	0x16
 15950 0e83 00        		.byte	0x0
 15951 0e84 03        		.uleb128 0x3
 15952 0e85 02        		.byte	0x2
 15953 0e86 0000      		.2byte	.LM528
 15954 0e88 15        		.byte	0x15
 15955 0e89 00        		.byte	0x0
 15956 0e8a 03        		.uleb128 0x3
 15957 0e8b 02        		.byte	0x2
 15958 0e8c 0000      		.2byte	.LM529
 15959 0e8e 13        		.byte	0x13
 15960 0e8f 00        		.byte	0x0
 15961 0e90 03        		.uleb128 0x3
 15962 0e91 02        		.byte	0x2
 15963 0e92 0000      		.2byte	.LM530
 15964 0e94 17        		.byte	0x17
 15965 0e95 00        		.byte	0x0
 15966 0e96 03        		.uleb128 0x3
 15967 0e97 02        		.byte	0x2
 15968 0e98 0000      		.2byte	.LM531
 15969 0e9a 10        		.byte	0x10
 15970 0e9b 00        		.byte	0x0
 15971 0e9c 03        		.uleb128 0x3
 15972 0e9d 02        		.byte	0x2
 15973 0e9e 0000      		.2byte	.LM532
 15974 0ea0 19        		.byte	0x19
 15975 0ea1 00        		.byte	0x0
 15976 0ea2 03        		.uleb128 0x3
 15977 0ea3 02        		.byte	0x2
 15978 0ea4 0000      		.2byte	.LM533
 15979 0ea6 03        		.byte	0x3
 15980 0ea7 C505      		.sleb128 709
 15981 0ea9 01        		.byte	0x1
 15982 0eaa 00        		.byte	0x0
 15983 0eab 03        		.uleb128 0x3
 15984 0eac 02        		.byte	0x2
 15985 0ead 0000      		.2byte	.LM534
 15986 0eaf 1C        		.byte	0x1c
GAS LISTING /tmp/ccvQL2RB.s 			page 288


 15987 0eb0 00        		.byte	0x0
 15988 0eb1 03        		.uleb128 0x3
 15989 0eb2 02        		.byte	0x2
 15990 0eb3 0000      		.2byte	.LM535
 15991 0eb5 03        		.byte	0x3
 15992 0eb6 D77B      		.sleb128 -553
 15993 0eb8 01        		.byte	0x1
 15994 0eb9 00        		.byte	0x0
 15995 0eba 03        		.uleb128 0x3
 15996 0ebb 02        		.byte	0x2
 15997 0ebc 0000      		.2byte	.LM536
 15998 0ebe 13        		.byte	0x13
 15999 0ebf 00        		.byte	0x0
 16000 0ec0 03        		.uleb128 0x3
 16001 0ec1 02        		.byte	0x2
 16002 0ec2 0000      		.2byte	.LM537
 16003 0ec4 17        		.byte	0x17
 16004 0ec5 00        		.byte	0x0
 16005 0ec6 03        		.uleb128 0x3
 16006 0ec7 02        		.byte	0x2
 16007 0ec8 0000      		.2byte	.LM538
 16008 0eca 03        		.byte	0x3
 16009 0ecb B004      		.sleb128 560
 16010 0ecd 01        		.byte	0x1
 16011 0ece 00        		.byte	0x0
 16012 0ecf 03        		.uleb128 0x3
 16013 0ed0 02        		.byte	0x2
 16014 0ed1 0000      		.2byte	.LM539
 16015 0ed3 03        		.byte	0x3
 16016 0ed4 74        		.sleb128 -12
 16017 0ed5 01        		.byte	0x1
 16018 0ed6 00        		.byte	0x0
 16019 0ed7 03        		.uleb128 0x3
 16020 0ed8 02        		.byte	0x2
 16021 0ed9 0000      		.2byte	.LM540
 16022 0edb 18        		.byte	0x18
 16023 0edc 00        		.byte	0x0
 16024 0edd 03        		.uleb128 0x3
 16025 0ede 02        		.byte	0x2
 16026 0edf 0000      		.2byte	.LM541
 16027 0ee1 13        		.byte	0x13
 16028 0ee2 00        		.byte	0x0
 16029 0ee3 03        		.uleb128 0x3
 16030 0ee4 02        		.byte	0x2
 16031 0ee5 0000      		.2byte	.LM542
 16032 0ee7 39        		.byte	0x39
 16033 0ee8 00        		.byte	0x0
 16034 0ee9 03        		.uleb128 0x3
 16035 0eea 02        		.byte	0x2
 16036 0eeb 0000      		.2byte	.LM543
 16037 0eed 03        		.byte	0x3
 16038 0eee 887A      		.sleb128 -760
 16039 0ef0 01        		.byte	0x1
 16040 0ef1 00        		.byte	0x0
 16041 0ef2 03        		.uleb128 0x3
 16042 0ef3 02        		.byte	0x2
 16043 0ef4 0000      		.2byte	.LM544
GAS LISTING /tmp/ccvQL2RB.s 			page 289


 16044 0ef6 16        		.byte	0x16
 16045 0ef7 00        		.byte	0x0
 16046 0ef8 03        		.uleb128 0x3
 16047 0ef9 02        		.byte	0x2
 16048 0efa 0000      		.2byte	.LM545
 16049 0efc 15        		.byte	0x15
 16050 0efd 00        		.byte	0x0
 16051 0efe 03        		.uleb128 0x3
 16052 0eff 02        		.byte	0x2
 16053 0f00 0000      		.2byte	.LM546
 16054 0f02 13        		.byte	0x13
 16055 0f03 00        		.byte	0x0
 16056 0f04 03        		.uleb128 0x3
 16057 0f05 02        		.byte	0x2
 16058 0f06 0000      		.2byte	.LM547
 16059 0f08 17        		.byte	0x17
 16060 0f09 00        		.byte	0x0
 16061 0f0a 03        		.uleb128 0x3
 16062 0f0b 02        		.byte	0x2
 16063 0f0c 0000      		.2byte	.LM548
 16064 0f0e 10        		.byte	0x10
 16065 0f0f 00        		.byte	0x0
 16066 0f10 03        		.uleb128 0x3
 16067 0f11 02        		.byte	0x2
 16068 0f12 0000      		.2byte	.LM549
 16069 0f14 19        		.byte	0x19
 16070 0f15 00        		.byte	0x0
 16071 0f16 03        		.uleb128 0x3
 16072 0f17 02        		.byte	0x2
 16073 0f18 0000      		.2byte	.LM550
 16074 0f1a 03        		.byte	0x3
 16075 0f1b F405      		.sleb128 756
 16076 0f1d 01        		.byte	0x1
 16077 0f1e 00        		.byte	0x0
 16078 0f1f 03        		.uleb128 0x3
 16079 0f20 02        		.byte	0x2
 16080 0f21 0000      		.2byte	.LM551
 16081 0f23 03        		.byte	0x3
 16082 0f24 867A      		.sleb128 -762
 16083 0f26 01        		.byte	0x1
 16084 0f27 00        		.byte	0x0
 16085 0f28 03        		.uleb128 0x3
 16086 0f29 02        		.byte	0x2
 16087 0f2a 0000      		.2byte	.LM552
 16088 0f2c 16        		.byte	0x16
 16089 0f2d 00        		.byte	0x0
 16090 0f2e 03        		.uleb128 0x3
 16091 0f2f 02        		.byte	0x2
 16092 0f30 0000      		.2byte	.LM553
 16093 0f32 15        		.byte	0x15
 16094 0f33 00        		.byte	0x0
 16095 0f34 03        		.uleb128 0x3
 16096 0f35 02        		.byte	0x2
 16097 0f36 0000      		.2byte	.LM554
 16098 0f38 13        		.byte	0x13
 16099 0f39 00        		.byte	0x0
 16100 0f3a 03        		.uleb128 0x3
GAS LISTING /tmp/ccvQL2RB.s 			page 290


 16101 0f3b 02        		.byte	0x2
 16102 0f3c 0000      		.2byte	.LM555
 16103 0f3e 17        		.byte	0x17
 16104 0f3f 00        		.byte	0x0
 16105 0f40 03        		.uleb128 0x3
 16106 0f41 02        		.byte	0x2
 16107 0f42 0000      		.2byte	.LM556
 16108 0f44 10        		.byte	0x10
 16109 0f45 00        		.byte	0x0
 16110 0f46 03        		.uleb128 0x3
 16111 0f47 02        		.byte	0x2
 16112 0f48 0000      		.2byte	.LM557
 16113 0f4a 19        		.byte	0x19
 16114 0f4b 00        		.byte	0x0
 16115 0f4c 03        		.uleb128 0x3
 16116 0f4d 02        		.byte	0x2
 16117 0f4e 0000      		.2byte	.LM558
 16118 0f50 03        		.byte	0x3
 16119 0f51 F605      		.sleb128 758
 16120 0f53 01        		.byte	0x1
 16121 0f54 00        		.byte	0x0
 16122 0f55 03        		.uleb128 0x3
 16123 0f56 02        		.byte	0x2
 16124 0f57 0000      		.2byte	.LM559
 16125 0f59 03        		.byte	0x3
 16126 0f5a 69        		.sleb128 -23
 16127 0f5b 01        		.byte	0x1
 16128 0f5c 00        		.byte	0x0
 16129 0f5d 03        		.uleb128 0x3
 16130 0f5e 02        		.byte	0x2
 16131 0f5f 0000      		.2byte	.LM560
 16132 0f61 1B        		.byte	0x1b
 16133 0f62 00        		.byte	0x0
 16134 0f63 03        		.uleb128 0x3
 16135 0f64 02        		.byte	0x2
 16136 0f65 0000      		.2byte	.LM561
 16137 0f67 15        		.byte	0x15
 16138 0f68 00        		.byte	0x0
 16139 0f69 03        		.uleb128 0x3
 16140 0f6a 02        		.byte	0x2
 16141 0f6b 0000      		.2byte	.LM562
 16142 0f6d 15        		.byte	0x15
 16143 0f6e 00        		.byte	0x0
 16144 0f6f 03        		.uleb128 0x3
 16145 0f70 02        		.byte	0x2
 16146 0f71 0000      		.2byte	.LM563
 16147 0f73 03        		.byte	0x3
 16148 0f74 927A      		.sleb128 -750
 16149 0f76 01        		.byte	0x1
 16150 0f77 00        		.byte	0x0
 16151 0f78 03        		.uleb128 0x3
 16152 0f79 02        		.byte	0x2
 16153 0f7a 0000      		.2byte	.LM564
 16154 0f7c 16        		.byte	0x16
 16155 0f7d 00        		.byte	0x0
 16156 0f7e 03        		.uleb128 0x3
 16157 0f7f 02        		.byte	0x2
GAS LISTING /tmp/ccvQL2RB.s 			page 291


 16158 0f80 0000      		.2byte	.LM565
 16159 0f82 15        		.byte	0x15
 16160 0f83 00        		.byte	0x0
 16161 0f84 03        		.uleb128 0x3
 16162 0f85 02        		.byte	0x2
 16163 0f86 0000      		.2byte	.LM566
 16164 0f88 13        		.byte	0x13
 16165 0f89 00        		.byte	0x0
 16166 0f8a 03        		.uleb128 0x3
 16167 0f8b 02        		.byte	0x2
 16168 0f8c 0000      		.2byte	.LM567
 16169 0f8e 17        		.byte	0x17
 16170 0f8f 00        		.byte	0x0
 16171 0f90 03        		.uleb128 0x3
 16172 0f91 02        		.byte	0x2
 16173 0f92 0000      		.2byte	.LM568
 16174 0f94 10        		.byte	0x10
 16175 0f95 00        		.byte	0x0
 16176 0f96 03        		.uleb128 0x3
 16177 0f97 02        		.byte	0x2
 16178 0f98 0000      		.2byte	.LM569
 16179 0f9a 19        		.byte	0x19
 16180 0f9b 00        		.byte	0x0
 16181 0f9c 03        		.uleb128 0x3
 16182 0f9d 02        		.byte	0x2
 16183 0f9e 0000      		.2byte	.LM570
 16184 0fa0 03        		.byte	0x3
 16185 0fa1 EA05      		.sleb128 746
 16186 0fa3 01        		.byte	0x1
 16187 0fa4 00        		.byte	0x0
 16188 0fa5 03        		.uleb128 0x3
 16189 0fa6 02        		.byte	0x2
 16190 0fa7 0000      		.2byte	.LM571
 16191 0fa9 03        		.byte	0x3
 16192 0faa 907A      		.sleb128 -752
 16193 0fac 01        		.byte	0x1
 16194 0fad 00        		.byte	0x0
 16195 0fae 03        		.uleb128 0x3
 16196 0faf 02        		.byte	0x2
 16197 0fb0 0000      		.2byte	.LM572
 16198 0fb2 16        		.byte	0x16
 16199 0fb3 00        		.byte	0x0
 16200 0fb4 03        		.uleb128 0x3
 16201 0fb5 02        		.byte	0x2
 16202 0fb6 0000      		.2byte	.LM573
 16203 0fb8 15        		.byte	0x15
 16204 0fb9 00        		.byte	0x0
 16205 0fba 03        		.uleb128 0x3
 16206 0fbb 02        		.byte	0x2
 16207 0fbc 0000      		.2byte	.LM574
 16208 0fbe 13        		.byte	0x13
 16209 0fbf 00        		.byte	0x0
 16210 0fc0 03        		.uleb128 0x3
 16211 0fc1 02        		.byte	0x2
 16212 0fc2 0000      		.2byte	.LM575
 16213 0fc4 17        		.byte	0x17
 16214 0fc5 00        		.byte	0x0
GAS LISTING /tmp/ccvQL2RB.s 			page 292


 16215 0fc6 03        		.uleb128 0x3
 16216 0fc7 02        		.byte	0x2
 16217 0fc8 0000      		.2byte	.LM576
 16218 0fca 10        		.byte	0x10
 16219 0fcb 00        		.byte	0x0
 16220 0fcc 03        		.uleb128 0x3
 16221 0fcd 02        		.byte	0x2
 16222 0fce 0000      		.2byte	.LM577
 16223 0fd0 19        		.byte	0x19
 16224 0fd1 00        		.byte	0x0
 16225 0fd2 03        		.uleb128 0x3
 16226 0fd3 02        		.byte	0x2
 16227 0fd4 0000      		.2byte	.LM578
 16228 0fd6 0E        		.byte	0xe
 16229 0fd7 00        		.byte	0x0
 16230 0fd8 03        		.uleb128 0x3
 16231 0fd9 02        		.byte	0x2
 16232 0fda 0000      		.2byte	.LM579
 16233 0fdc 16        		.byte	0x16
 16234 0fdd 00        		.byte	0x0
 16235 0fde 03        		.uleb128 0x3
 16236 0fdf 02        		.byte	0x2
 16237 0fe0 0000      		.2byte	.LM580
 16238 0fe2 15        		.byte	0x15
 16239 0fe3 00        		.byte	0x0
 16240 0fe4 03        		.uleb128 0x3
 16241 0fe5 02        		.byte	0x2
 16242 0fe6 0000      		.2byte	.LM581
 16243 0fe8 13        		.byte	0x13
 16244 0fe9 00        		.byte	0x0
 16245 0fea 03        		.uleb128 0x3
 16246 0feb 02        		.byte	0x2
 16247 0fec 0000      		.2byte	.LM582
 16248 0fee 17        		.byte	0x17
 16249 0fef 00        		.byte	0x0
 16250 0ff0 03        		.uleb128 0x3
 16251 0ff1 02        		.byte	0x2
 16252 0ff2 0000      		.2byte	.LM583
 16253 0ff4 10        		.byte	0x10
 16254 0ff5 00        		.byte	0x0
 16255 0ff6 03        		.uleb128 0x3
 16256 0ff7 02        		.byte	0x2
 16257 0ff8 0000      		.2byte	.LM584
 16258 0ffa 19        		.byte	0x19
 16259 0ffb 00        		.byte	0x0
 16260 0ffc 03        		.uleb128 0x3
 16261 0ffd 02        		.byte	0x2
 16262 0ffe 0000      		.2byte	.LM585
 16263 1000 03        		.byte	0x3
 16264 1001 FE04      		.sleb128 638
 16265 1003 01        		.byte	0x1
 16266 1004 00        		.byte	0x0
 16267 1005 03        		.uleb128 0x3
 16268 1006 02        		.byte	0x2
 16269 1007 0000      		.2byte	.LM586
 16270 1009 03        		.byte	0x3
 16271 100a A67C      		.sleb128 -474
GAS LISTING /tmp/ccvQL2RB.s 			page 293


 16272 100c 01        		.byte	0x1
 16273 100d 00        		.byte	0x0
 16274 100e 03        		.uleb128 0x3
 16275 100f 02        		.byte	0x2
 16276 1010 0000      		.2byte	.LM587
 16277 1012 13        		.byte	0x13
 16278 1013 00        		.byte	0x0
 16279 1014 03        		.uleb128 0x3
 16280 1015 02        		.byte	0x2
 16281 1016 0000      		.2byte	.LM588
 16282 1018 17        		.byte	0x17
 16283 1019 00        		.byte	0x0
 16284 101a 03        		.uleb128 0x3
 16285 101b 02        		.byte	0x2
 16286 101c 0000      		.2byte	.LM589
 16287 101e 03        		.byte	0x3
 16288 101f 73        		.sleb128 -13
 16289 1020 01        		.byte	0x1
 16290 1021 00        		.byte	0x0
 16291 1022 03        		.uleb128 0x3
 16292 1023 02        		.byte	0x2
 16293 1024 0000      		.2byte	.LM590
 16294 1026 03        		.byte	0x3
 16295 1027 8E02      		.sleb128 270
 16296 1029 01        		.byte	0x1
 16297 102a 00        		.byte	0x0
 16298 102b 03        		.uleb128 0x3
 16299 102c 02        		.byte	0x2
 16300 102d 0000      		.2byte	.LM591
 16301 102f 03        		.byte	0x3
 16302 1030 F47D      		.sleb128 -268
 16303 1032 01        		.byte	0x1
 16304 1033 00        		.byte	0x0
 16305 1034 03        		.uleb128 0x3
 16306 1035 02        		.byte	0x2
 16307 1036 0000      		.2byte	.LM592
 16308 1038 13        		.byte	0x13
 16309 1039 00        		.byte	0x0
 16310 103a 03        		.uleb128 0x3
 16311 103b 02        		.byte	0x2
 16312 103c 0000      		.2byte	.LM593
 16313 103e 13        		.byte	0x13
 16314 103f 00        		.byte	0x0
 16315 1040 03        		.uleb128 0x3
 16316 1041 02        		.byte	0x2
 16317 1042 0000      		.2byte	.LM594
 16318 1044 16        		.byte	0x16
 16319 1045 00        		.byte	0x0
 16320 1046 03        		.uleb128 0x3
 16321 1047 02        		.byte	0x2
 16322 1048 0000      		.2byte	.LM595
 16323 104a 13        		.byte	0x13
 16324 104b 00        		.byte	0x0
 16325 104c 03        		.uleb128 0x3
 16326 104d 02        		.byte	0x2
 16327 104e 0000      		.2byte	.LM596
 16328 1050 03        		.byte	0x3
GAS LISTING /tmp/ccvQL2RB.s 			page 294


 16329 1051 E003      		.sleb128 480
 16330 1053 01        		.byte	0x1
 16331 1054 00        		.byte	0x0
 16332 1055 03        		.uleb128 0x3
 16333 1056 02        		.byte	0x2
 16334 1057 0000      		.2byte	.LM597
 16335 1059 15        		.byte	0x15
 16336 105a 00        		.byte	0x0
 16337 105b 03        		.uleb128 0x3
 16338 105c 02        		.byte	0x2
 16339 105d 0000      		.2byte	.LM598
 16340 105f 03        		.byte	0x3
 16341 1060 9E7C      		.sleb128 -482
 16342 1062 01        		.byte	0x1
 16343 1063 00        		.byte	0x0
 16344 1064 03        		.uleb128 0x3
 16345 1065 02        		.byte	0x2
 16346 1066 0000      		.2byte	.LM599
 16347 1068 16        		.byte	0x16
 16348 1069 00        		.byte	0x0
 16349 106a 03        		.uleb128 0x3
 16350 106b 02        		.byte	0x2
 16351 106c 0000      		.2byte	.LM600
 16352 106e 13        		.byte	0x13
 16353 106f 00        		.byte	0x0
 16354 1070 03        		.uleb128 0x3
 16355 1071 02        		.byte	0x2
 16356 1072 0000      		.2byte	.LM601
 16357 1074 03        		.byte	0x3
 16358 1075 D803      		.sleb128 472
 16359 1077 01        		.byte	0x1
 16360 1078 00        		.byte	0x0
 16361 1079 03        		.uleb128 0x3
 16362 107a 02        		.byte	0x2
 16363 107b 0000      		.2byte	.LM602
 16364 107d 03        		.byte	0x3
 16365 107e B27C      		.sleb128 -462
 16366 1080 01        		.byte	0x1
 16367 1081 00        		.byte	0x0
 16368 1082 03        		.uleb128 0x3
 16369 1083 02        		.byte	0x2
 16370 1084 0000      		.2byte	.LM603
 16371 1086 13        		.byte	0x13
 16372 1087 00        		.byte	0x0
 16373 1088 03        		.uleb128 0x3
 16374 1089 02        		.byte	0x2
 16375 108a 0000      		.2byte	.LM604
 16376 108c 17        		.byte	0x17
 16377 108d 00        		.byte	0x0
 16378 108e 03        		.uleb128 0x3
 16379 108f 02        		.byte	0x2
 16380 1090 0000      		.2byte	.LM605
 16381 1092 19        		.byte	0x19
 16382 1093 00        		.byte	0x0
 16383 1094 03        		.uleb128 0x3
 16384 1095 02        		.byte	0x2
 16385 1096 0000      		.2byte	.LM606
GAS LISTING /tmp/ccvQL2RB.s 			page 295


 16386 1098 15        		.byte	0x15
 16387 1099 00        		.byte	0x0
 16388 109a 03        		.uleb128 0x3
 16389 109b 02        		.byte	0x2
 16390 109c 0000      		.2byte	.LM607
 16391 109e 03        		.byte	0x3
 16392 109f C003      		.sleb128 448
 16393 10a1 01        		.byte	0x1
 16394 10a2 00        		.byte	0x0
 16395 10a3 03        		.uleb128 0x3
 16396 10a4 02        		.byte	0x2
 16397 10a5 0000      		.2byte	.LM608
 16398 10a7 15        		.byte	0x15
 16399 10a8 00        		.byte	0x0
 16400 10a9 03        		.uleb128 0x3
 16401 10aa 02        		.byte	0x2
 16402 10ab 0000      		.2byte	.LM609
 16403 10ad 03        		.byte	0x3
 16404 10ae AC7C      		.sleb128 -468
 16405 10b0 01        		.byte	0x1
 16406 10b1 00        		.byte	0x0
 16407 10b2 03        		.uleb128 0x3
 16408 10b3 02        		.byte	0x2
 16409 10b4 0000      		.2byte	.LM610
 16410 10b6 16        		.byte	0x16
 16411 10b7 00        		.byte	0x0
 16412 10b8 03        		.uleb128 0x3
 16413 10b9 02        		.byte	0x2
 16414 10ba 0000      		.2byte	.LM611
 16415 10bc 13        		.byte	0x13
 16416 10bd 00        		.byte	0x0
 16417 10be 03        		.uleb128 0x3
 16418 10bf 02        		.byte	0x2
 16419 10c0 0000      		.2byte	.LM612
 16420 10c2 03        		.byte	0x3
 16421 10c3 E07E      		.sleb128 -160
 16422 10c5 01        		.byte	0x1
 16423 10c6 00        		.byte	0x0
 16424 10c7 03        		.uleb128 0x3
 16425 10c8 02        		.byte	0x2
 16426 10c9 0000      		.2byte	.LM613
 16427 10cb 16        		.byte	0x16
 16428 10cc 00        		.byte	0x0
 16429 10cd 03        		.uleb128 0x3
 16430 10ce 02        		.byte	0x2
 16431 10cf 0000      		.2byte	.LM614
 16432 10d1 15        		.byte	0x15
 16433 10d2 00        		.byte	0x0
 16434 10d3 03        		.uleb128 0x3
 16435 10d4 02        		.byte	0x2
 16436 10d5 0000      		.2byte	.LM615
 16437 10d7 13        		.byte	0x13
 16438 10d8 00        		.byte	0x0
 16439 10d9 03        		.uleb128 0x3
 16440 10da 02        		.byte	0x2
 16441 10db 0000      		.2byte	.LM616
 16442 10dd 17        		.byte	0x17
GAS LISTING /tmp/ccvQL2RB.s 			page 296


 16443 10de 00        		.byte	0x0
 16444 10df 03        		.uleb128 0x3
 16445 10e0 02        		.byte	0x2
 16446 10e1 0000      		.2byte	.LM617
 16447 10e3 91        		.byte	0x91
 16448 10e4 00        		.byte	0x0
 16449 10e5 03        		.uleb128 0x3
 16450 10e6 02        		.byte	0x2
 16451 10e7 0000      		.2byte	.LM618
 16452 10e9 03        		.byte	0x3
 16453 10ea E403      		.sleb128 484
 16454 10ec 01        		.byte	0x1
 16455 10ed 00        		.byte	0x0
 16456 10ee 03        		.uleb128 0x3
 16457 10ef 02        		.byte	0x2
 16458 10f0 0000      		.2byte	.LM619
 16459 10f2 03        		.byte	0x3
 16460 10f3 9A7B      		.sleb128 -614
 16461 10f5 01        		.byte	0x1
 16462 10f6 00        		.byte	0x0
 16463 10f7 03        		.uleb128 0x3
 16464 10f8 02        		.byte	0x2
 16465 10f9 0000      		.2byte	.LM620
 16466 10fb 16        		.byte	0x16
 16467 10fc 00        		.byte	0x0
 16468 10fd 03        		.uleb128 0x3
 16469 10fe 02        		.byte	0x2
 16470 10ff 0000      		.2byte	.LM621
 16471 1101 15        		.byte	0x15
 16472 1102 00        		.byte	0x0
 16473 1103 03        		.uleb128 0x3
 16474 1104 02        		.byte	0x2
 16475 1105 0000      		.2byte	.LM622
 16476 1107 13        		.byte	0x13
 16477 1108 00        		.byte	0x0
 16478 1109 03        		.uleb128 0x3
 16479 110a 02        		.byte	0x2
 16480 110b 0000      		.2byte	.LM623
 16481 110d 17        		.byte	0x17
 16482 110e 00        		.byte	0x0
 16483 110f 03        		.uleb128 0x3
 16484 1110 02        		.byte	0x2
 16485 1111 0000      		.2byte	.LM624
 16486 1113 10        		.byte	0x10
 16487 1114 00        		.byte	0x0
 16488 1115 03        		.uleb128 0x3
 16489 1116 02        		.byte	0x2
 16490 1117 0000      		.2byte	.LM625
 16491 1119 19        		.byte	0x19
 16492 111a 00        		.byte	0x0
 16493 111b 03        		.uleb128 0x3
 16494 111c 02        		.byte	0x2
 16495 111d 0000      		.2byte	.LM626
 16496 111f 92        		.byte	0x92
 16497 1120 00        		.byte	0x0
 16498 1121 03        		.uleb128 0x3
 16499 1122 02        		.byte	0x2
GAS LISTING /tmp/ccvQL2RB.s 			page 297


 16500 1123 0000      		.2byte	.LM627
 16501 1125 12        		.byte	0x12
 16502 1126 00        		.byte	0x0
 16503 1127 03        		.uleb128 0x3
 16504 1128 02        		.byte	0x2
 16505 1129 0000      		.2byte	.LM628
 16506 112b 03        		.byte	0x3
 16507 112c E003      		.sleb128 480
 16508 112e 01        		.byte	0x1
 16509 112f 00        		.byte	0x0
 16510 1130 03        		.uleb128 0x3
 16511 1131 02        		.byte	0x2
 16512 1132 0000      		.2byte	.LM629
 16513 1134 03        		.byte	0x3
 16514 1135 C87C      		.sleb128 -440
 16515 1137 01        		.byte	0x1
 16516 1138 00        		.byte	0x0
 16517 1139 03        		.uleb128 0x3
 16518 113a 02        		.byte	0x2
 16519 113b 0000      		.2byte	.LM630
 16520 113d 13        		.byte	0x13
 16521 113e 00        		.byte	0x0
 16522 113f 03        		.uleb128 0x3
 16523 1140 02        		.byte	0x2
 16524 1141 0000      		.2byte	.LM631
 16525 1143 17        		.byte	0x17
 16526 1144 00        		.byte	0x0
 16527 1145 03        		.uleb128 0x3
 16528 1146 02        		.byte	0x2
 16529 1147 0000      		.2byte	.LM632
 16530 1149 03        		.byte	0x3
 16531 114a BA03      		.sleb128 442
 16532 114c 01        		.byte	0x1
 16533 114d 00        		.byte	0x0
 16534 114e 03        		.uleb128 0x3
 16535 114f 02        		.byte	0x2
 16536 1150 0000      		.2byte	.LM633
 16537 1152 03        		.byte	0x3
 16538 1153 EC7D      		.sleb128 -276
 16539 1155 01        		.byte	0x1
 16540 1156 00        		.byte	0x0
 16541 1157 03        		.uleb128 0x3
 16542 1158 02        		.byte	0x2
 16543 1159 0000      		.2byte	.LM634
 16544 115b 03        		.byte	0x3
 16545 115c D87E      		.sleb128 -168
 16546 115e 01        		.byte	0x1
 16547 115f 00        		.byte	0x0
 16548 1160 03        		.uleb128 0x3
 16549 1161 02        		.byte	0x2
 16550 1162 0000      		.2byte	.LM635
 16551 1164 13        		.byte	0x13
 16552 1165 00        		.byte	0x0
 16553 1166 03        		.uleb128 0x3
 16554 1167 02        		.byte	0x2
 16555 1168 0000      		.2byte	.LM636
 16556 116a 17        		.byte	0x17
GAS LISTING /tmp/ccvQL2RB.s 			page 298


 16557 116b 00        		.byte	0x0
 16558 116c 03        		.uleb128 0x3
 16559 116d 02        		.byte	0x2
 16560 116e 0000      		.2byte	.LM637
 16561 1170 03        		.byte	0x3
 16562 1171 73        		.sleb128 -13
 16563 1172 01        		.byte	0x1
 16564 1173 00        		.byte	0x0
 16565 1174 03        		.uleb128 0x3
 16566 1175 02        		.byte	0x2
 16567 1176 0000      		.2byte	.LM638
 16568 1178 16        		.byte	0x16
 16569 1179 00        		.byte	0x0
 16570 117a 03        		.uleb128 0x3
 16571 117b 02        		.byte	0x2
 16572 117c 0000      		.2byte	.LM639
 16573 117e 13        		.byte	0x13
 16574 117f 00        		.byte	0x0
 16575 1180 03        		.uleb128 0x3
 16576 1181 02        		.byte	0x2
 16577 1182 0000      		.2byte	.LM640
 16578 1184 03        		.byte	0x3
 16579 1185 F304      		.sleb128 627
 16580 1187 01        		.byte	0x1
 16581 1188 00        		.byte	0x0
 16582 1189 03        		.uleb128 0x3
 16583 118a 02        		.byte	0x2
 16584 118b 0000      		.2byte	.LM641
 16585 118d 15        		.byte	0x15
 16586 118e 00        		.byte	0x0
 16587 118f 03        		.uleb128 0x3
 16588 1190 02        		.byte	0x2
 16589 1191 0000      		.2byte	.LM642
 16590 1193 17        		.byte	0x17
 16591 1194 00        		.byte	0x0
 16592 1195 03        		.uleb128 0x3
 16593 1196 02        		.byte	0x2
 16594 1197 0000      		.2byte	.LM643
 16595 1199 03        		.byte	0x3
 16596 119a 8C7F      		.sleb128 -116
 16597 119c 01        		.byte	0x1
 16598 119d 00        		.byte	0x0
 16599 119e 03        		.uleb128 0x3
 16600 119f 02        		.byte	0x2
 16601 11a0 0000      		.2byte	.LM644
 16602 11a2 03        		.byte	0x3
 16603 11a3 877C      		.sleb128 -505
 16604 11a5 01        		.byte	0x1
 16605 11a6 00        		.byte	0x0
 16606 11a7 03        		.uleb128 0x3
 16607 11a8 02        		.byte	0x2
 16608 11a9 0000      		.2byte	.LM645
 16609 11ab 13        		.byte	0x13
 16610 11ac 00        		.byte	0x0
 16611 11ad 03        		.uleb128 0x3
 16612 11ae 02        		.byte	0x2
 16613 11af 0000      		.2byte	.LM646
GAS LISTING /tmp/ccvQL2RB.s 			page 299


 16614 11b1 17        		.byte	0x17
 16615 11b2 00        		.byte	0x0
 16616 11b3 03        		.uleb128 0x3
 16617 11b4 02        		.byte	0x2
 16618 11b5 0000      		.2byte	.LM647
 16619 11b7 19        		.byte	0x19
 16620 11b8 00        		.byte	0x0
 16621 11b9 03        		.uleb128 0x3
 16622 11ba 02        		.byte	0x2
 16623 11bb 0000      		.2byte	.LM648
 16624 11bd 15        		.byte	0x15
 16625 11be 00        		.byte	0x0
 16626 11bf 03        		.uleb128 0x3
 16627 11c0 02        		.byte	0x2
 16628 11c1 0000      		.2byte	.LM649
 16629 11c3 13        		.byte	0x13
 16630 11c4 00        		.byte	0x0
 16631 11c5 03        		.uleb128 0x3
 16632 11c6 02        		.byte	0x2
 16633 11c7 0000      		.2byte	.LM650
 16634 11c9 15        		.byte	0x15
 16635 11ca 00        		.byte	0x0
 16636 11cb 03        		.uleb128 0x3
 16637 11cc 02        		.byte	0x2
 16638 11cd 0000      		.2byte	.LM651
 16639 11cf 13        		.byte	0x13
 16640 11d0 00        		.byte	0x0
 16641 11d1 03        		.uleb128 0x3
 16642 11d2 02        		.byte	0x2
 16643 11d3 0000      		.2byte	.LM652
 16644 11d5 15        		.byte	0x15
 16645 11d6 00        		.byte	0x0
 16646 11d7 03        		.uleb128 0x3
 16647 11d8 02        		.byte	0x2
 16648 11d9 0000      		.2byte	.LM653
 16649 11db 03        		.byte	0x3
 16650 11dc E303      		.sleb128 483
 16651 11de 01        		.byte	0x1
 16652 11df 00        		.byte	0x0
 16653 11e0 03        		.uleb128 0x3
 16654 11e1 02        		.byte	0x2
 16655 11e2 0000      		.2byte	.LM654
 16656 11e4 15        		.byte	0x15
 16657 11e5 00        		.byte	0x0
 16658 11e6 03        		.uleb128 0x3
 16659 11e7 02        		.byte	0x2
 16660 11e8 0000      		.2byte	.LM655
 16661 11ea 03        		.byte	0x3
 16662 11eb A27C      		.sleb128 -478
 16663 11ed 01        		.byte	0x1
 16664 11ee 00        		.byte	0x0
 16665 11ef 03        		.uleb128 0x3
 16666 11f0 02        		.byte	0x2
 16667 11f1 0000      		.2byte	.LM656
 16668 11f3 13        		.byte	0x13
 16669 11f4 00        		.byte	0x0
 16670 11f5 03        		.uleb128 0x3
GAS LISTING /tmp/ccvQL2RB.s 			page 300


 16671 11f6 02        		.byte	0x2
 16672 11f7 0000      		.2byte	.LM657
 16673 11f9 15        		.byte	0x15
 16674 11fa 00        		.byte	0x0
 16675 11fb 03        		.uleb128 0x3
 16676 11fc 02        		.byte	0x2
 16677 11fd 0000      		.2byte	.LM658
 16678 11ff 03        		.byte	0x3
 16679 1200 E503      		.sleb128 485
 16680 1202 01        		.byte	0x1
 16681 1203 00        		.byte	0x0
 16682 1204 03        		.uleb128 0x3
 16683 1205 02        		.byte	0x2
 16684 1206 0000      		.2byte	.LM659
 16685 1208 03        		.byte	0x3
 16686 1209 827C      		.sleb128 -510
 16687 120b 01        		.byte	0x1
 16688 120c 00        		.byte	0x0
 16689 120d 03        		.uleb128 0x3
 16690 120e 02        		.byte	0x2
 16691 120f 0000      		.2byte	.LM660
 16692 1211 03        		.byte	0x3
 16693 1212 8E02      		.sleb128 270
 16694 1214 01        		.byte	0x1
 16695 1215 00        		.byte	0x0
 16696 1216 03        		.uleb128 0x3
 16697 1217 02        		.byte	0x2
 16698 1218 0000      		.2byte	.LM661
 16699 121a 03        		.byte	0x3
 16700 121b F47D      		.sleb128 -268
 16701 121d 01        		.byte	0x1
 16702 121e 00        		.byte	0x0
 16703 121f 03        		.uleb128 0x3
 16704 1220 02        		.byte	0x2
 16705 1221 0000      		.2byte	.LM662
 16706 1223 13        		.byte	0x13
 16707 1224 00        		.byte	0x0
 16708 1225 03        		.uleb128 0x3
 16709 1226 02        		.byte	0x2
 16710 1227 0000      		.2byte	.LM663
 16711 1229 13        		.byte	0x13
 16712 122a 00        		.byte	0x0
 16713 122b 03        		.uleb128 0x3
 16714 122c 02        		.byte	0x2
 16715 122d 0000      		.2byte	.LM664
 16716 122f 16        		.byte	0x16
 16717 1230 00        		.byte	0x0
 16718 1231 03        		.uleb128 0x3
 16719 1232 02        		.byte	0x2
 16720 1233 0000      		.2byte	.LM665
 16721 1235 13        		.byte	0x13
 16722 1236 00        		.byte	0x0
 16723 1237 03        		.uleb128 0x3
 16724 1238 02        		.byte	0x2
 16725 1239 0000      		.2byte	.LM666
 16726 123b 2B        		.byte	0x2b
 16727 123c 00        		.byte	0x0
GAS LISTING /tmp/ccvQL2RB.s 			page 301


 16728 123d 03        		.uleb128 0x3
 16729 123e 02        		.byte	0x2
 16730 123f 0000      		.2byte	.LM667
 16731 1241 15        		.byte	0x15
 16732 1242 00        		.byte	0x0
 16733 1243 03        		.uleb128 0x3
 16734 1244 02        		.byte	0x2
 16735 1245 0000      		.2byte	.LM668
 16736 1247 13        		.byte	0x13
 16737 1248 00        		.byte	0x0
 16738 1249 03        		.uleb128 0x3
 16739 124a 02        		.byte	0x2
 16740 124b 0000      		.2byte	.LM669
 16741 124d 15        		.byte	0x15
 16742 124e 00        		.byte	0x0
 16743 124f 03        		.uleb128 0x3
 16744 1250 02        		.byte	0x2
 16745 1251 0000      		.2byte	.LM670
 16746 1253 03        		.byte	0x3
 16747 1254 D703      		.sleb128 471
 16748 1256 01        		.byte	0x1
 16749 1257 00        		.byte	0x0
 16750 1258 03        		.uleb128 0x3
 16751 1259 02        		.byte	0x2
 16752 125a 0000      		.2byte	.LM671
 16753 125c 38        		.byte	0x38
 16754 125d 00        		.byte	0x0
 16755 125e 03        		.uleb128 0x3
 16756 125f 02        		.byte	0x2
 16757 1260 0000      		.2byte	.LM672
 16758 1262 03        		.byte	0x3
 16759 1263 ED7B      		.sleb128 -531
 16760 1265 01        		.byte	0x1
 16761 1266 00        		.byte	0x0
 16762 1267 03        		.uleb128 0x3
 16763 1268 02        		.byte	0x2
 16764 1269 0000      		.2byte	.LM673
 16765 126b 15        		.byte	0x15
 16766 126c 00        		.byte	0x0
 16767 126d 03        		.uleb128 0x3
 16768 126e 02        		.byte	0x2
 16769 126f 0000      		.2byte	.LM674
 16770 1271 13        		.byte	0x13
 16771 1272 00        		.byte	0x0
 16772 1273 03        		.uleb128 0x3
 16773 1274 02        		.byte	0x2
 16774 1275 0000      		.2byte	.LM675
 16775 1277 03        		.byte	0x3
 16776 1278 8A04      		.sleb128 522
 16777 127a 01        		.byte	0x1
 16778 127b 00        		.byte	0x0
 16779 127c 03        		.uleb128 0x3
 16780 127d 02        		.byte	0x2
 16781 127e 0000      		.2byte	.LM676
 16782 1280 03        		.byte	0x3
 16783 1281 837E      		.sleb128 -253
 16784 1283 01        		.byte	0x1
GAS LISTING /tmp/ccvQL2RB.s 			page 302


 16785 1284 00        		.byte	0x0
 16786 1285 03        		.uleb128 0x3
 16787 1286 02        		.byte	0x2
 16788 1287 0000      		.2byte	.LM677
 16789 1289 03        		.byte	0x3
 16790 128a F47D      		.sleb128 -268
 16791 128c 01        		.byte	0x1
 16792 128d 00        		.byte	0x0
 16793 128e 03        		.uleb128 0x3
 16794 128f 02        		.byte	0x2
 16795 1290 0000      		.2byte	.LM678
 16796 1292 13        		.byte	0x13
 16797 1293 00        		.byte	0x0
 16798 1294 03        		.uleb128 0x3
 16799 1295 02        		.byte	0x2
 16800 1296 0000      		.2byte	.LM679
 16801 1298 15        		.byte	0x15
 16802 1299 00        		.byte	0x0
 16803 129a 03        		.uleb128 0x3
 16804 129b 02        		.byte	0x2
 16805 129c 0000      		.2byte	.LM680
 16806 129e 13        		.byte	0x13
 16807 129f 00        		.byte	0x0
 16808 12a0 03        		.uleb128 0x3
 16809 12a1 02        		.byte	0x2
 16810 12a2 0000      		.2byte	.LM681
 16811 12a4 15        		.byte	0x15
 16812 12a5 00        		.byte	0x0
 16813 12a6 03        		.uleb128 0x3
 16814 12a7 02        		.byte	0x2
 16815 12a8 0000      		.2byte	.LM682
 16816 12aa 13        		.byte	0x13
 16817 12ab 00        		.byte	0x0
 16818 12ac 03        		.uleb128 0x3
 16819 12ad 02        		.byte	0x2
 16820 12ae 0000      		.2byte	.LM683
 16821 12b0 03        		.byte	0x3
 16822 12b1 AF02      		.sleb128 303
 16823 12b3 01        		.byte	0x1
 16824 12b4 00        		.byte	0x0
 16825 12b5 03        		.uleb128 0x3
 16826 12b6 02        		.byte	0x2
 16827 12b7 0000      		.2byte	.LM684
 16828 12b9 03        		.byte	0x3
 16829 12ba D27D      		.sleb128 -302
 16830 12bc 01        		.byte	0x1
 16831 12bd 00        		.byte	0x0
 16832 12be 03        		.uleb128 0x3
 16833 12bf 02        		.byte	0x2
 16834 12c0 0000      		.2byte	.LM685
 16835 12c2 13        		.byte	0x13
 16836 12c3 00        		.byte	0x0
 16837 12c4 03        		.uleb128 0x3
 16838 12c5 02        		.byte	0x2
 16839 12c6 0000      		.2byte	.LM686
 16840 12c8 03        		.byte	0x3
 16841 12c9 AE02      		.sleb128 302
GAS LISTING /tmp/ccvQL2RB.s 			page 303


 16842 12cb 01        		.byte	0x1
 16843 12cc 00        		.byte	0x0
 16844 12cd 03        		.uleb128 0x3
 16845 12ce 02        		.byte	0x2
 16846 12cf 0000      		.2byte	.LM687
 16847 12d1 03        		.byte	0x3
 16848 12d2 DC7D      		.sleb128 -292
 16849 12d4 01        		.byte	0x1
 16850 12d5 00        		.byte	0x0
 16851 12d6 03        		.uleb128 0x3
 16852 12d7 02        		.byte	0x2
 16853 12d8 0000      		.2byte	.LM688
 16854 12da 13        		.byte	0x13
 16855 12db 00        		.byte	0x0
 16856 12dc 03        		.uleb128 0x3
 16857 12dd 02        		.byte	0x2
 16858 12de 0000      		.2byte	.LM689
 16859 12e0 17        		.byte	0x17
 16860 12e1 00        		.byte	0x0
 16861 12e2 03        		.uleb128 0x3
 16862 12e3 02        		.byte	0x2
 16863 12e4 0000      		.2byte	.LM690
 16864 12e6 03        		.byte	0x3
 16865 12e7 B604      		.sleb128 566
 16866 12e9 01        		.byte	0x1
 16867 12ea 00        		.byte	0x0
 16868 12eb 03        		.uleb128 0x3
 16869 12ec 02        		.byte	0x2
 16870 12ed 0000      		.2byte	.LM691
 16871 12ef 18        		.byte	0x18
 16872 12f0 00        		.byte	0x0
 16873 12f1 03        		.uleb128 0x3
 16874 12f2 02        		.byte	0x2
 16875 12f3 0000      		.2byte	.LM692
 16876 12f5 03        		.byte	0x3
 16877 12f6 9A7A      		.sleb128 -742
 16878 12f8 01        		.byte	0x1
 16879 12f9 00        		.byte	0x0
 16880 12fa 03        		.uleb128 0x3
 16881 12fb 02        		.byte	0x2
 16882 12fc 0000      		.2byte	.LM693
 16883 12fe 16        		.byte	0x16
 16884 12ff 00        		.byte	0x0
 16885 1300 03        		.uleb128 0x3
 16886 1301 02        		.byte	0x2
 16887 1302 0000      		.2byte	.LM694
 16888 1304 15        		.byte	0x15
 16889 1305 00        		.byte	0x0
 16890 1306 03        		.uleb128 0x3
 16891 1307 02        		.byte	0x2
 16892 1308 0000      		.2byte	.LM695
 16893 130a 13        		.byte	0x13
 16894 130b 00        		.byte	0x0
 16895 130c 03        		.uleb128 0x3
 16896 130d 02        		.byte	0x2
 16897 130e 0000      		.2byte	.LM696
 16898 1310 17        		.byte	0x17
GAS LISTING /tmp/ccvQL2RB.s 			page 304


 16899 1311 00        		.byte	0x0
 16900 1312 03        		.uleb128 0x3
 16901 1313 02        		.byte	0x2
 16902 1314 0000      		.2byte	.LM697
 16903 1316 10        		.byte	0x10
 16904 1317 00        		.byte	0x0
 16905 1318 03        		.uleb128 0x3
 16906 1319 02        		.byte	0x2
 16907 131a 0000      		.2byte	.LM698
 16908 131c 19        		.byte	0x19
 16909 131d 00        		.byte	0x0
 16910 131e 03        		.uleb128 0x3
 16911 131f 02        		.byte	0x2
 16912 1320 0000      		.2byte	.LM699
 16913 1322 03        		.byte	0x3
 16914 1323 DF05      		.sleb128 735
 16915 1325 01        		.byte	0x1
 16916 1326 00        		.byte	0x0
 16917 1327 03        		.uleb128 0x3
 16918 1328 02        		.byte	0x2
 16919 1329 0000      		.2byte	.LM700
 16920 132b 0B        		.byte	0xb
 16921 132c 00        		.byte	0x0
 16922 132d 03        		.uleb128 0x3
 16923 132e 02        		.byte	0x2
 16924 132f 0000      		.2byte	.LM701
 16925 1331 03        		.byte	0x3
 16926 1332 CE7B      		.sleb128 -562
 16927 1334 01        		.byte	0x1
 16928 1335 00        		.byte	0x0
 16929 1336 03        		.uleb128 0x3
 16930 1337 02        		.byte	0x2
 16931 1338 0000      		.2byte	.LM702
 16932 133a 13        		.byte	0x13
 16933 133b 00        		.byte	0x0
 16934 133c 03        		.uleb128 0x3
 16935 133d 02        		.byte	0x2
 16936 133e 0000      		.2byte	.LM703
 16937 1340 17        		.byte	0x17
 16938 1341 00        		.byte	0x0
 16939 1342 03        		.uleb128 0x3
 16940 1343 02        		.byte	0x2
 16941 1344 0000      		.2byte	.LM704
 16942 1346 03        		.byte	0x3
 16943 1347 B604      		.sleb128 566
 16944 1349 01        		.byte	0x1
 16945 134a 00        		.byte	0x0
 16946 134b 03        		.uleb128 0x3
 16947 134c 02        		.byte	0x2
 16948 134d 0000      		.2byte	.LM705
 16949 134f 03        		.byte	0x3
 16950 1350 BD7B      		.sleb128 -579
 16951 1352 01        		.byte	0x1
 16952 1353 00        		.byte	0x0
 16953 1354 03        		.uleb128 0x3
 16954 1355 02        		.byte	0x2
 16955 1356 0000      		.2byte	.LM706
GAS LISTING /tmp/ccvQL2RB.s 			page 305


 16956 1358 03        		.byte	0x3
 16957 1359 8E02      		.sleb128 270
 16958 135b 01        		.byte	0x1
 16959 135c 00        		.byte	0x0
 16960 135d 03        		.uleb128 0x3
 16961 135e 02        		.byte	0x2
 16962 135f 0000      		.2byte	.LM707
 16963 1361 03        		.byte	0x3
 16964 1362 F47D      		.sleb128 -268
 16965 1364 01        		.byte	0x1
 16966 1365 00        		.byte	0x0
 16967 1366 03        		.uleb128 0x3
 16968 1367 02        		.byte	0x2
 16969 1368 0000      		.2byte	.LM708
 16970 136a 13        		.byte	0x13
 16971 136b 00        		.byte	0x0
 16972 136c 03        		.uleb128 0x3
 16973 136d 02        		.byte	0x2
 16974 136e 0000      		.2byte	.LM709
 16975 1370 13        		.byte	0x13
 16976 1371 00        		.byte	0x0
 16977 1372 03        		.uleb128 0x3
 16978 1373 02        		.byte	0x2
 16979 1374 0000      		.2byte	.LM710
 16980 1376 16        		.byte	0x16
 16981 1377 00        		.byte	0x0
 16982 1378 03        		.uleb128 0x3
 16983 1379 02        		.byte	0x2
 16984 137a 0000      		.2byte	.LM711
 16985 137c 13        		.byte	0x13
 16986 137d 00        		.byte	0x0
 16987 137e 03        		.uleb128 0x3
 16988 137f 02        		.byte	0x2
 16989 1380 0000      		.2byte	.LM712
 16990 1382 03        		.byte	0x3
 16991 1383 A004      		.sleb128 544
 16992 1385 01        		.byte	0x1
 16993 1386 00        		.byte	0x0
 16994 1387 03        		.uleb128 0x3
 16995 1388 02        		.byte	0x2
 16996 1389 0000      		.2byte	.LM713
 16997 138b 15        		.byte	0x15
 16998 138c 00        		.byte	0x0
 16999 138d 03        		.uleb128 0x3
 17000 138e 02        		.byte	0x2
 17001 138f 0000      		.2byte	.LM714
 17002 1391 15        		.byte	0x15
 17003 1392 00        		.byte	0x0
 17004 1393 03        		.uleb128 0x3
 17005 1394 02        		.byte	0x2
 17006 1395 0000      		.2byte	.LM715
 17007 1397 0A        		.byte	0xa
 17008 1398 00        		.byte	0x0
 17009 1399 03        		.uleb128 0x3
 17010 139a 02        		.byte	0x2
 17011 139b 0000      		.2byte	.LM716
 17012 139d 03        		.byte	0x3
GAS LISTING /tmp/ccvQL2RB.s 			page 306


 17013 139e E87B      		.sleb128 -536
 17014 13a0 01        		.byte	0x1
 17015 13a1 00        		.byte	0x0
 17016 13a2 03        		.uleb128 0x3
 17017 13a3 02        		.byte	0x2
 17018 13a4 0000      		.2byte	.LM717
 17019 13a6 15        		.byte	0x15
 17020 13a7 00        		.byte	0x0
 17021 13a8 03        		.uleb128 0x3
 17022 13a9 02        		.byte	0x2
 17023 13aa 0000      		.2byte	.LM718
 17024 13ac 13        		.byte	0x13
 17025 13ad 00        		.byte	0x0
 17026 13ae 03        		.uleb128 0x3
 17027 13af 02        		.byte	0x2
 17028 13b0 0000      		.2byte	.LM719
 17029 13b2 13        		.byte	0x13
 17030 13b3 00        		.byte	0x0
 17031 13b4 03        		.uleb128 0x3
 17032 13b5 02        		.byte	0x2
 17033 13b6 0000      		.2byte	.LM720
 17034 13b8 16        		.byte	0x16
 17035 13b9 00        		.byte	0x0
 17036 13ba 03        		.uleb128 0x3
 17037 13bb 02        		.byte	0x2
 17038 13bc 0000      		.2byte	.LM721
 17039 13be 13        		.byte	0x13
 17040 13bf 00        		.byte	0x0
 17041 13c0 03        		.uleb128 0x3
 17042 13c1 02        		.byte	0x2
 17043 13c2 0000      		.2byte	.LM722
 17044 13c4 03        		.byte	0x3
 17045 13c5 E804      		.sleb128 616
 17046 13c7 01        		.byte	0x1
 17047 13c8 00        		.byte	0x0
 17048 13c9 03        		.uleb128 0x3
 17049 13ca 02        		.byte	0x2
 17050 13cb 0000      		.2byte	.LM723
 17051 13cd 15        		.byte	0x15
 17052 13ce 00        		.byte	0x0
 17053 13cf 03        		.uleb128 0x3
 17054 13d0 02        		.byte	0x2
 17055 13d1 0000      		.2byte	.LM724
 17056 13d3 17        		.byte	0x17
 17057 13d4 00        		.byte	0x0
 17058 13d5 03        		.uleb128 0x3
 17059 13d6 02        		.byte	0x2
 17060 13d7 0000      		.2byte	.LM725
 17061 13d9 03        		.byte	0x3
 17062 13da 937B      		.sleb128 -621
 17063 13dc 01        		.byte	0x1
 17064 13dd 00        		.byte	0x0
 17065 13de 03        		.uleb128 0x3
 17066 13df 02        		.byte	0x2
 17067 13e0 0000      		.2byte	.LM726
 17068 13e2 03        		.byte	0x3
 17069 13e3 8E02      		.sleb128 270
GAS LISTING /tmp/ccvQL2RB.s 			page 307


 17070 13e5 01        		.byte	0x1
 17071 13e6 00        		.byte	0x0
 17072 13e7 03        		.uleb128 0x3
 17073 13e8 02        		.byte	0x2
 17074 13e9 0000      		.2byte	.LM727
 17075 13eb 03        		.byte	0x3
 17076 13ec F47D      		.sleb128 -268
 17077 13ee 01        		.byte	0x1
 17078 13ef 00        		.byte	0x0
 17079 13f0 03        		.uleb128 0x3
 17080 13f1 02        		.byte	0x2
 17081 13f2 0000      		.2byte	.LM728
 17082 13f4 13        		.byte	0x13
 17083 13f5 00        		.byte	0x0
 17084 13f6 03        		.uleb128 0x3
 17085 13f7 02        		.byte	0x2
 17086 13f8 0000      		.2byte	.LM729
 17087 13fa 03        		.byte	0x3
 17088 13fb E004      		.sleb128 608
 17089 13fd 01        		.byte	0x1
 17090 13fe 00        		.byte	0x0
 17091 13ff 03        		.uleb128 0x3
 17092 1400 02        		.byte	0x2
 17093 1401 0000      		.2byte	.LM730
 17094 1403 03        		.byte	0x3
 17095 1404 9F7B      		.sleb128 -609
 17096 1406 01        		.byte	0x1
 17097 1407 00        		.byte	0x0
 17098 1408 03        		.uleb128 0x3
 17099 1409 02        		.byte	0x2
 17100 140a 0000      		.2byte	.LM731
 17101 140c 16        		.byte	0x16
 17102 140d 00        		.byte	0x0
 17103 140e 03        		.uleb128 0x3
 17104 140f 02        		.byte	0x2
 17105 1410 0000      		.2byte	.LM732
 17106 1412 13        		.byte	0x13
 17107 1413 00        		.byte	0x0
 17108 1414 03        		.uleb128 0x3
 17109 1415 02        		.byte	0x2
 17110 1416 0000      		.2byte	.LM733
 17111 1418 03        		.byte	0x3
 17112 1419 E104      		.sleb128 609
 17113 141b 01        		.byte	0x1
 17114 141c 00        		.byte	0x0
 17115 141d 03        		.uleb128 0x3
 17116 141e 02        		.byte	0x2
 17117 141f 0000      		.2byte	.LM734
 17118 1421 03        		.byte	0x3
 17119 1422 9E7B      		.sleb128 -610
 17120 1424 01        		.byte	0x1
 17121 1425 00        		.byte	0x0
 17122 1426 03        		.uleb128 0x3
 17123 1427 02        		.byte	0x2
 17124 1428 0000      		.2byte	.LM735
 17125 142a 16        		.byte	0x16
 17126 142b 00        		.byte	0x0
GAS LISTING /tmp/ccvQL2RB.s 			page 308


 17127 142c 03        		.uleb128 0x3
 17128 142d 02        		.byte	0x2
 17129 142e 0000      		.2byte	.LM736
 17130 1430 13        		.byte	0x13
 17131 1431 00        		.byte	0x0
 17132 1432 03        		.uleb128 0x3
 17133 1433 02        		.byte	0x2
 17134 1434 0000      		.2byte	.LM737
 17135 1436 03        		.byte	0x3
 17136 1437 E204      		.sleb128 610
 17137 1439 01        		.byte	0x1
 17138 143a 00        		.byte	0x0
 17139 143b 03        		.uleb128 0x3
 17140 143c 02        		.byte	0x2
 17141 143d 0000      		.2byte	.LM738
 17142 143f 16        		.byte	0x16
 17143 1440 00        		.byte	0x0
 17144 1441 03        		.uleb128 0x3
 17145 1442 02        		.byte	0x2
 17146 1443 0000      		.2byte	.LM739
 17147 1445 03        		.byte	0x3
 17148 1446 9B7B      		.sleb128 -613
 17149 1448 01        		.byte	0x1
 17150 1449 00        		.byte	0x0
 17151 144a 03        		.uleb128 0x3
 17152 144b 02        		.byte	0x2
 17153 144c 0000      		.2byte	.LM740
 17154 144e 16        		.byte	0x16
 17155 144f 00        		.byte	0x0
 17156 1450 03        		.uleb128 0x3
 17157 1451 02        		.byte	0x2
 17158 1452 0000      		.2byte	.LM741
 17159 1454 13        		.byte	0x13
 17160 1455 00        		.byte	0x0
 17161 1456 03        		.uleb128 0x3
 17162 1457 02        		.byte	0x2
 17163 1458 0000      		.2byte	.LM742
 17164 145a 03        		.byte	0x3
 17165 145b AA02      		.sleb128 298
 17166 145d 01        		.byte	0x1
 17167 145e 00        		.byte	0x0
 17168 145f 03        		.uleb128 0x3
 17169 1460 02        		.byte	0x2
 17170 1461 0000      		.2byte	.LM743
 17171 1463 15        		.byte	0x15
 17172 1464 00        		.byte	0x0
 17173 1465 03        		.uleb128 0x3
 17174 1466 02        		.byte	0x2
 17175 1467 0000      		.2byte	.LM744
 17176 1469 0E        		.byte	0xe
 17177 146a 00        		.byte	0x0
 17178 146b 03        		.uleb128 0x3
 17179 146c 02        		.byte	0x2
 17180 146d 0000      		.2byte	.LM745
 17181 146f 03        		.byte	0x3
 17182 1470 DB7D      		.sleb128 -293
 17183 1472 01        		.byte	0x1
GAS LISTING /tmp/ccvQL2RB.s 			page 309


 17184 1473 00        		.byte	0x0
 17185 1474 03        		.uleb128 0x3
 17186 1475 02        		.byte	0x2
 17187 1476 0000      		.2byte	.LM746
 17188 1478 15        		.byte	0x15
 17189 1479 00        		.byte	0x0
 17190 147a 03        		.uleb128 0x3
 17191 147b 02        		.byte	0x2
 17192 147c 0000      		.2byte	.LM747
 17193 147e 13        		.byte	0x13
 17194 147f 00        		.byte	0x0
 17195 1480 03        		.uleb128 0x3
 17196 1481 02        		.byte	0x2
 17197 1482 0000      		.2byte	.LM748
 17198 1484 03        		.byte	0x3
 17199 1485 A002      		.sleb128 288
 17200 1487 01        		.byte	0x1
 17201 1488 00        		.byte	0x0
 17202 1489 03        		.uleb128 0x3
 17203 148a 02        		.byte	0x2
 17204 148b 0000      		.2byte	.LM749
 17205 148d 03        		.byte	0x3
 17206 148e E07D      		.sleb128 -288
 17207 1490 01        		.byte	0x1
 17208 1491 00        		.byte	0x0
 17209 1492 03        		.uleb128 0x3
 17210 1493 02        		.byte	0x2
 17211 1494 0000      		.2byte	.LM750
 17212 1496 15        		.byte	0x15
 17213 1497 00        		.byte	0x0
 17214 1498 03        		.uleb128 0x3
 17215 1499 02        		.byte	0x2
 17216 149a 0000      		.2byte	.LM751
 17217 149c 13        		.byte	0x13
 17218 149d 00        		.byte	0x0
 17219 149e 03        		.uleb128 0x3
 17220 149f 02        		.byte	0x2
 17221 14a0 0000      		.2byte	.LM752
 17222 14a2 03        		.byte	0x3
 17223 14a3 9B02      		.sleb128 283
 17224 14a5 01        		.byte	0x1
 17225 14a6 00        		.byte	0x0
 17226 14a7 03        		.uleb128 0x3
 17227 14a8 02        		.byte	0x2
 17228 14a9 0000      		.2byte	.LM753
 17229 14ab 03        		.byte	0x3
 17230 14ac E57D      		.sleb128 -283
 17231 14ae 01        		.byte	0x1
 17232 14af 00        		.byte	0x0
 17233 14b0 03        		.uleb128 0x3
 17234 14b1 02        		.byte	0x2
 17235 14b2 0000      		.2byte	.LM754
 17236 14b4 15        		.byte	0x15
 17237 14b5 00        		.byte	0x0
 17238 14b6 03        		.uleb128 0x3
 17239 14b7 02        		.byte	0x2
 17240 14b8 0000      		.2byte	.LM755
GAS LISTING /tmp/ccvQL2RB.s 			page 310


 17241 14ba 13        		.byte	0x13
 17242 14bb 00        		.byte	0x0
 17243 14bc 03        		.uleb128 0x3
 17244 14bd 02        		.byte	0x2
 17245 14be 0000      		.2byte	.LM756
 17246 14c0 03        		.byte	0x3
 17247 14c1 8703      		.sleb128 391
 17248 14c3 01        		.byte	0x1
 17249 14c4 00        		.byte	0x0
 17250 14c5 03        		.uleb128 0x3
 17251 14c6 02        		.byte	0x2
 17252 14c7 0000      		.2byte	.LM757
 17253 14c9 15        		.byte	0x15
 17254 14ca 00        		.byte	0x0
 17255 14cb 03        		.uleb128 0x3
 17256 14cc 02        		.byte	0x2
 17257 14cd 0000      		.2byte	.LM758
 17258 14cf 0F        		.byte	0xf
 17259 14d0 00        		.byte	0x0
 17260 14d1 03        		.uleb128 0x3
 17261 14d2 02        		.byte	0x2
 17262 14d3 0000      		.2byte	.LM759
 17263 14d5 15        		.byte	0x15
 17264 14d6 00        		.byte	0x0
 17265 14d7 03        		.uleb128 0x3
 17266 14d8 02        		.byte	0x2
 17267 14d9 0000      		.2byte	.LM760
 17268 14db 0B        		.byte	0xb
 17269 14dc 00        		.byte	0x0
 17270 14dd 03        		.uleb128 0x3
 17271 14de 02        		.byte	0x2
 17272 14df 0000      		.2byte	.LM761
 17273 14e1 03        		.byte	0x3
 17274 14e2 917D      		.sleb128 -367
 17275 14e4 01        		.byte	0x1
 17276 14e5 00        		.byte	0x0
 17277 14e6 03        		.uleb128 0x3
 17278 14e7 02        		.byte	0x2
 17279 14e8 0000      		.2byte	.LM762
 17280 14ea 03        		.byte	0x3
 17281 14eb 73        		.sleb128 -13
 17282 14ec 01        		.byte	0x1
 17283 14ed 00        		.byte	0x0
 17284 14ee 03        		.uleb128 0x3
 17285 14ef 02        		.byte	0x2
 17286 14f0 0000      		.2byte	.LM763
 17287 14f2 03        		.byte	0x3
 17288 14f3 8E02      		.sleb128 270
 17289 14f5 01        		.byte	0x1
 17290 14f6 00        		.byte	0x0
 17291 14f7 03        		.uleb128 0x3
 17292 14f8 02        		.byte	0x2
 17293 14f9 0000      		.2byte	.LM764
 17294 14fb 03        		.byte	0x3
 17295 14fc F47D      		.sleb128 -268
 17296 14fe 01        		.byte	0x1
 17297 14ff 00        		.byte	0x0
GAS LISTING /tmp/ccvQL2RB.s 			page 311


 17298 1500 03        		.uleb128 0x3
 17299 1501 02        		.byte	0x2
 17300 1502 0000      		.2byte	.LM765
 17301 1504 13        		.byte	0x13
 17302 1505 00        		.byte	0x0
 17303 1506 03        		.uleb128 0x3
 17304 1507 02        		.byte	0x2
 17305 1508 0000      		.2byte	.LM766
 17306 150a 13        		.byte	0x13
 17307 150b 00        		.byte	0x0
 17308 150c 03        		.uleb128 0x3
 17309 150d 02        		.byte	0x2
 17310 150e 0000      		.2byte	.LM767
 17311 1510 16        		.byte	0x16
 17312 1511 00        		.byte	0x0
 17313 1512 03        		.uleb128 0x3
 17314 1513 02        		.byte	0x2
 17315 1514 0000      		.2byte	.LM768
 17316 1516 13        		.byte	0x13
 17317 1517 00        		.byte	0x0
 17318 1518 03        		.uleb128 0x3
 17319 1519 02        		.byte	0x2
 17320 151a 0000      		.2byte	.LM769
 17321 151c 03        		.byte	0x3
 17322 151d F702      		.sleb128 375
 17323 151f 01        		.byte	0x1
 17324 1520 00        		.byte	0x0
 17325 1521 03        		.uleb128 0x3
 17326 1522 02        		.byte	0x2
 17327 1523 0000      		.2byte	.LM770
 17328 1525 15        		.byte	0x15
 17329 1526 00        		.byte	0x0
 17330 1527 03        		.uleb128 0x3
 17331 1528 02        		.byte	0x2
 17332 1529 0000      		.2byte	.LM771
 17333 152b 0D        		.byte	0xd
 17334 152c 00        		.byte	0x0
 17335 152d 03        		.uleb128 0x3
 17336 152e 02        		.byte	0x2
 17337 152f 0000      		.2byte	.LM772
 17338 1531 15        		.byte	0x15
 17339 1532 00        		.byte	0x0
 17340 1533 03        		.uleb128 0x3
 17341 1534 02        		.byte	0x2
 17342 1535 0000      		.2byte	.LM773
 17343 1537 0B        		.byte	0xb
 17344 1538 00        		.byte	0x0
 17345 1539 03        		.uleb128 0x3
 17346 153a 02        		.byte	0x2
 17347 153b 0000      		.2byte	.LM774
 17348 153d 03        		.byte	0x3
 17349 153e 967D      		.sleb128 -362
 17350 1540 01        		.byte	0x1
 17351 1541 00        		.byte	0x0
 17352 1542 03        		.uleb128 0x3
 17353 1543 02        		.byte	0x2
 17354 1544 0000      		.2byte	.LM775
GAS LISTING /tmp/ccvQL2RB.s 			page 312


 17355 1546 16        		.byte	0x16
 17356 1547 00        		.byte	0x0
 17357 1548 03        		.uleb128 0x3
 17358 1549 02        		.byte	0x2
 17359 154a 0000      		.2byte	.LM776
 17360 154c 13        		.byte	0x13
 17361 154d 00        		.byte	0x0
 17362 154e 03        		.uleb128 0x3
 17363 154f 02        		.byte	0x2
 17364 1550 0000      		.2byte	.LM777
 17365 1552 03        		.byte	0x3
 17366 1553 E902      		.sleb128 361
 17367 1555 01        		.byte	0x1
 17368 1556 00        		.byte	0x0
 17369 1557 03        		.uleb128 0x3
 17370 1558 02        		.byte	0x2
 17371 1559 0000      		.2byte	.LM778
 17372 155b 15        		.byte	0x15
 17373 155c 00        		.byte	0x0
 17374 155d 03        		.uleb128 0x3
 17375 155e 02        		.byte	0x2
 17376 155f 0000      		.2byte	.LM779
 17377 1561 15        		.byte	0x15
 17378 1562 00        		.byte	0x0
 17379 1563 03        		.uleb128 0x3
 17380 1564 02        		.byte	0x2
 17381 1565 0000      		.2byte	.LM780
 17382 1567 03        		.byte	0x3
 17383 1568 F77C      		.sleb128 -393
 17384 156a 01        		.byte	0x1
 17385 156b 00        		.byte	0x0
 17386 156c 03        		.uleb128 0x3
 17387 156d 02        		.byte	0x2
 17388 156e 0000      		.2byte	.LM781
 17389 1570 03        		.byte	0x3
 17390 1571 FE7E      		.sleb128 -130
 17391 1573 01        		.byte	0x1
 17392 1574 00        		.byte	0x0
 17393 1575 03        		.uleb128 0x3
 17394 1576 02        		.byte	0x2
 17395 1577 0000      		.2byte	.LM782
 17396 1579 16        		.byte	0x16
 17397 157a 00        		.byte	0x0
 17398 157b 03        		.uleb128 0x3
 17399 157c 02        		.byte	0x2
 17400 157d 0000      		.2byte	.LM783
 17401 157f 15        		.byte	0x15
 17402 1580 00        		.byte	0x0
 17403 1581 03        		.uleb128 0x3
 17404 1582 02        		.byte	0x2
 17405 1583 0000      		.2byte	.LM784
 17406 1585 13        		.byte	0x13
 17407 1586 00        		.byte	0x0
 17408 1587 03        		.uleb128 0x3
 17409 1588 02        		.byte	0x2
 17410 1589 0000      		.2byte	.LM785
 17411 158b 17        		.byte	0x17
GAS LISTING /tmp/ccvQL2RB.s 			page 313


 17412 158c 00        		.byte	0x0
 17413 158d 03        		.uleb128 0x3
 17414 158e 02        		.byte	0x2
 17415 158f 0000      		.2byte	.LM786
 17416 1591 10        		.byte	0x10
 17417 1592 00        		.byte	0x0
 17418 1593 03        		.uleb128 0x3
 17419 1594 02        		.byte	0x2
 17420 1595 0000      		.2byte	.LM787
 17421 1597 19        		.byte	0x19
 17422 1598 00        		.byte	0x0
 17423 1599 03        		.uleb128 0x3
 17424 159a 02        		.byte	0x2
 17425 159b 0000      		.2byte	.LM788
 17426 159d 92        		.byte	0x92
 17427 159e 00        		.byte	0x0
 17428 159f 03        		.uleb128 0x3
 17429 15a0 02        		.byte	0x2
 17430 15a1 0000      		.2byte	.LM789
 17431 15a3 12        		.byte	0x12
 17432 15a4 00        		.byte	0x0
 17433 15a5 03        		.uleb128 0x3
 17434 15a6 02        		.byte	0x2
 17435 15a7 0000      		.2byte	.LM790
 17436 15a9 03        		.byte	0x3
 17437 15aa 8203      		.sleb128 386
 17438 15ac 01        		.byte	0x1
 17439 15ad 00        		.byte	0x0
 17440 15ae 03        		.uleb128 0x3
 17441 15af 02        		.byte	0x2
 17442 15b0 0000      		.2byte	.LM791
 17443 15b2 03        		.byte	0x3
 17444 15b3 A67D      		.sleb128 -346
 17445 15b5 01        		.byte	0x1
 17446 15b6 00        		.byte	0x0
 17447 15b7 03        		.uleb128 0x3
 17448 15b8 02        		.byte	0x2
 17449 15b9 0000      		.2byte	.LM792
 17450 15bb 13        		.byte	0x13
 17451 15bc 00        		.byte	0x0
 17452 15bd 03        		.uleb128 0x3
 17453 15be 02        		.byte	0x2
 17454 15bf 0000      		.2byte	.LM793
 17455 15c1 17        		.byte	0x17
 17456 15c2 00        		.byte	0x0
 17457 15c3 03        		.uleb128 0x3
 17458 15c4 02        		.byte	0x2
 17459 15c5 0000      		.2byte	.LM794
 17460 15c7 03        		.byte	0x3
 17461 15c8 DA02      		.sleb128 346
 17462 15ca 01        		.byte	0x1
 17463 15cb 00        		.byte	0x0
 17464 15cc 03        		.uleb128 0x3
 17465 15cd 02        		.byte	0x2
 17466 15ce 0000      		.2byte	.LM795
 17467 15d0 0D        		.byte	0xd
 17468 15d1 00        		.byte	0x0
GAS LISTING /tmp/ccvQL2RB.s 			page 314


 17469 15d2 03        		.uleb128 0x3
 17470 15d3 02        		.byte	0x2
 17471 15d4 0000      		.2byte	.LM796
 17472 15d6 15        		.byte	0x15
 17473 15d7 00        		.byte	0x0
 17474 15d8 03        		.uleb128 0x3
 17475 15d9 02        		.byte	0x2
 17476 15da 0000      		.2byte	.LM797
 17477 15dc 0F        		.byte	0xf
 17478 15dd 00        		.byte	0x0
 17479 15de 03        		.uleb128 0x3
 17480 15df 02        		.byte	0x2
 17481 15e0 0000      		.2byte	.LM798
 17482 15e2 15        		.byte	0x15
 17483 15e3 00        		.byte	0x0
 17484 15e4 03        		.uleb128 0x3
 17485 15e5 02        		.byte	0x2
 17486 15e6 0000      		.2byte	.LM799
 17487 15e8 03        		.byte	0x3
 17488 15e9 A37D      		.sleb128 -349
 17489 15eb 01        		.byte	0x1
 17490 15ec 00        		.byte	0x0
 17491 15ed 03        		.uleb128 0x3
 17492 15ee 02        		.byte	0x2
 17493 15ef 0000      		.2byte	.LM800
 17494 15f1 16        		.byte	0x16
 17495 15f2 00        		.byte	0x0
 17496 15f3 03        		.uleb128 0x3
 17497 15f4 02        		.byte	0x2
 17498 15f5 0000      		.2byte	.LM801
 17499 15f7 13        		.byte	0x13
 17500 15f8 00        		.byte	0x0
 17501 15f9 03        		.uleb128 0x3
 17502 15fa 02        		.byte	0x2
 17503 15fb 0000      		.2byte	.LM802
 17504 15fd 03        		.byte	0x3
 17505 15fe D702      		.sleb128 343
 17506 1600 01        		.byte	0x1
 17507 1601 00        		.byte	0x0
 17508 1602 03        		.uleb128 0x3
 17509 1603 02        		.byte	0x2
 17510 1604 0000      		.2byte	.LM803
 17511 1606 15        		.byte	0x15
 17512 1607 00        		.byte	0x0
 17513 1608 03        		.uleb128 0x3
 17514 1609 02        		.byte	0x2
 17515 160a 0000      		.2byte	.LM804
 17516 160c 03        		.byte	0x3
 17517 160d A77D      		.sleb128 -345
 17518 160f 01        		.byte	0x1
 17519 1610 00        		.byte	0x0
 17520 1611 03        		.uleb128 0x3
 17521 1612 02        		.byte	0x2
 17522 1613 0000      		.2byte	.LM805
 17523 1615 16        		.byte	0x16
 17524 1616 00        		.byte	0x0
 17525 1617 03        		.uleb128 0x3
GAS LISTING /tmp/ccvQL2RB.s 			page 315


 17526 1618 02        		.byte	0x2
 17527 1619 0000      		.2byte	.LM806
 17528 161b 13        		.byte	0x13
 17529 161c 00        		.byte	0x0
 17530 161d 03        		.uleb128 0x3
 17531 161e 02        		.byte	0x2
 17532 161f 0000      		.2byte	.LM807
 17533 1621 03        		.byte	0x3
 17534 1622 CF02      		.sleb128 335
 17535 1624 01        		.byte	0x1
 17536 1625 00        		.byte	0x0
 17537 1626 03        		.uleb128 0x3
 17538 1627 02        		.byte	0x2
 17539 1628 0000      		.2byte	.LM808
 17540 162a 03        		.byte	0x3
 17541 162b BD7D      		.sleb128 -323
 17542 162d 01        		.byte	0x1
 17543 162e 00        		.byte	0x0
 17544 162f 03        		.uleb128 0x3
 17545 1630 02        		.byte	0x2
 17546 1631 0000      		.2byte	.LM809
 17547 1633 03        		.byte	0x3
 17548 1634 73        		.sleb128 -13
 17549 1635 01        		.byte	0x1
 17550 1636 00        		.byte	0x0
 17551 1637 03        		.uleb128 0x3
 17552 1638 02        		.byte	0x2
 17553 1639 0000      		.2byte	.LM810
 17554 163b 16        		.byte	0x16
 17555 163c 00        		.byte	0x0
 17556 163d 03        		.uleb128 0x3
 17557 163e 02        		.byte	0x2
 17558 163f 0000      		.2byte	.LM811
 17559 1641 13        		.byte	0x13
 17560 1642 00        		.byte	0x0
 17561 1643 03        		.uleb128 0x3
 17562 1644 02        		.byte	0x2
 17563 1645 0000      		.2byte	.LM812
 17564 1647 03        		.byte	0x3
 17565 1648 C602      		.sleb128 326
 17566 164a 01        		.byte	0x1
 17567 164b 00        		.byte	0x0
 17568 164c 03        		.uleb128 0x3
 17569 164d 02        		.byte	0x2
 17570 164e 0000      		.2byte	.LM813
 17571 1650 03        		.byte	0x3
 17572 1651 C67D      		.sleb128 -314
 17573 1653 01        		.byte	0x1
 17574 1654 00        		.byte	0x0
 17575 1655 03        		.uleb128 0x3
 17576 1656 02        		.byte	0x2
 17577 1657 0000      		.2byte	.LM814
 17578 1659 03        		.byte	0x3
 17579 165a 73        		.sleb128 -13
 17580 165b 01        		.byte	0x1
 17581 165c 00        		.byte	0x0
 17582 165d 03        		.uleb128 0x3
GAS LISTING /tmp/ccvQL2RB.s 			page 316


 17583 165e 02        		.byte	0x2
 17584 165f 0000      		.2byte	.LM815
 17585 1661 16        		.byte	0x16
 17586 1662 00        		.byte	0x0
 17587 1663 03        		.uleb128 0x3
 17588 1664 02        		.byte	0x2
 17589 1665 0000      		.2byte	.LM816
 17590 1667 13        		.byte	0x13
 17591 1668 00        		.byte	0x0
 17592 1669 03        		.uleb128 0x3
 17593 166a 02        		.byte	0x2
 17594 166b 0000      		.2byte	.LM817
 17595 166d 03        		.byte	0x3
 17596 166e BD02      		.sleb128 317
 17597 1670 01        		.byte	0x1
 17598 1671 00        		.byte	0x0
 17599 1672 03        		.uleb128 0x3
 17600 1673 02        		.byte	0x2
 17601 1674 0000      		.2byte	.LM818
 17602 1676 03        		.byte	0x3
 17603 1677 CF7D      		.sleb128 -305
 17604 1679 01        		.byte	0x1
 17605 167a 00        		.byte	0x0
 17606 167b 03        		.uleb128 0x3
 17607 167c 02        		.byte	0x2
 17608 167d 0000      		.2byte	.LM819
 17609 167f 03        		.byte	0x3
 17610 1680 AA02      		.sleb128 298
 17611 1682 01        		.byte	0x1
 17612 1683 00        		.byte	0x0
 17613 1684 03        		.uleb128 0x3
 17614 1685 02        		.byte	0x2
 17615 1686 0000      		.2byte	.LM820
 17616 1688 15        		.byte	0x15
 17617 1689 00        		.byte	0x0
 17618 168a 03        		.uleb128 0x3
 17619 168b 02        		.byte	0x2
 17620 168c 0000      		.2byte	.LM821
 17621 168e 15        		.byte	0x15
 17622 168f 00        		.byte	0x0
 17623 1690 03        		.uleb128 0x3
 17624 1691 02        		.byte	0x2
 17625 1692 0000      		.2byte	.LM822
 17626 1694 15        		.byte	0x15
 17627 1695 00        		.byte	0x0
 17628 1696 03        		.uleb128 0x3
 17629 1697 02        		.byte	0x2
 17630 1698 0000      		.2byte	.LM823
 17631 169a 03        		.byte	0x3
 17632 169b F17E      		.sleb128 -143
 17633 169d 01        		.byte	0x1
 17634 169e 00        		.byte	0x0
 17635 169f 03        		.uleb128 0x3
 17636 16a0 02        		.byte	0x2
 17637 16a1 0000      		.2byte	.LM824
 17638 16a3 5F        		.byte	0x5f
 17639 16a4 00        		.byte	0x0
GAS LISTING /tmp/ccvQL2RB.s 			page 317


 17640 16a5 03        		.uleb128 0x3
 17641 16a6 02        		.byte	0x2
 17642 16a7 0000      		.2byte	.LM825
 17643 16a9 03        		.byte	0x3
 17644 16aa 8A7E      		.sleb128 -246
 17645 16ac 01        		.byte	0x1
 17646 16ad 00        		.byte	0x0
 17647 16ae 03        		.uleb128 0x3
 17648 16af 02        		.byte	0x2
 17649 16b0 0000      		.2byte	.LM826
 17650 16b2 16        		.byte	0x16
 17651 16b3 00        		.byte	0x0
 17652 16b4 03        		.uleb128 0x3
 17653 16b5 02        		.byte	0x2
 17654 16b6 0000      		.2byte	.LM827
 17655 16b8 13        		.byte	0x13
 17656 16b9 00        		.byte	0x0
 17657 16ba 03        		.uleb128 0x3
 17658 16bb 02        		.byte	0x2
 17659 16bc 0000      		.2byte	.LM828
 17660 16be 03        		.byte	0x3
 17661 16bf F901      		.sleb128 249
 17662 16c1 01        		.byte	0x1
 17663 16c2 00        		.byte	0x0
 17664 16c3 03        		.uleb128 0x3
 17665 16c4 02        		.byte	0x2
 17666 16c5 0000      		.2byte	.LM829
 17667 16c7 19        		.byte	0x19
 17668 16c8 00        		.byte	0x0
 17669 16c9 03        		.uleb128 0x3
 17670 16ca 02        		.byte	0x2
 17671 16cb 0000      		.2byte	.LM830
 17672 16cd 03        		.byte	0x3
 17673 16ce 997E      		.sleb128 -231
 17674 16d0 01        		.byte	0x1
 17675 16d1 00        		.byte	0x0
 17676 16d2 03        		.uleb128 0x3
 17677 16d3 02        		.byte	0x2
 17678 16d4 0000      		.2byte	.LM831
 17679 16d6 15        		.byte	0x15
 17680 16d7 00        		.byte	0x0
 17681 16d8 03        		.uleb128 0x3
 17682 16d9 02        		.byte	0x2
 17683 16da 0000      		.2byte	.LM832
 17684 16dc 03        		.byte	0x3
 17685 16dd EE01      		.sleb128 238
 17686 16df 01        		.byte	0x1
 17687 16e0 00        		.byte	0x0
 17688 16e1 03        		.uleb128 0x3
 17689 16e2 02        		.byte	0x2
 17690 16e3 0000      		.2byte	.LM833
 17691 16e5 03        		.byte	0x3
 17692 16e6 917E      		.sleb128 -239
 17693 16e8 01        		.byte	0x1
 17694 16e9 00        		.byte	0x0
 17695 16ea 03        		.uleb128 0x3
 17696 16eb 02        		.byte	0x2
GAS LISTING /tmp/ccvQL2RB.s 			page 318


 17697 16ec 0000      		.2byte	.LM834
 17698 16ee 15        		.byte	0x15
 17699 16ef 00        		.byte	0x0
 17700 16f0 03        		.uleb128 0x3
 17701 16f1 02        		.byte	0x2
 17702 16f2 0000      		.2byte	.LM835
 17703 16f4 FD        		.byte	0xfd
 17704 16f5 00        		.byte	0x0
 17705 16f6 03        		.uleb128 0x3
 17706 16f7 02        		.byte	0x2
 17707 16f8 0000      		.2byte	.LM836
 17708 16fa 0F        		.byte	0xf
 17709 16fb 00        		.byte	0x0
 17710 16fc 03        		.uleb128 0x3
 17711 16fd 02        		.byte	0x2
 17712 16fe 0000      		.2byte	.LM837
 17713 1700 03        		.byte	0x3
 17714 1701 8503      		.sleb128 389
 17715 1703 01        		.byte	0x1
 17716 1704 00        		.byte	0x0
 17717 1705 03        		.uleb128 0x3
 17718 1706 02        		.byte	0x2
 17719 1707 0000      		.2byte	.LM838
 17720 1709 01        		.byte	0x1
 17721 170a 00        		.byte	0x0
 17722 170b 03        		.uleb128 0x3
 17723 170c 02        		.byte	0x2
 17724 170d 0000      		.2byte	.LM839
 17725 170f 1A        		.byte	0x1a
 17726 1710 00        		.byte	0x0
 17727 1711 03        		.uleb128 0x3
 17728 1712 02        		.byte	0x2
 17729 1713 0000      		.2byte	.LM840
 17730 1715 1C        		.byte	0x1c
 17731 1716 00        		.byte	0x0
 17732 1717 03        		.uleb128 0x3
 17733 1718 02        		.byte	0x2
 17734 1719 0000      		.2byte	.LM841
 17735 171b 0C        		.byte	0xc
 17736 171c 00        		.byte	0x0
 17737 171d 03        		.uleb128 0x3
 17738 171e 02        		.byte	0x2
 17739 171f 0000      		.2byte	.LM842
 17740 1721 15        		.byte	0x15
 17741 1722 00        		.byte	0x0
 17742 1723 03        		.uleb128 0x3
 17743 1724 02        		.byte	0x2
 17744 1725 0000      		.2byte	.LM843
 17745 1727 19        		.byte	0x19
 17746 1728 00        		.byte	0x0
 17747 1729 03        		.uleb128 0x3
 17748 172a 02        		.byte	0x2
 17749 172b 0000      		.2byte	.LM844
 17750 172d 16        		.byte	0x16
 17751 172e 00        		.byte	0x0
 17752 172f 03        		.uleb128 0x3
 17753 1730 02        		.byte	0x2
GAS LISTING /tmp/ccvQL2RB.s 			page 319


 17754 1731 0000      		.2byte	.LM845
 17755 1733 03        		.byte	0x3
 17756 1734 887B      		.sleb128 -632
 17757 1736 01        		.byte	0x1
 17758 1737 00        		.byte	0x0
 17759 1738 03        		.uleb128 0x3
 17760 1739 02        		.byte	0x2
 17761 173a 0000      		.2byte	.LM846
 17762 173c 15        		.byte	0x15
 17763 173d 00        		.byte	0x0
 17764 173e 03        		.uleb128 0x3
 17765 173f 02        		.byte	0x2
 17766 1740 0000      		.2byte	.LM847
 17767 1742 03        		.byte	0x3
 17768 1743 FC04      		.sleb128 636
 17769 1745 01        		.byte	0x1
 17770 1746 00        		.byte	0x0
 17771 1747 03        		.uleb128 0x3
 17772 1748 02        		.byte	0x2
 17773 1749 0000      		.2byte	.LM848
 17774 174b 03        		.byte	0x3
 17775 174c 73        		.sleb128 -13
 17776 174d 01        		.byte	0x1
 17777 174e 00        		.byte	0x0
 17778 174f 03        		.uleb128 0x3
 17779 1750 02        		.byte	0x2
 17780 1751 0000      		.2byte	.LM849
 17781 1753 17        		.byte	0x17
 17782 1754 00        		.byte	0x0
 17783 1755 03        		.uleb128 0x3
 17784 1756 02        		.byte	0x2
 17785 1757 0000      		.2byte	.LM850
 17786 1759 17        		.byte	0x17
 17787 175a 00        		.byte	0x0
 17788 175b 03        		.uleb128 0x3
 17789 175c 02        		.byte	0x2
 17790 175d 0000      		.2byte	.LM851
 17791 175f 16        		.byte	0x16
 17792 1760 00        		.byte	0x0
 17793 1761 03        		.uleb128 0x3
 17794 1762 02        		.byte	0x2
 17795 1763 0000      		.2byte	.LM852
 17796 1765 16        		.byte	0x16
 17797 1766 00        		.byte	0x0
 17798 1767 03        		.uleb128 0x3
 17799 1768 02        		.byte	0x2
 17800 1769 0000      		.2byte	.LM853
 17801 176b 1D        		.byte	0x1d
 17802 176c 00        		.byte	0x0
 17803 176d 03        		.uleb128 0x3
 17804 176e 02        		.byte	0x2
 17805 176f 0000      		.2byte	.LM854
 17806 1771 17        		.byte	0x17
 17807 1772 00        		.byte	0x0
 17808 1773 03        		.uleb128 0x3
 17809 1774 02        		.byte	0x2
 17810 1775 0000      		.2byte	.LM855
GAS LISTING /tmp/ccvQL2RB.s 			page 320


 17811 1777 15        		.byte	0x15
 17812 1778 00        		.byte	0x0
 17813 1779 03        		.uleb128 0x3
 17814 177a 02        		.byte	0x2
 17815 177b 0000      		.2byte	.LM856
 17816 177d 15        		.byte	0x15
 17817 177e 00        		.byte	0x0
 17818 177f 03        		.uleb128 0x3
 17819 1780 02        		.byte	0x2
 17820 1781 0000      		.2byte	.LM857
 17821 1783 03        		.byte	0x3
 17822 1784 DD79      		.sleb128 -803
 17823 1786 01        		.byte	0x1
 17824 1787 00        		.byte	0x0
 17825 1788 03        		.uleb128 0x3
 17826 1789 02        		.byte	0x2
 17827 178a 0000      		.2byte	.LM858
 17828 178c 16        		.byte	0x16
 17829 178d 00        		.byte	0x0
 17830 178e 03        		.uleb128 0x3
 17831 178f 02        		.byte	0x2
 17832 1790 0000      		.2byte	.LM859
 17833 1792 15        		.byte	0x15
 17834 1793 00        		.byte	0x0
 17835 1794 03        		.uleb128 0x3
 17836 1795 02        		.byte	0x2
 17837 1796 0000      		.2byte	.LM860
 17838 1798 16        		.byte	0x16
 17839 1799 00        		.byte	0x0
 17840 179a 03        		.uleb128 0x3
 17841 179b 02        		.byte	0x2
 17842 179c 0000      		.2byte	.LM861
 17843 179e 15        		.byte	0x15
 17844 179f 00        		.byte	0x0
 17845 17a0 03        		.uleb128 0x3
 17846 17a1 02        		.byte	0x2
 17847 17a2 0000      		.2byte	.LM862
 17848 17a4 16        		.byte	0x16
 17849 17a5 00        		.byte	0x0
 17850 17a6 03        		.uleb128 0x3
 17851 17a7 02        		.byte	0x2
 17852 17a8 0000      		.2byte	.LM863
 17853 17aa 15        		.byte	0x15
 17854 17ab 00        		.byte	0x0
 17855 17ac 03        		.uleb128 0x3
 17856 17ad 02        		.byte	0x2
 17857 17ae 0000      		.2byte	.LM864
 17858 17b0 16        		.byte	0x16
 17859 17b1 00        		.byte	0x0
 17860 17b2 03        		.uleb128 0x3
 17861 17b3 02        		.byte	0x2
 17862 17b4 0000      		.2byte	.LM865
 17863 17b6 03        		.byte	0x3
 17864 17b7 9C06      		.sleb128 796
 17865 17b9 01        		.byte	0x1
 17866 17ba 00        		.byte	0x0
 17867 17bb 03        		.uleb128 0x3
GAS LISTING /tmp/ccvQL2RB.s 			page 321


 17868 17bc 02        		.byte	0x2
 17869 17bd 0000      		.2byte	.LM866
 17870 17bf 15        		.byte	0x15
 17871 17c0 00        		.byte	0x0
 17872 17c1 03        		.uleb128 0x3
 17873 17c2 02        		.byte	0x2
 17874 17c3 0000      		.2byte	.LM867
 17875 17c5 15        		.byte	0x15
 17876 17c6 00        		.byte	0x0
 17877 17c7 03        		.uleb128 0x3
 17878 17c8 02        		.byte	0x2
 17879 17c9 0000      		.2byte	.LM868
 17880 17cb 15        		.byte	0x15
 17881 17cc 00        		.byte	0x0
 17882 17cd 03        		.uleb128 0x3
 17883 17ce 02        		.byte	0x2
 17884 17cf 0000      		.2byte	.LM869
 17885 17d1 03        		.byte	0x3
 17886 17d2 BA79      		.sleb128 -838
 17887 17d4 01        		.byte	0x1
 17888 17d5 00        		.byte	0x0
 17889 17d6 03        		.uleb128 0x3
 17890 17d7 02        		.byte	0x2
 17891 17d8 0000      		.2byte	.LM870
 17892 17da 16        		.byte	0x16
 17893 17db 00        		.byte	0x0
 17894 17dc 03        		.uleb128 0x3
 17895 17dd 02        		.byte	0x2
 17896 17de 0000      		.2byte	.LM871
 17897 17e0 15        		.byte	0x15
 17898 17e1 00        		.byte	0x0
 17899 17e2 03        		.uleb128 0x3
 17900 17e3 02        		.byte	0x2
 17901 17e4 0000      		.2byte	.LM872
 17902 17e6 13        		.byte	0x13
 17903 17e7 00        		.byte	0x0
 17904 17e8 03        		.uleb128 0x3
 17905 17e9 02        		.byte	0x2
 17906 17ea 0000      		.2byte	.LM873
 17907 17ec 17        		.byte	0x17
 17908 17ed 00        		.byte	0x0
 17909 17ee 03        		.uleb128 0x3
 17910 17ef 02        		.byte	0x2
 17911 17f0 0000      		.2byte	.LM874
 17912 17f2 10        		.byte	0x10
 17913 17f3 00        		.byte	0x0
 17914 17f4 03        		.uleb128 0x3
 17915 17f5 02        		.byte	0x2
 17916 17f6 0000      		.2byte	.LM875
 17917 17f8 19        		.byte	0x19
 17918 17f9 00        		.byte	0x0
 17919 17fa 03        		.uleb128 0x3
 17920 17fb 02        		.byte	0x2
 17921 17fc 0000      		.2byte	.LM876
 17922 17fe 03        		.byte	0x3
 17923 17ff C606      		.sleb128 838
 17924 1801 01        		.byte	0x1
GAS LISTING /tmp/ccvQL2RB.s 			page 322


 17925 1802 00        		.byte	0x0
 17926 1803 03        		.uleb128 0x3
 17927 1804 02        		.byte	0x2
 17928 1805 0000      		.2byte	.LM877
 17929 1807 15        		.byte	0x15
 17930 1808 00        		.byte	0x0
 17931 1809 03        		.uleb128 0x3
 17932 180a 02        		.byte	0x2
 17933 180b 0000      		.2byte	.LM878
 17934 180d 15        		.byte	0x15
 17935 180e 00        		.byte	0x0
 17936 180f 03        		.uleb128 0x3
 17937 1810 02        		.byte	0x2
 17938 1811 0000      		.2byte	.LM879
 17939 1813 16        		.byte	0x16
 17940 1814 00        		.byte	0x0
 17941 1815 03        		.uleb128 0x3
 17942 1816 02        		.byte	0x2
 17943 1817 0000      		.2byte	.LM880
 17944 1819 15        		.byte	0x15
 17945 181a 00        		.byte	0x0
 17946 181b 03        		.uleb128 0x3
 17947 181c 02        		.byte	0x2
 17948 181d 0000      		.2byte	.LM881
 17949 181f 15        		.byte	0x15
 17950 1820 00        		.byte	0x0
 17951 1821 03        		.uleb128 0x3
 17952 1822 02        		.byte	0x2
 17953 1823 0000      		.2byte	.LM882
 17954 1825 16        		.byte	0x16
 17955 1826 00        		.byte	0x0
 17956 1827 03        		.uleb128 0x3
 17957 1828 02        		.byte	0x2
 17958 1829 0000      		.2byte	.LM883
 17959 182b 16        		.byte	0x16
 17960 182c 00        		.byte	0x0
 17961 182d 03        		.uleb128 0x3
 17962 182e 02        		.byte	0x2
 17963 182f 0000      		.2byte	.LM884
 17964 1831 17        		.byte	0x17
 17965 1832 00        		.byte	0x0
 17966 1833 03        		.uleb128 0x3
 17967 1834 02        		.byte	0x2
 17968 1835 0000      		.2byte	.LM885
 17969 1837 16        		.byte	0x16
 17970 1838 00        		.byte	0x0
 17971 1839 03        		.uleb128 0x3
 17972 183a 02        		.byte	0x2
 17973 183b 0000      		.2byte	.LM886
 17974 183d 15        		.byte	0x15
 17975 183e 00        		.byte	0x0
 17976 183f 03        		.uleb128 0x3
 17977 1840 02        		.byte	0x2
 17978 1841 0000      		.2byte	.LM887
 17979 1843 16        		.byte	0x16
 17980 1844 00        		.byte	0x0
 17981 1845 03        		.uleb128 0x3
GAS LISTING /tmp/ccvQL2RB.s 			page 323


 17982 1846 02        		.byte	0x2
 17983 1847 0000      		.2byte	.Letext0
 17984 1849 00        		.byte	0x0
 17985 184a 01        		.uleb128 0x1
 17986 184b 01        		.byte	0x1
 17987               	.LELT0:
 17988 184c 1900 0000 		.section	.debug_str,"MS",@progbits,1
 17988      0200 1300 
 17988      0000 0101 
 17988      FB0E 0D00 
 17988      0101 0101 
 17989               	.LASF45:
 17990 0000 6765 744B 		.string	"getKey"
 17990      6579 00
 17991               	.LASF15:
 17992 0007 7461 6D63 		.string	"tamc"
 17992      00
 17993               	.LASF137:
 17994 000c 2A30 7830 		.string	"*0x002D"
 17994      3032 4400 
 17995               	.LASF163:
 17996 0014 2A30 7831 		.string	"*0x112 + 0x02"
 17996      3132 202B 
 17996      2030 7830 
 17996      3200 
 17997               	.LASF238:
 17998 0022 6D61 7468 		.string	"mathStack"
 17998      5374 6163 
 17998      6B00 
 17999               	.LASF252:
 18000 002c 7072 6F67 		.string	"progBi"
 18000      4269 00
 18001               	.LASF201:
 18002 0033 5041 4449 		.string	"PADIR"
 18002      5200 
 18003               	.LASF72:
 18004 0039 6578 6563 		.string	"execFunc"
 18004      4675 6E63 
 18004      00
 18005               	.LASF107:
 18006 0042 7469 6D65 		.string	"timera"
 18006      7261 00
 18007               	.LASF142:
 18008 0049 5344 3136 		.string	"SD16CTL"
 18008      4354 4C00 
 18009               	.LASF190:
 18010 0051 2A30 7831 		.string	"*0x10FB"
 18010      3046 4200 
 18011               	.LASF261:
 18012 0059 636C 6963 		.string	"clicks"
 18012      6B73 00
 18013               	.LASF192:
 18014 0060 2A30 7831 		.string	"*0x10FC"
 18014      3046 4300 
 18015               	.LASF170:
 18016 0068 5553 4943 		.string	"USICNT"
 18016      4E54 00
GAS LISTING /tmp/ccvQL2RB.s 			page 324


 18017               	.LASF194:
 18018 006f 2A30 7831 		.string	"*0x10FD"
 18018      3046 4400 
 18019               	.LASF99:
 18020 0077 5441 3043 		.string	"TA0CCTL0"
 18020      4354 4C30 
 18020      00
 18021               	.LASF40:
 18022 0080 5F5F 7069 		.string	"__pin"
 18022      6E00 
 18023               	.LASF198:
 18024 0086 2A30 7831 		.string	"*0x10FF"
 18024      3046 4600 
 18025               	.LASF245:
 18026 008e 636D 644C 		.string	"cmdList"
 18026      6973 7400 
 18027               	.LASF270:
 18028 0096 696E 7075 		.string	"inputRingPtrXin"
 18028      7452 696E 
 18028      6750 7472 
 18028      5869 6E00 
 18029               	.LASF21:
 18030 00a6 6F75 746D 		.string	"outmod"
 18030      6F64 00
 18031               	.LASF46:
 18032 00ad 6765 744B 		.string	"getKeyB"
 18032      6579 4200 
 18033               	.LASF74:
 18034 00b5 7072 6F63 		.string	"processLoop"
 18034      6573 734C 
 18034      6F6F 7000 
 18035               	.LASF155:
 18036 00c1 2A30 7831 		.string	"*0x112 + 0x00"
 18036      3132 202B 
 18036      2030 7830 
 18036      3000 
 18037               	.LASF103:
 18038 00cf 5441 3043 		.string	"TA0CCR0"
 18038      4352 3000 
 18039               	.LASF278:
 18040 00d7 2F68 6F6D 		.string	"/home/dan/430/msp4th"
 18040      652F 6461 
 18040      6E2F 3433 
 18040      302F 6D73 
 18040      7034 7468 
 18041               	.LASF58:
 18042 00ec 7469 6D65 		.string	"timerInterrupt"
 18042      7249 6E74 
 18042      6572 7275 
 18042      7074 00
 18043               	.LASF10:
 18044 00fb 6C6F 6E67 		.string	"long long unsigned int"
 18044      206C 6F6E 
 18044      6720 756E 
 18044      7369 676E 
 18044      6564 2069 
 18045               	.LASF60:
GAS LISTING /tmp/ccvQL2RB.s 			page 325


 18046 0112 6765 7457 		.string	"getWord"
 18046      6F72 6400 
 18047               	.LASF161:
 18048 011a 2A30 7830 		.string	"*0x0104"
 18048      3130 3400 
 18049               	.LASF65:
 18050 0122 6164 6472 		.string	"addr"
 18050      00
 18051               	.LASF25:
 18052 0127 6363 746C 		.string	"cctl0"
 18052      3000 
 18053               	.LASF277:
 18054 012d 474E 5520 		.string	"GNU C 4.4.2"
 18054      4320 342E 
 18054      342E 3200 
 18055               	.LASF223:
 18056 0139 544D 5230 		.string	"TMR0_TCR"
 18056      5F54 4352 
 18056      00
 18057               	.LASF69:
 18058 0142 7072 696E 		.string	"printHexByte"
 18058      7448 6578 
 18058      4279 7465 
 18058      00
 18059               	.LASF227:
 18060 014f 544D 5230 		.string	"TMR0_CNT"
 18060      5F43 4E54 
 18060      00
 18061               	.LASF269:
 18062 0158 696E 7075 		.string	"inputRing"
 18062      7452 696E 
 18062      6700 
 18063               	.LASF17:
 18064 0162 7461 7373 		.string	"tassel"
 18064      656C 00
 18065               	.LASF3:
 18066 0169 696E 7431 		.string	"int16_t"
 18066      365F 7400 
 18067               	.LASF9:
 18068 0171 6C6F 6E67 		.string	"long long int"
 18068      206C 6F6E 
 18068      6720 696E 
 18068      7400 
 18069               	.LASF0:
 18070 017f 7369 676E 		.string	"signed char"
 18070      6564 2063 
 18070      6861 7200 
 18071               	.LASF112:
 18072 018b 5031 494E 		.string	"P1IN"
 18072      00
 18073               	.LASF216:
 18074 0190 2A30 7834 		.string	"*0x4000"
 18074      3030 3000 
 18075               	.LASF218:
 18076 0198 2A30 7834 		.string	"*0x4002"
 18076      3030 3200 
 18077               	.LASF66:
GAS LISTING /tmp/ccvQL2RB.s 			page 326


 18078 01a0 6466 6E46 		.string	"dfnFunc"
 18078      756E 6300 
 18079               	.LASF220:
 18080 01a8 2A30 7834 		.string	"*0x4004"
 18080      3030 3400 
 18081               	.LASF215:
 18082 01b0 5350 495F 		.string	"SPI_SCR"
 18082      5343 5200 
 18083               	.LASF193:
 18084 01b8 4341 4C42 		.string	"CALBC1_8MHZ"
 18084      4331 5F38 
 18084      4D48 5A00 
 18085               	.LASF150:
 18086 01c4 5344 3136 		.string	"SD16PRE0"
 18086      5052 4530 
 18086      00
 18087               	.LASF158:
 18088 01cd 5344 3136 		.string	"SD16PRE1"
 18088      5052 4531 
 18088      00
 18089               	.LASF93:
 18090 01d6 5441 3049 		.string	"TA0IV"
 18090      5600 
 18091               	.LASF250:
 18092 01dc 6469 724D 		.string	"dirMemory"
 18092      656D 6F72 
 18092      7900 
 18093               	.LASF185:
 18094 01e6 4341 4C42 		.string	"CALBC1_16MHZ"
 18094      4331 5F31 
 18094      364D 485A 
 18094      00
 18095               	.LASF254:
 18096 01f3 6C69 6E65 		.string	"lineBuffer"
 18096      4275 6666 
 18096      6572 00
 18097               	.LASF195:
 18098 01fe 4341 4C44 		.string	"CALDCO_1MHZ"
 18098      434F 5F31 
 18098      4D48 5A00 
 18099               	.LASF229:
 18100 020a 544D 5230 		.string	"TMR0_RA"
 18100      5F52 4100 
 18101               	.LASF7:
 18102 0212 6C6F 6E67 		.string	"long int"
 18102      2069 6E74 
 18102      00
 18103               	.LASF233:
 18104 021b 544D 5230 		.string	"TMR0_RC"
 18104      5F52 4300 
 18105               	.LASF96:
 18106 0223 2A30 7830 		.string	"*0x0160"
 18106      3136 3000 
 18107               	.LASF272:
 18108 022b 696E 7075 		.string	"inputBuf"
 18108      7442 7566 
 18108      00
GAS LISTING /tmp/ccvQL2RB.s 			page 327


 18109               	.LASF100:
 18110 0234 2A30 7830 		.string	"*0x0162"
 18110      3136 3200 
 18111               	.LASF78:
 18112 023c 4243 5343 		.string	"BCSCTL1"
 18112      544C 3100 
 18113               	.LASF81:
 18114 0244 4243 5343 		.string	"BCSCTL2"
 18114      544C 3200 
 18115               	.LASF83:
 18116 024c 4243 5343 		.string	"BCSCTL3"
 18116      544C 3300 
 18117               	.LASF76:
 18118 0254 5F75 6E65 		.string	"_unexpected_"
 18118      7870 6563 
 18118      7465 645F 
 18118      00
 18119               	.LASF181:
 18120 0261 4946 4731 		.string	"IFG1"
 18120      00
 18121               	.LASF221:
 18122 0266 5350 495F 		.string	"SPI_SR"
 18122      5352 00
 18123               	.LASF77:
 18124 026d 4443 4F43 		.string	"DCOCTL"
 18124      544C 00
 18125               	.LASF4:
 18126 0274 7569 6E74 		.string	"uint16_t"
 18126      3136 5F74 
 18126      00
 18127               	.LASF207:
 18128 027d 5042 4453 		.string	"PBDSR"
 18128      5200 
 18129               	.LASF84:
 18130 0283 2A30 7830 		.string	"*0x0053"
 18130      3035 3300 
 18131               	.LASF92:
 18132 028b 2A30 7830 		.string	"*0x0054"
 18132      3035 3400 
 18133               	.LASF80:
 18134 0293 2A30 7830 		.string	"*0x0057"
 18134      3035 3700 
 18135               	.LASF82:
 18136 029b 2A30 7830 		.string	"*0x0058"
 18136      3035 3800 
 18137               	.LASF91:
 18138 02a3 4550 4354 		.string	"EPCTL"
 18138      4C00 
 18139               	.LASF180:
 18140 02a9 2A30 7830 		.string	"*0x0120"
 18140      3132 3000 
 18141               	.LASF253:
 18142 02b1 7072 6F67 		.string	"progCounter"
 18142      436F 756E 
 18142      7465 7200 
 18143               	.LASF43:
 18144 02bd 706F 7274 		.string	"port_full_t"
GAS LISTING /tmp/ccvQL2RB.s 			page 328


 18144      5F66 756C 
 18144      6C5F 7400 
 18145               	.LASF128:
 18146 02c9 5032 4F55 		.string	"P2OUT"
 18146      5400 
 18147               	.LASF200:
 18148 02cf 2A30 7832 		.string	"*0x2000"
 18148      3030 3000 
 18149               	.LASF208:
 18150 02d7 2A30 7832 		.string	"*0x2002"
 18150      3030 3200 
 18151               	.LASF14:
 18152 02df 6475 6D6D 		.string	"dummy"
 18152      7900 
 18153               	.LASF86:
 18154 02e5 2A30 7830 		.string	"*0x0128"
 18154      3132 3800 
 18155               	.LASF256:
 18156 02ed 776F 7264 		.string	"wordBuffer"
 18156      4275 6666 
 18156      6572 00
 18157               	.LASF202:
 18158 02f8 2A30 7832 		.string	"*0x2004"
 18158      3030 3400 
 18159               	.LASF183:
 18160 0300 4341 4C44 		.string	"CALDCO_16MHZ"
 18160      434F 5F31 
 18160      364D 485A 
 18160      00
 18161               	.LASF279:
 18162 030d 706F 7274 		.string	"port"
 18162      00
 18163               	.LASF210:
 18164 0312 2A30 7832 		.string	"*0x2006"
 18164      3030 3600 
 18165               	.LASF64:
 18166 031a 6E75 6D46 		.string	"numFunc"
 18166      756E 6300 
 18167               	.LASF204:
 18168 0322 2A30 7832 		.string	"*0x2008"
 18168      3030 3800 
 18169               	.LASF48:
 18170 032a 7075 7368 		.string	"pushMathStack"
 18170      4D61 7468 
 18170      5374 6163 
 18170      6B00 
 18171               	.LASF188:
 18172 0338 2A30 7831 		.string	"*0x10FA"
 18172      3046 4100 
 18173               	.LASF5:
 18174 0340 756E 7369 		.string	"unsigned int"
 18174      676E 6564 
 18174      2069 6E74 
 18174      00
 18175               	.LASF214:
 18176 034d 2A30 7832 		.string	"*0x200E"
 18176      3030 4500 
GAS LISTING /tmp/ccvQL2RB.s 			page 329


 18177               	.LASF98:
 18178 0355 2A30 7830 		.string	"*0x0170"
 18178      3137 3000 
 18179               	.LASF104:
 18180 035d 2A30 7830 		.string	"*0x0172"
 18180      3137 3200 
 18181               	.LASF106:
 18182 0365 2A30 7830 		.string	"*0x0174"
 18182      3137 3400 
 18183               	.LASF102:
 18184 036d 2A30 7830 		.string	"*0x0164"
 18184      3136 3400 
 18185               	.LASF205:
 18186 0375 5041 5045 		.string	"PAPER"
 18186      5200 
 18187               	.LASF70:
 18188 037b 7072 696E 		.string	"printHexWord"
 18188      7448 6578 
 18188      576F 7264 
 18188      00
 18189               	.LASF101:
 18190 0388 5441 3043 		.string	"TA0CCTL1"
 18190      4354 4C31 
 18190      00
 18191               	.LASF8:
 18192 0391 6C6F 6E67 		.string	"long unsigned int"
 18192      2075 6E73 
 18192      6967 6E65 
 18192      6420 696E 
 18192      7400 
 18193               	.LASF196:
 18194 03a3 2A30 7831 		.string	"*0x10FE"
 18194      3046 4500 
 18195               	.LASF225:
 18196 03ab 544D 5230 		.string	"TMR0_SR"
 18196      5F53 5200 
 18197               	.LASF122:
 18198 03b3 2A30 7830 		.string	"*0x0025"
 18198      3032 3500 
 18199               	.LASF53:
 18200 03bb 7075 7368 		.string	"pushnFunc"
 18200      6E46 756E 
 18200      6300 
 18201               	.LASF119:
 18202 03c5 5031 4945 		.string	"P1IES"
 18202      5300 
 18203               	.LASF61:
 18204 03cb 6C69 7374 		.string	"listFunction"
 18204      4675 6E63 
 18204      7469 6F6E 
 18204      00
 18205               	.LASF108:
 18206 03d8 706F 7274 		.string	"port1"
 18206      3100 
 18207               	.LASF110:
 18208 03de 706F 7274 		.string	"port2"
 18208      3200 
GAS LISTING /tmp/ccvQL2RB.s 			page 330


 18209               	.LASF29:
 18210 03e4 7461 6363 		.string	"taccr0"
 18210      7230 00
 18211               	.LASF30:
 18212 03eb 7461 6363 		.string	"taccr1"
 18212      7231 00
 18213               	.LASF39:
 18214 03f2 7265 675F 		.string	"reg_p"
 18214      7000 
 18215               	.LASF129:
 18216 03f8 2A30 7830 		.string	"*0x0029"
 18216      3032 3900 
 18217               	.LASF184:
 18218 0400 2A30 7831 		.string	"*0x10F8"
 18218      3046 3800 
 18219               	.LASF186:
 18220 0408 2A30 7831 		.string	"*0x10F9"
 18220      3046 3900 
 18221               	.LASF113:
 18222 0410 5031 4F55 		.string	"P1OUT"
 18222      5400 
 18223               	.LASF168:
 18224 0416 5553 4943 		.string	"USICKCTL"
 18224      4B43 544C 
 18224      00
 18225               	.LASF212:
 18226 041f 2A30 7832 		.string	"*0x200A"
 18226      3030 4100 
 18227               	.LASF260:
 18228 0427 6F75 7470 		.string	"outputCharCntr"
 18228      7574 4368 
 18228      6172 436E 
 18228      7472 00
 18229               	.LASF206:
 18230 0436 2A30 7832 		.string	"*0x200C"
 18230      3030 4300 
 18231               	.LASF143:
 18232 043e 2A30 7830 		.string	"*0x0100"
 18232      3130 3000 
 18233               	.LASF79:
 18234 0446 2A30 7830 		.string	"*0x0056"
 18234      3035 3600 
 18235               	.LASF153:
 18236 044e 2A30 7830 		.string	"*0x0102"
 18236      3130 3200 
 18237               	.LASF19:
 18238 0456 6363 6966 		.string	"ccifg"
 18238      6700 
 18239               	.LASF144:
 18240 045c 5344 3136 		.string	"SD16IV"
 18240      4956 00
 18241               	.LASF197:
 18242 0463 4341 4C42 		.string	"CALBC1_1MHZ"
 18242      4331 5F31 
 18242      4D48 5A00 
 18243               	.LASF191:
 18244 046f 4341 4C44 		.string	"CALDCO_8MHZ"
GAS LISTING /tmp/ccvQL2RB.s 			page 331


 18244      434F 5F38 
 18244      4D48 5A00 
 18245               	.LASF259:
 18246 047b 6F75 7470 		.string	"outputChar"
 18246      7574 4368 
 18246      6172 00
 18247               	.LASF175:
 18248 0486 2A30 7830 		.string	"*0x007D"
 18248      3037 4400 
 18249               	.LASF138:
 18250 048e 5032 5345 		.string	"P2SEL"
 18250      4C00 
 18251               	.LASF105:
 18252 0494 5441 3043 		.string	"TA0CCR1"
 18252      4352 3100 
 18253               	.LASF230:
 18254 049c 2A30 7836 		.string	"*0x6006"
 18254      3030 3600 
 18255               	.LASF22:
 18256 04a4 7363 6369 		.string	"scci"
 18256      00
 18257               	.LASF130:
 18258 04a9 5032 4449 		.string	"P2DIR"
 18258      5200 
 18259               	.LASF164:
 18260 04af 5553 4943 		.string	"USICTL0"
 18260      544C 3000 
 18261               	.LASF166:
 18262 04b7 5553 4943 		.string	"USICTL1"
 18262      544C 3100 
 18263               	.LASF243:
 18264 04bf 7072 6F67 		.string	"progOps"
 18264      4F70 7300 
 18265               	.LASF26:
 18266 04c7 6363 746C 		.string	"cctl1"
 18266      3100 
 18267               	.LASF117:
 18268 04cd 5031 4946 		.string	"P1IFG"
 18268      4700 
 18269               	.LASF85:
 18270 04d3 4643 544C 		.string	"FCTL1"
 18270      3100 
 18271               	.LASF16:
 18272 04d9 7461 6964 		.string	"taid"
 18272      00
 18273               	.LASF12:
 18274 04de 7461 6965 		.string	"taie"
 18274      00
 18275               	.LASF89:
 18276 04e3 4643 544C 		.string	"FCTL3"
 18276      3300 
 18277               	.LASF18:
 18278 04e9 7461 6374 		.string	"tactl_t"
 18278      6C5F 7400 
 18279               	.LASF213:
 18280 04f1 5042 4945 		.string	"PBIER"
 18280      5200 
GAS LISTING /tmp/ccvQL2RB.s 			page 332


 18281               	.LASF251:
 18282 04f7 6275 636B 		.string	"buckets"
 18282      6574 7300 
 18283               	.LASF27:
 18284 04ff 6475 6D6D 		.string	"dummy1"
 18284      7931 00
 18285               	.LASF28:
 18286 0506 6475 6D6D 		.string	"dummy2"
 18286      7932 00
 18287               	.LASF51:
 18288 050d 7075 7368 		.string	"pushAddrStack"
 18288      4164 6472 
 18288      5374 6163 
 18288      6B00 
 18289               	.LASF263:
 18290 051b 6F75 7470 		.string	"outputRingPtrXin"
 18290      7574 5269 
 18290      6E67 5074 
 18290      7258 696E 
 18290      00
 18291               	.LASF247:
 18292 052c 7375 6253 		.string	"subSecondClock"
 18292      6563 6F6E 
 18292      6443 6C6F 
 18292      636B 00
 18293               	.LASF13:
 18294 053b 7461 636C 		.string	"taclr"
 18294      7200 
 18295               	.LASF211:
 18296 0541 5042 4F55 		.string	"PBOUT"
 18296      5400 
 18297               	.LASF165:
 18298 0547 2A30 7830 		.string	"*0x0078"
 18298      3037 3800 
 18299               	.LASF167:
 18300 054f 2A30 7830 		.string	"*0x0079"
 18300      3037 3900 
 18301               	.LASF209:
 18302 0557 5042 4449 		.string	"PBDIR"
 18302      5200 
 18303               	.LASF265:
 18304 055d 696E 7075 		.string	"inputChar"
 18304      7443 6861 
 18304      7200 
 18305               	.LASF121:
 18306 0567 5031 4945 		.string	"P1IE"
 18306      00
 18307               	.LASF171:
 18308 056c 2A30 7830 		.string	"*0x007B"
 18308      3037 4200 
 18309               	.LASF173:
 18310 0574 2A30 7830 		.string	"*0x007C"
 18310      3037 4300 
 18311               	.LASF123:
 18312 057c 5031 5345 		.string	"P1SEL"
 18312      4C00 
 18313               	.LASF55:
GAS LISTING /tmp/ccvQL2RB.s 			page 333


 18314 0582 5F72 6573 		.string	"_reset_vector__"
 18314      6574 5F76 
 18314      6563 746F 
 18314      725F 5F00 
 18315               	.LASF154:
 18316 0592 5344 3136 		.string	"SD16MEM0"
 18316      4D45 4D30 
 18316      00
 18317               	.LASF280:
 18318 059b 696E 6974 		.string	"initVars"
 18318      5661 7273 
 18318      00
 18319               	.LASF147:
 18320 05a4 2A30 7830 		.string	"*0x00B7"
 18320      3042 3700 
 18321               	.LASF241:
 18322 05ac 7072 6F67 		.string	"prog"
 18322      00
 18323               	.LASF281:
 18324 05b1 2A30 7830 		.string	"*0x0000"
 18324      3030 3000 
 18325               	.LASF182:
 18326 05b9 2A30 7830 		.string	"*0x0002"
 18326      3030 3200 
 18327               	.LASF266:
 18328 05c1 696E 7075 		.string	"inputCharX"
 18328      7443 6861 
 18328      7258 00
 18329               	.LASF236:
 18330 05cc 636D 644C 		.string	"cmdListBi2"
 18330      6973 7442 
 18330      6932 00
 18331               	.LASF50:
 18332 05d7 7072 696E 		.string	"printHexChar"
 18332      7448 6578 
 18332      4368 6172 
 18332      00
 18333               	.LASF249:
 18334 05e4 736C 6F77 		.string	"slowTimer"
 18334      5469 6D65 
 18334      7200 
 18335               	.LASF177:
 18336 05ee 5553 4943 		.string	"USICCTL"
 18336      4354 4C00 
 18337               	.LASF178:
 18338 05f6 5553 4953 		.string	"USISR"
 18338      5200 
 18339               	.LASF152:
 18340 05fc 5344 3136 		.string	"SD16CCTL0"
 18340      4343 544C 
 18340      3000 
 18341               	.LASF160:
 18342 0606 5344 3136 		.string	"SD16CCTL1"
 18342      4343 544C 
 18342      3100 
 18343               	.LASF189:
 18344 0610 4341 4C42 		.string	"CALBC1_12MHZ"
GAS LISTING /tmp/ccvQL2RB.s 			page 334


 18344      4331 5F31 
 18344      324D 485A 
 18344      00
 18345               	.LASF11:
 18346 061d 7461 6966 		.string	"taifg"
 18346      6700 
 18347               	.LASF231:
 18348 0623 544D 5230 		.string	"TMR0_RB"
 18348      5F52 4200 
 18349               	.LASF56:
 18350 062b 6A75 6E6B 		.string	"junkInterrupt"
 18350      496E 7465 
 18350      7272 7570 
 18350      7400 
 18351               	.LASF136:
 18352 0639 5032 4945 		.string	"P2IE"
 18352      00
 18353               	.LASF275:
 18354 063e 6164 5F69 		.string	"ad_int_tmp"
 18354      6E74 5F74 
 18354      6D70 00
 18355               	.LASF203:
 18356 0649 5041 4F55 		.string	"PAOUT"
 18356      5400 
 18357               	.LASF71:
 18358 064f 6578 6563 		.string	"execN"
 18358      4E00 
 18359               	.LASF6:
 18360 0655 696E 7433 		.string	"int32_t"
 18360      325F 7400 
 18361               	.LASF1:
 18362 065d 756E 7369 		.string	"unsigned char"
 18362      676E 6564 
 18362      2063 6861 
 18362      7200 
 18363               	.LASF146:
 18364 066b 5344 3136 		.string	"SD16AE"
 18364      4145 00
 18365               	.LASF131:
 18366 0672 2A30 7830 		.string	"*0x002A"
 18366      3032 4100 
 18367               	.LASF133:
 18368 067a 2A30 7830 		.string	"*0x002B"
 18368      3032 4200 
 18369               	.LASF174:
 18370 0682 5553 4953 		.string	"USISRH"
 18370      5248 00
 18371               	.LASF31:
 18372 0689 5F5F 7030 		.string	"__p0"
 18372      00
 18373               	.LASF32:
 18374 068e 5F5F 7031 		.string	"__p1"
 18374      00
 18375               	.LASF33:
 18376 0693 5F5F 7032 		.string	"__p2"
 18376      00
 18377               	.LASF34:
GAS LISTING /tmp/ccvQL2RB.s 			page 335


 18378 0698 5F5F 7033 		.string	"__p3"
 18378      00
 18379               	.LASF35:
 18380 069d 5F5F 7034 		.string	"__p4"
 18380      00
 18381               	.LASF36:
 18382 06a2 5F5F 7035 		.string	"__p5"
 18382      00
 18383               	.LASF37:
 18384 06a7 5F5F 7036 		.string	"__p6"
 18384      00
 18385               	.LASF38:
 18386 06ac 5F5F 7037 		.string	"__p7"
 18386      00
 18387               	.LASF20:
 18388 06b1 6363 6965 		.string	"ccie"
 18388      00
 18389               	.LASF44:
 18390 06b6 656D 6974 		.string	"emit"
 18390      00
 18391               	.LASF219:
 18392 06bb 5350 495F 		.string	"SPI_TDR"
 18392      5444 5200 
 18393               	.LASF274:
 18394 06c3 6665 6353 		.string	"fecShadow"
 18394      6861 646F 
 18394      7700 
 18395               	.LASF264:
 18396 06cd 6F75 7470 		.string	"outputRingPtrXout"
 18396      7574 5269 
 18396      6E67 5074 
 18396      7258 6F75 
 18396      7400 
 18397               	.LASF262:
 18398 06df 6F75 7470 		.string	"outputRing"
 18398      7574 5269 
 18398      6E67 00
 18399               	.LASF88:
 18400 06ea 2A30 7830 		.string	"*0x012A"
 18400      3132 4100 
 18401               	.LASF258:
 18402 06f2 6F75 7470 		.string	"outputCharCntrN"
 18402      7574 4368 
 18402      6172 436E 
 18402      7472 4E00 
 18403               	.LASF90:
 18404 0702 2A30 7830 		.string	"*0x012C"
 18404      3132 4300 
 18405               	.LASF257:
 18406 070a 6F75 7470 		.string	"outputCharN"
 18406      7574 4368 
 18406      6172 4E00 
 18407               	.LASF94:
 18408 0716 2A30 7830 		.string	"*0x012E"
 18408      3132 4500 
 18409               	.LASF255:
 18410 071e 6C69 6E65 		.string	"lineBufferPtr"
GAS LISTING /tmp/ccvQL2RB.s 			page 336


 18410      4275 6666 
 18410      6572 5074 
 18410      7200 
 18411               	.LASF246:
 18412 072c 636D 644C 		.string	"cmdListPtr"
 18412      6973 7450 
 18412      7472 00
 18413               	.LASF23:
 18414 0737 6363 6973 		.string	"ccis"
 18414      00
 18415               	.LASF54:
 18416 073c 6F76 6572 		.string	"overFunc"
 18416      4675 6E63 
 18416      00
 18417               	.LASF268:
 18418 0745 696E 7075 		.string	"inputCharBit"
 18418      7443 6861 
 18418      7242 6974 
 18418      00
 18419               	.LASF224:
 18420 0752 2A30 7836 		.string	"*0x6000"
 18420      3030 3000 
 18421               	.LASF125:
 18422 075a 5031 5245 		.string	"P1REN"
 18422      4E00 
 18423               	.LASF68:
 18424 0760 7072 696E 		.string	"printNumber"
 18424      744E 756D 
 18424      6265 7200 
 18425               	.LASF24:
 18426 076c 7461 6363 		.string	"tacctl_t"
 18426      746C 5F74 
 18426      00
 18427               	.LASF217:
 18428 0775 5350 495F 		.string	"SPI_RDR"
 18428      5244 5200 
 18429               	.LASF57:
 18430 077d 6164 6349 		.string	"adcInterrupt"
 18430      6E74 6572 
 18430      7275 7074 
 18430      00
 18431               	.LASF42:
 18432 078a 7469 6D65 		.string	"timera_t"
 18432      7261 5F74 
 18432      00
 18433               	.LASF199:
 18434 0793 5041 4453 		.string	"PADSR"
 18434      5200 
 18435               	.LASF267:
 18436 0799 696E 7075 		.string	"inputCharCntr"
 18436      7443 6861 
 18436      7243 6E74 
 18436      7200 
 18437               	.LASF271:
 18438 07a7 696E 7075 		.string	"inputRingPtrXout"
 18438      7452 696E 
 18438      6750 7472 
GAS LISTING /tmp/ccvQL2RB.s 			page 337


 18438      586F 7574 
 18438      00
 18439               	.LASF134:
 18440 07b8 5032 4945 		.string	"P2IES"
 18440      5300 
 18441               	.LASF145:
 18442 07be 2A30 7831 		.string	"*0x110"
 18442      3130 00
 18443               	.LASF62:
 18444 07c5 6C6F 6F6B 		.string	"lookupToken"
 18444      7570 546F 
 18444      6B65 6E00 
 18445               	.LASF67:
 18446 07d1 6966 4675 		.string	"ifFunc"
 18446      6E63 00
 18447               	.LASF273:
 18448 07d8 696E 7075 		.string	"inputBufPtr"
 18448      7442 7566 
 18448      5074 7200 
 18449               	.LASF242:
 18450 07e4 7072 6F67 		.string	"progPtr"
 18450      5074 7200 
 18451               	.LASF140:
 18452 07ec 5032 5245 		.string	"P2REN"
 18452      4E00 
 18453               	.LASF127:
 18454 07f2 5032 494E 		.string	"P2IN"
 18454      00
 18455               	.LASF172:
 18456 07f7 5553 4953 		.string	"USISRL"
 18456      524C 00
 18457               	.LASF176:
 18458 07fe 5553 4943 		.string	"USICTL"
 18458      544C 00
 18459               	.LASF179:
 18460 0805 5744 5443 		.string	"WDTCTL"
 18460      544C 00
 18461               	.LASF237:
 18462 080c 636D 644C 		.string	"cmdList2N"
 18462      6973 7432 
 18462      4E00 
 18463               	.LASF95:
 18464 0816 5441 3043 		.string	"TA0CTL"
 18464      544C 00
 18465               	.LASF244:
 18466 081d 7072 6F67 		.string	"progOpsPtr"
 18466      4F70 7350 
 18466      7472 00
 18467               	.LASF151:
 18468 0828 2A30 7830 		.string	"*0x00B8"
 18468      3042 3800 
 18469               	.LASF109:
 18470 0830 2A30 7830 		.string	"*0x0020"
 18470      3032 3000 
 18471               	.LASF114:
 18472 0838 2A30 7830 		.string	"*0x0021"
 18472      3032 3100 
GAS LISTING /tmp/ccvQL2RB.s 			page 338


 18473               	.LASF116:
 18474 0840 2A30 7830 		.string	"*0x0022"
 18474      3032 3200 
 18475               	.LASF118:
 18476 0848 2A30 7830 		.string	"*0x0023"
 18476      3032 3300 
 18477               	.LASF120:
 18478 0850 2A30 7830 		.string	"*0x0024"
 18478      3032 3400 
 18479               	.LASF59:
 18480 0858 6765 744C 		.string	"getLine"
 18480      696E 6500 
 18481               	.LASF124:
 18482 0860 2A30 7830 		.string	"*0x0026"
 18482      3032 3600 
 18483               	.LASF126:
 18484 0868 2A30 7830 		.string	"*0x0027"
 18484      3032 3700 
 18485               	.LASF111:
 18486 0870 2A30 7830 		.string	"*0x0028"
 18486      3032 3800 
 18487               	.LASF52:
 18488 0878 706F 7041 		.string	"popAddrStack"
 18488      6464 7253 
 18488      7461 636B 
 18488      00
 18489               	.LASF248:
 18490 0885 6661 7374 		.string	"fastTimer"
 18490      5469 6D65 
 18490      7200 
 18491               	.LASF63:
 18492 088f 6C75 4675 		.string	"luFunc"
 18492      6E63 00
 18493               	.LASF135:
 18494 0896 2A30 7830 		.string	"*0x002C"
 18494      3032 4300 
 18495               	.LASF115:
 18496 089e 5031 4449 		.string	"P1DIR"
 18496      5200 
 18497               	.LASF139:
 18498 08a4 2A30 7830 		.string	"*0x002E"
 18498      3032 4500 
 18499               	.LASF141:
 18500 08ac 2A30 7830 		.string	"*0x002F"
 18500      3032 4600 
 18501               	.LASF2:
 18502 08b4 7569 6E74 		.string	"uint8_t"
 18502      385F 7400 
 18503               	.LASF41:
 18504 08bc 696F 7265 		.string	"ioregister_t"
 18504      6769 7374 
 18504      6572 5F74 
 18504      00
 18505               	.LASF162:
 18506 08c9 5344 3136 		.string	"SD16MEM1"
 18506      4D45 4D31 
 18506      00
GAS LISTING /tmp/ccvQL2RB.s 			page 339


 18507               	.LASF222:
 18508 08d2 2A30 7834 		.string	"*0x4006"
 18508      3030 3600 
 18509               	.LASF239:
 18510 08da 6164 6472 		.string	"addrStack"
 18510      5374 6163 
 18510      6B00 
 18511               	.LASF276:
 18512 08e4 496E 7465 		.string	"InterruptVectors"
 18512      7272 7570 
 18512      7456 6563 
 18512      746F 7273 
 18512      00
 18513               	.LASF148:
 18514 08f5 5344 3136 		.string	"SD16INCTL0"
 18514      494E 4354 
 18514      4C30 00
 18515               	.LASF156:
 18516 0900 5344 3136 		.string	"SD16INCTL1"
 18516      494E 4354 
 18516      4C31 00
 18517               	.LASF226:
 18518 090b 2A30 7836 		.string	"*0x6002"
 18518      3030 3200 
 18519               	.LASF228:
 18520 0913 2A30 7836 		.string	"*0x6004"
 18520      3030 3400 
 18521               	.LASF47:
 18522 091b 7072 696E 		.string	"printString"
 18522      7453 7472 
 18522      696E 6700 
 18523               	.LASF232:
 18524 0927 2A30 7836 		.string	"*0x6008"
 18524      3030 3800 
 18525               	.LASF97:
 18526 092f 5441 3052 		.string	"TA0R"
 18526      00
 18527               	.LASF240:
 18528 0934 6164 6472 		.string	"addrStackPtr"
 18528      5374 6163 
 18528      6B50 7472 
 18528      00
 18529               	.LASF149:
 18530 0941 2A30 7830 		.string	"*0x00B0"
 18530      3042 3000 
 18531               	.LASF157:
 18532 0949 2A30 7830 		.string	"*0x00B1"
 18532      3042 3100 
 18533               	.LASF234:
 18534 0951 2A30 7836 		.string	"*0x600A"
 18534      3030 4100 
 18535               	.LASF187:
 18536 0959 4341 4C44 		.string	"CALDCO_12MHZ"
 18536      434F 5F31 
 18536      324D 485A 
 18536      00
 18537               	.LASF75:
GAS LISTING /tmp/ccvQL2RB.s 			page 340


 18538 0966 6D61 696E 		.string	"main"
 18538      00
 18539               	.LASF87:
 18540 096b 4643 544C 		.string	"FCTL2"
 18540      3200 
 18541               	.LASF159:
 18542 0971 2A30 7830 		.string	"*0x00B9"
 18542      3042 3900 
 18543               	.LASF169:
 18544 0979 2A30 7830 		.string	"*0x007A"
 18544      3037 4100 
 18545               	.LASF49:
 18546 0981 706F 704D 		.string	"popMathStack"
 18546      6174 6853 
 18546      7461 636B 
 18546      00
 18547               	.LASF132:
 18548 098e 5032 4946 		.string	"P2IFG"
 18548      4700 
 18549               	.LASF73:
 18550 0994 6F70 636F 		.string	"opcode"
 18550      6465 00
 18551               	.LASF235:
 18552 099b 636D 644C 		.string	"cmdListBi"
 18552      6973 7442 
 18552      6900 
 18553               	
 18554               	/*********************************************************************
 18555               	 * File x.c: code size: 100 words (0x64)
 18556               	 * incl. words in prologues: 36, epilogues: 64
 18557               	 *********************************************************************/
GAS LISTING /tmp/ccvQL2RB.s 			page 341


DEFINED SYMBOLS
                            *ABS*:00000000 x.c
     /tmp/ccvQL2RB.s:18     .text:00000000 _reset_vector__
     /tmp/ccvQL2RB.s:4886   .text:000017fc main
     /tmp/ccvQL2RB.s:45     .text:00000004 junkInterrupt
     /tmp/ccvQL2RB.s:44     .text:00000004 vector_ffe0
     /tmp/ccvQL2RB.s:68     .text:00000006 adcInterrupt
     /tmp/ccvQL2RB.s:67     .text:00000006 vector_ffe2
     /tmp/ccvQL2RB.s:91     .text:00000008 timerInterrupt
     /tmp/ccvQL2RB.s:90     .text:00000008 vector_ffe4
                            *COM*:00000002 clicks
                            *COM*:00000002 inputCharBit
                            *COM*:00000002 outputCharCntr
                            *COM*:00000002 outputChar
                            *COM*:00000002 fastTimer
                            *COM*:00000002 subSecondClock
                            *COM*:00000002 slowTimer
                            *COM*:00000002 inputCharCntr
                            *COM*:00000002 inputCharX
                            *COM*:00000002 inputRingPtrXin
                            *COM*:00000010 inputRing
                            *COM*:00000002 outputRingPtrXin
                            *COM*:00000002 outputRingPtrXout
                            *COM*:00000020 outputRing
     /tmp/ccvQL2RB.s:245    .text:00000122 emit
     /tmp/ccvQL2RB.s:300    .text:0000015e getKey
                            *COM*:00000002 inputRingPtrXout
     /tmp/ccvQL2RB.s:343    .text:00000186 initVars
                            *COM*:00000002 outputCharCntrN
                            *COM*:00000001 inputBufPtr
     /tmp/ccvQL2RB.s:380    .text:000001a8 getKeyB
                            *COM*:00000002 lineBufferPtr
                            *COM*:00000080 lineBuffer
     /tmp/ccvQL2RB.s:410    .text:000001bc getLine
     /tmp/ccvQL2RB.s:793    .text:000003ee getWord
                            *COM*:00000020 wordBuffer
     /tmp/ccvQL2RB.s:973    .text:000004ae printString
     /tmp/ccvQL2RB.s:1047   .text:000004fc sc
     /tmp/ccvQL2RB.s:1113   .text:0000052e listFunction
     /tmp/ccvQL2RB.s:5016   .text:000018a8 cmdListBi
     /tmp/ccvQL2RB.s:5025   .text:000019b3 cmdListBi2
                            *COM*:00000080 cmdList
     /tmp/ccvQL2RB.s:1292   .text:00000616 popMathStack
                            *COM*:00000020 mathStack
     /tmp/ccvQL2RB.s:1324   .text:0000062c pushMathStack
     /tmp/ccvQL2RB.s:1357   .text:00000642 popAddrStack
                            *COM*:00000002 addrStackPtr
                            *COM*:00000040 addrStack
     /tmp/ccvQL2RB.s:1386   .text:00000656 pushAddrStack
     /tmp/ccvQL2RB.s:1415   .text:00000668 lookupToken
     /tmp/ccvQL2RB.s:1629   .text:0000074e luFunc
     /tmp/ccvQL2RB.s:1810   .text:00000820 numFunc
     /tmp/ccvQL2RB.s:1982   .text:000008f2 ifFunc
                            *COM*:00000002 progCounter
     /tmp/ccvQL2RB.s:5040   .text:000019c4 progBi
                            *COM*:00000200 prog
     /tmp/ccvQL2RB.s:2057   .text:00000946 pushnFunc
GAS LISTING /tmp/ccvQL2RB.s 			page 342


     /tmp/ccvQL2RB.s:2114   .text:00000980 overFunc
     /tmp/ccvQL2RB.s:2152   .text:0000099a dfnFunc
                            *COM*:00000002 cmdListPtr
                            *COM*:00000002 progPtr
                            *COM*:00000040 progOps
     /tmp/ccvQL2RB.s:2218   .text:000009f6 printNumber
     /tmp/ccvQL2RB.s:2439   .text:00000b1a printHexChar
     /tmp/ccvQL2RB.s:2507   .text:00000b64 printHexByte
     /tmp/ccvQL2RB.s:2641   .text:00000c08 printHexWord
     /tmp/ccvQL2RB.s:2681   .text:00000c30 execN
                            *COM*:00000208 buckets
     /tmp/ccvQL2RB.s:4722   .text:00001736 execFunc
                            *COM*:00000006 fecShadow
                            *COM*:00000002 dirMemory
     /tmp/ccvQL2RB.s:5031   .text:000019bc cmdList2N
     /tmp/ccvQL2RB.s:4801   .text:0000179a processLoop
                            *COM*:00000002 progOpsPtr
     /tmp/ccvQL2RB.s:4994   .text:000018a4 _unexpected_
     /tmp/ccvQL2RB.s:5194   .vectors:00000000 InterruptVectors
                            *COM*:00000002 outputCharN
                            *COM*:00000002 inputChar
                            *COM*:00000080 inputBuf
                            *COM*:00000002 ad_int_tmp

UNDEFINED SYMBOLS
__divmodhi4
__mulhisi3
__divmodsi4
__mulhi3
__stack
